
ExtremePong.elf:     file format elf32-littlearm

Sections:
Idx Name          Size      VMA       LMA       File off  Algn
  0 .isr_vector   000001e4  08000000  08000000  00010000  2**0
                  CONTENTS, ALLOC, LOAD, READONLY, DATA
  1 .text         00007a98  080001e4  080001e4  000101e4  2**2
                  CONTENTS, ALLOC, LOAD, READONLY, CODE
  2 .rodata       0000077c  08007c7c  08007c7c  00017c7c  2**2
                  CONTENTS, ALLOC, LOAD, READONLY, DATA
  3 .ARM.extab    00000000  080083f8  080083f8  000200a4  2**0
                  CONTENTS
  4 .ARM          00000000  080083f8  080083f8  000200a4  2**0
                  CONTENTS
  5 .preinit_array 00000000  080083f8  080083f8  000200a4  2**0
                  CONTENTS, ALLOC, LOAD, DATA
  6 .init_array   00000004  080083f8  080083f8  000183f8  2**2
                  CONTENTS, ALLOC, LOAD, DATA
  7 .fini_array   00000004  080083fc  080083fc  000183fc  2**2
                  CONTENTS, ALLOC, LOAD, DATA
  8 .data         000000a4  20000000  08008400  00020000  2**3
                  CONTENTS, ALLOC, LOAD, DATA
  9 .bss          0000012c  200000a4  080084a4  000200a4  2**2
                  ALLOC
 10 ._user_heap_stack 00000600  200001d0  080084a4  000201d0  2**0
                  ALLOC
 11 .ARM.attributes 00000029  00000000  00000000  000200a4  2**0
                  CONTENTS, READONLY
 12 .debug_info   0001205d  00000000  00000000  000200cd  2**0
                  CONTENTS, READONLY, DEBUGGING, OCTETS
 13 .debug_abbrev 000036ec  00000000  00000000  0003212a  2**0
                  CONTENTS, READONLY, DEBUGGING, OCTETS
 14 .debug_aranges 00001028  00000000  00000000  00035818  2**3
                  CONTENTS, READONLY, DEBUGGING, OCTETS
 15 .debug_ranges 00000ed0  00000000  00000000  00036840  2**3
                  CONTENTS, READONLY, DEBUGGING, OCTETS
 16 .debug_macro  0001e851  00000000  00000000  00037710  2**0
                  CONTENTS, READONLY, DEBUGGING, OCTETS
 17 .debug_line   00013523  00000000  00000000  00055f61  2**0
                  CONTENTS, READONLY, DEBUGGING, OCTETS
 18 .debug_str    000a41ef  00000000  00000000  00069484  2**0
                  CONTENTS, READONLY, DEBUGGING, OCTETS
 19 .comment      00000050  00000000  00000000  0010d673  2**0
                  CONTENTS, READONLY
 20 .debug_frame  0000481c  00000000  00000000  0010d6c4  2**2
                  CONTENTS, READONLY, DEBUGGING, OCTETS

Disassembly of section .text:

080001e4 <__do_global_dtors_aux>:
 80001e4:	b510      	push	{r4, lr}
 80001e6:	4c05      	ldr	r4, [pc, #20]	; (80001fc <__do_global_dtors_aux+0x18>)
 80001e8:	7823      	ldrb	r3, [r4, #0]
 80001ea:	b933      	cbnz	r3, 80001fa <__do_global_dtors_aux+0x16>
 80001ec:	4b04      	ldr	r3, [pc, #16]	; (8000200 <__do_global_dtors_aux+0x1c>)
 80001ee:	b113      	cbz	r3, 80001f6 <__do_global_dtors_aux+0x12>
 80001f0:	4804      	ldr	r0, [pc, #16]	; (8000204 <__do_global_dtors_aux+0x20>)
 80001f2:	f3af 8000 	nop.w
 80001f6:	2301      	movs	r3, #1
 80001f8:	7023      	strb	r3, [r4, #0]
 80001fa:	bd10      	pop	{r4, pc}
 80001fc:	200000a4 	.word	0x200000a4
 8000200:	00000000 	.word	0x00000000
 8000204:	08007c64 	.word	0x08007c64

08000208 <frame_dummy>:
 8000208:	b508      	push	{r3, lr}
 800020a:	4b03      	ldr	r3, [pc, #12]	; (8000218 <frame_dummy+0x10>)
 800020c:	b11b      	cbz	r3, 8000216 <frame_dummy+0xe>
 800020e:	4903      	ldr	r1, [pc, #12]	; (800021c <frame_dummy+0x14>)
 8000210:	4803      	ldr	r0, [pc, #12]	; (8000220 <frame_dummy+0x18>)
 8000212:	f3af 8000 	nop.w
 8000216:	bd08      	pop	{r3, pc}
 8000218:	00000000 	.word	0x00000000
 800021c:	200000a8 	.word	0x200000a8
 8000220:	08007c64 	.word	0x08007c64

08000224 <__aeabi_dmul>:
 8000224:	b570      	push	{r4, r5, r6, lr}
 8000226:	f04f 0cff 	mov.w	ip, #255	; 0xff
 800022a:	f44c 6ce0 	orr.w	ip, ip, #1792	; 0x700
 800022e:	ea1c 5411 	ands.w	r4, ip, r1, lsr #20
 8000232:	bf1d      	ittte	ne
 8000234:	ea1c 5513 	andsne.w	r5, ip, r3, lsr #20
 8000238:	ea94 0f0c 	teqne	r4, ip
 800023c:	ea95 0f0c 	teqne	r5, ip
 8000240:	f000 f8de 	bleq	8000400 <__aeabi_dmul+0x1dc>
 8000244:	442c      	add	r4, r5
 8000246:	ea81 0603 	eor.w	r6, r1, r3
 800024a:	ea21 514c 	bic.w	r1, r1, ip, lsl #21
 800024e:	ea23 534c 	bic.w	r3, r3, ip, lsl #21
 8000252:	ea50 3501 	orrs.w	r5, r0, r1, lsl #12
 8000256:	bf18      	it	ne
 8000258:	ea52 3503 	orrsne.w	r5, r2, r3, lsl #12
 800025c:	f441 1180 	orr.w	r1, r1, #1048576	; 0x100000
 8000260:	f443 1380 	orr.w	r3, r3, #1048576	; 0x100000
 8000264:	d038      	beq.n	80002d8 <__aeabi_dmul+0xb4>
 8000266:	fba0 ce02 	umull	ip, lr, r0, r2
 800026a:	f04f 0500 	mov.w	r5, #0
 800026e:	fbe1 e502 	umlal	lr, r5, r1, r2
 8000272:	f006 4200 	and.w	r2, r6, #2147483648	; 0x80000000
 8000276:	fbe0 e503 	umlal	lr, r5, r0, r3
 800027a:	f04f 0600 	mov.w	r6, #0
 800027e:	fbe1 5603 	umlal	r5, r6, r1, r3
 8000282:	f09c 0f00 	teq	ip, #0
 8000286:	bf18      	it	ne
 8000288:	f04e 0e01 	orrne.w	lr, lr, #1
 800028c:	f1a4 04ff 	sub.w	r4, r4, #255	; 0xff
 8000290:	f5b6 7f00 	cmp.w	r6, #512	; 0x200
 8000294:	f564 7440 	sbc.w	r4, r4, #768	; 0x300
 8000298:	d204      	bcs.n	80002a4 <__aeabi_dmul+0x80>
 800029a:	ea5f 0e4e 	movs.w	lr, lr, lsl #1
 800029e:	416d      	adcs	r5, r5
 80002a0:	eb46 0606 	adc.w	r6, r6, r6
 80002a4:	ea42 21c6 	orr.w	r1, r2, r6, lsl #11
 80002a8:	ea41 5155 	orr.w	r1, r1, r5, lsr #21
 80002ac:	ea4f 20c5 	mov.w	r0, r5, lsl #11
 80002b0:	ea40 505e 	orr.w	r0, r0, lr, lsr #21
 80002b4:	ea4f 2ece 	mov.w	lr, lr, lsl #11
 80002b8:	f1b4 0cfd 	subs.w	ip, r4, #253	; 0xfd
 80002bc:	bf88      	it	hi
 80002be:	f5bc 6fe0 	cmphi.w	ip, #1792	; 0x700
 80002c2:	d81e      	bhi.n	8000302 <__aeabi_dmul+0xde>
 80002c4:	f1be 4f00 	cmp.w	lr, #2147483648	; 0x80000000
 80002c8:	bf08      	it	eq
 80002ca:	ea5f 0e50 	movseq.w	lr, r0, lsr #1
 80002ce:	f150 0000 	adcs.w	r0, r0, #0
 80002d2:	eb41 5104 	adc.w	r1, r1, r4, lsl #20
 80002d6:	bd70      	pop	{r4, r5, r6, pc}
 80002d8:	f006 4600 	and.w	r6, r6, #2147483648	; 0x80000000
 80002dc:	ea46 0101 	orr.w	r1, r6, r1
 80002e0:	ea40 0002 	orr.w	r0, r0, r2
 80002e4:	ea81 0103 	eor.w	r1, r1, r3
 80002e8:	ebb4 045c 	subs.w	r4, r4, ip, lsr #1
 80002ec:	bfc2      	ittt	gt
 80002ee:	ebd4 050c 	rsbsgt	r5, r4, ip
 80002f2:	ea41 5104 	orrgt.w	r1, r1, r4, lsl #20
 80002f6:	bd70      	popgt	{r4, r5, r6, pc}
 80002f8:	f441 1180 	orr.w	r1, r1, #1048576	; 0x100000
 80002fc:	f04f 0e00 	mov.w	lr, #0
 8000300:	3c01      	subs	r4, #1
 8000302:	f300 80ab 	bgt.w	800045c <__aeabi_dmul+0x238>
 8000306:	f114 0f36 	cmn.w	r4, #54	; 0x36
 800030a:	bfde      	ittt	le
 800030c:	2000      	movle	r0, #0
 800030e:	f001 4100 	andle.w	r1, r1, #2147483648	; 0x80000000
 8000312:	bd70      	pople	{r4, r5, r6, pc}
 8000314:	f1c4 0400 	rsb	r4, r4, #0
 8000318:	3c20      	subs	r4, #32
 800031a:	da35      	bge.n	8000388 <__aeabi_dmul+0x164>
 800031c:	340c      	adds	r4, #12
 800031e:	dc1b      	bgt.n	8000358 <__aeabi_dmul+0x134>
 8000320:	f104 0414 	add.w	r4, r4, #20
 8000324:	f1c4 0520 	rsb	r5, r4, #32
 8000328:	fa00 f305 	lsl.w	r3, r0, r5
 800032c:	fa20 f004 	lsr.w	r0, r0, r4
 8000330:	fa01 f205 	lsl.w	r2, r1, r5
 8000334:	ea40 0002 	orr.w	r0, r0, r2
 8000338:	f001 4200 	and.w	r2, r1, #2147483648	; 0x80000000
 800033c:	f021 4100 	bic.w	r1, r1, #2147483648	; 0x80000000
 8000340:	eb10 70d3 	adds.w	r0, r0, r3, lsr #31
 8000344:	fa21 f604 	lsr.w	r6, r1, r4
 8000348:	eb42 0106 	adc.w	r1, r2, r6
 800034c:	ea5e 0e43 	orrs.w	lr, lr, r3, lsl #1
 8000350:	bf08      	it	eq
 8000352:	ea20 70d3 	biceq.w	r0, r0, r3, lsr #31
 8000356:	bd70      	pop	{r4, r5, r6, pc}
 8000358:	f1c4 040c 	rsb	r4, r4, #12
 800035c:	f1c4 0520 	rsb	r5, r4, #32
 8000360:	fa00 f304 	lsl.w	r3, r0, r4
 8000364:	fa20 f005 	lsr.w	r0, r0, r5
 8000368:	fa01 f204 	lsl.w	r2, r1, r4
 800036c:	ea40 0002 	orr.w	r0, r0, r2
 8000370:	f001 4100 	and.w	r1, r1, #2147483648	; 0x80000000
 8000374:	eb10 70d3 	adds.w	r0, r0, r3, lsr #31
 8000378:	f141 0100 	adc.w	r1, r1, #0
 800037c:	ea5e 0e43 	orrs.w	lr, lr, r3, lsl #1
 8000380:	bf08      	it	eq
 8000382:	ea20 70d3 	biceq.w	r0, r0, r3, lsr #31
 8000386:	bd70      	pop	{r4, r5, r6, pc}
 8000388:	f1c4 0520 	rsb	r5, r4, #32
 800038c:	fa00 f205 	lsl.w	r2, r0, r5
 8000390:	ea4e 0e02 	orr.w	lr, lr, r2
 8000394:	fa20 f304 	lsr.w	r3, r0, r4
 8000398:	fa01 f205 	lsl.w	r2, r1, r5
 800039c:	ea43 0302 	orr.w	r3, r3, r2
 80003a0:	fa21 f004 	lsr.w	r0, r1, r4
 80003a4:	f001 4100 	and.w	r1, r1, #2147483648	; 0x80000000
 80003a8:	fa21 f204 	lsr.w	r2, r1, r4
 80003ac:	ea20 0002 	bic.w	r0, r0, r2
 80003b0:	eb00 70d3 	add.w	r0, r0, r3, lsr #31
 80003b4:	ea5e 0e43 	orrs.w	lr, lr, r3, lsl #1
 80003b8:	bf08      	it	eq
 80003ba:	ea20 70d3 	biceq.w	r0, r0, r3, lsr #31
 80003be:	bd70      	pop	{r4, r5, r6, pc}
 80003c0:	f094 0f00 	teq	r4, #0
 80003c4:	d10f      	bne.n	80003e6 <__aeabi_dmul+0x1c2>
 80003c6:	f001 4600 	and.w	r6, r1, #2147483648	; 0x80000000
 80003ca:	0040      	lsls	r0, r0, #1
 80003cc:	eb41 0101 	adc.w	r1, r1, r1
 80003d0:	f411 1f80 	tst.w	r1, #1048576	; 0x100000
 80003d4:	bf08      	it	eq
 80003d6:	3c01      	subeq	r4, #1
 80003d8:	d0f7      	beq.n	80003ca <__aeabi_dmul+0x1a6>
 80003da:	ea41 0106 	orr.w	r1, r1, r6
 80003de:	f095 0f00 	teq	r5, #0
 80003e2:	bf18      	it	ne
 80003e4:	4770      	bxne	lr
 80003e6:	f003 4600 	and.w	r6, r3, #2147483648	; 0x80000000
 80003ea:	0052      	lsls	r2, r2, #1
 80003ec:	eb43 0303 	adc.w	r3, r3, r3
 80003f0:	f413 1f80 	tst.w	r3, #1048576	; 0x100000
 80003f4:	bf08      	it	eq
 80003f6:	3d01      	subeq	r5, #1
 80003f8:	d0f7      	beq.n	80003ea <__aeabi_dmul+0x1c6>
 80003fa:	ea43 0306 	orr.w	r3, r3, r6
 80003fe:	4770      	bx	lr
 8000400:	ea94 0f0c 	teq	r4, ip
 8000404:	ea0c 5513 	and.w	r5, ip, r3, lsr #20
 8000408:	bf18      	it	ne
 800040a:	ea95 0f0c 	teqne	r5, ip
 800040e:	d00c      	beq.n	800042a <__aeabi_dmul+0x206>
 8000410:	ea50 0641 	orrs.w	r6, r0, r1, lsl #1
 8000414:	bf18      	it	ne
 8000416:	ea52 0643 	orrsne.w	r6, r2, r3, lsl #1
 800041a:	d1d1      	bne.n	80003c0 <__aeabi_dmul+0x19c>
 800041c:	ea81 0103 	eor.w	r1, r1, r3
 8000420:	f001 4100 	and.w	r1, r1, #2147483648	; 0x80000000
 8000424:	f04f 0000 	mov.w	r0, #0
 8000428:	bd70      	pop	{r4, r5, r6, pc}
 800042a:	ea50 0641 	orrs.w	r6, r0, r1, lsl #1
 800042e:	bf06      	itte	eq
 8000430:	4610      	moveq	r0, r2
 8000432:	4619      	moveq	r1, r3
 8000434:	ea52 0643 	orrsne.w	r6, r2, r3, lsl #1
 8000438:	d019      	beq.n	800046e <__aeabi_dmul+0x24a>
 800043a:	ea94 0f0c 	teq	r4, ip
 800043e:	d102      	bne.n	8000446 <__aeabi_dmul+0x222>
 8000440:	ea50 3601 	orrs.w	r6, r0, r1, lsl #12
 8000444:	d113      	bne.n	800046e <__aeabi_dmul+0x24a>
 8000446:	ea95 0f0c 	teq	r5, ip
 800044a:	d105      	bne.n	8000458 <__aeabi_dmul+0x234>
 800044c:	ea52 3603 	orrs.w	r6, r2, r3, lsl #12
 8000450:	bf1c      	itt	ne
 8000452:	4610      	movne	r0, r2
 8000454:	4619      	movne	r1, r3
 8000456:	d10a      	bne.n	800046e <__aeabi_dmul+0x24a>
 8000458:	ea81 0103 	eor.w	r1, r1, r3
 800045c:	f001 4100 	and.w	r1, r1, #2147483648	; 0x80000000
 8000460:	f041 41fe 	orr.w	r1, r1, #2130706432	; 0x7f000000
 8000464:	f441 0170 	orr.w	r1, r1, #15728640	; 0xf00000
 8000468:	f04f 0000 	mov.w	r0, #0
 800046c:	bd70      	pop	{r4, r5, r6, pc}
 800046e:	f041 41fe 	orr.w	r1, r1, #2130706432	; 0x7f000000
 8000472:	f441 0178 	orr.w	r1, r1, #16252928	; 0xf80000
 8000476:	bd70      	pop	{r4, r5, r6, pc}

08000478 <__aeabi_drsub>:
 8000478:	f081 4100 	eor.w	r1, r1, #2147483648	; 0x80000000
 800047c:	e002      	b.n	8000484 <__adddf3>
 800047e:	bf00      	nop

08000480 <__aeabi_dsub>:
 8000480:	f083 4300 	eor.w	r3, r3, #2147483648	; 0x80000000

08000484 <__adddf3>:
 8000484:	b530      	push	{r4, r5, lr}
 8000486:	ea4f 0441 	mov.w	r4, r1, lsl #1
 800048a:	ea4f 0543 	mov.w	r5, r3, lsl #1
 800048e:	ea94 0f05 	teq	r4, r5
 8000492:	bf08      	it	eq
 8000494:	ea90 0f02 	teqeq	r0, r2
 8000498:	bf1f      	itttt	ne
 800049a:	ea54 0c00 	orrsne.w	ip, r4, r0
 800049e:	ea55 0c02 	orrsne.w	ip, r5, r2
 80004a2:	ea7f 5c64 	mvnsne.w	ip, r4, asr #21
 80004a6:	ea7f 5c65 	mvnsne.w	ip, r5, asr #21
 80004aa:	f000 80e2 	beq.w	8000672 <__adddf3+0x1ee>
 80004ae:	ea4f 5454 	mov.w	r4, r4, lsr #21
 80004b2:	ebd4 5555 	rsbs	r5, r4, r5, lsr #21
 80004b6:	bfb8      	it	lt
 80004b8:	426d      	neglt	r5, r5
 80004ba:	dd0c      	ble.n	80004d6 <__adddf3+0x52>
 80004bc:	442c      	add	r4, r5
 80004be:	ea80 0202 	eor.w	r2, r0, r2
 80004c2:	ea81 0303 	eor.w	r3, r1, r3
 80004c6:	ea82 0000 	eor.w	r0, r2, r0
 80004ca:	ea83 0101 	eor.w	r1, r3, r1
 80004ce:	ea80 0202 	eor.w	r2, r0, r2
 80004d2:	ea81 0303 	eor.w	r3, r1, r3
 80004d6:	2d36      	cmp	r5, #54	; 0x36
 80004d8:	bf88      	it	hi
 80004da:	bd30      	pophi	{r4, r5, pc}
 80004dc:	f011 4f00 	tst.w	r1, #2147483648	; 0x80000000
 80004e0:	ea4f 3101 	mov.w	r1, r1, lsl #12
 80004e4:	f44f 1c80 	mov.w	ip, #1048576	; 0x100000
 80004e8:	ea4c 3111 	orr.w	r1, ip, r1, lsr #12
 80004ec:	d002      	beq.n	80004f4 <__adddf3+0x70>
 80004ee:	4240      	negs	r0, r0
 80004f0:	eb61 0141 	sbc.w	r1, r1, r1, lsl #1
 80004f4:	f013 4f00 	tst.w	r3, #2147483648	; 0x80000000
 80004f8:	ea4f 3303 	mov.w	r3, r3, lsl #12
 80004fc:	ea4c 3313 	orr.w	r3, ip, r3, lsr #12
 8000500:	d002      	beq.n	8000508 <__adddf3+0x84>
 8000502:	4252      	negs	r2, r2
 8000504:	eb63 0343 	sbc.w	r3, r3, r3, lsl #1
 8000508:	ea94 0f05 	teq	r4, r5
 800050c:	f000 80a7 	beq.w	800065e <__adddf3+0x1da>
 8000510:	f1a4 0401 	sub.w	r4, r4, #1
 8000514:	f1d5 0e20 	rsbs	lr, r5, #32
 8000518:	db0d      	blt.n	8000536 <__adddf3+0xb2>
 800051a:	fa02 fc0e 	lsl.w	ip, r2, lr
 800051e:	fa22 f205 	lsr.w	r2, r2, r5
 8000522:	1880      	adds	r0, r0, r2
 8000524:	f141 0100 	adc.w	r1, r1, #0
 8000528:	fa03 f20e 	lsl.w	r2, r3, lr
 800052c:	1880      	adds	r0, r0, r2
 800052e:	fa43 f305 	asr.w	r3, r3, r5
 8000532:	4159      	adcs	r1, r3
 8000534:	e00e      	b.n	8000554 <__adddf3+0xd0>
 8000536:	f1a5 0520 	sub.w	r5, r5, #32
 800053a:	f10e 0e20 	add.w	lr, lr, #32
 800053e:	2a01      	cmp	r2, #1
 8000540:	fa03 fc0e 	lsl.w	ip, r3, lr
 8000544:	bf28      	it	cs
 8000546:	f04c 0c02 	orrcs.w	ip, ip, #2
 800054a:	fa43 f305 	asr.w	r3, r3, r5
 800054e:	18c0      	adds	r0, r0, r3
 8000550:	eb51 71e3 	adcs.w	r1, r1, r3, asr #31
 8000554:	f001 4500 	and.w	r5, r1, #2147483648	; 0x80000000
 8000558:	d507      	bpl.n	800056a <__adddf3+0xe6>
 800055a:	f04f 0e00 	mov.w	lr, #0
 800055e:	f1dc 0c00 	rsbs	ip, ip, #0
 8000562:	eb7e 0000 	sbcs.w	r0, lr, r0
 8000566:	eb6e 0101 	sbc.w	r1, lr, r1
 800056a:	f5b1 1f80 	cmp.w	r1, #1048576	; 0x100000
 800056e:	d31b      	bcc.n	80005a8 <__adddf3+0x124>
 8000570:	f5b1 1f00 	cmp.w	r1, #2097152	; 0x200000
 8000574:	d30c      	bcc.n	8000590 <__adddf3+0x10c>
 8000576:	0849      	lsrs	r1, r1, #1
 8000578:	ea5f 0030 	movs.w	r0, r0, rrx
 800057c:	ea4f 0c3c 	mov.w	ip, ip, rrx
 8000580:	f104 0401 	add.w	r4, r4, #1
 8000584:	ea4f 5244 	mov.w	r2, r4, lsl #21
 8000588:	f512 0f80 	cmn.w	r2, #4194304	; 0x400000
 800058c:	f080 809a 	bcs.w	80006c4 <__adddf3+0x240>
 8000590:	f1bc 4f00 	cmp.w	ip, #2147483648	; 0x80000000
 8000594:	bf08      	it	eq
 8000596:	ea5f 0c50 	movseq.w	ip, r0, lsr #1
 800059a:	f150 0000 	adcs.w	r0, r0, #0
 800059e:	eb41 5104 	adc.w	r1, r1, r4, lsl #20
 80005a2:	ea41 0105 	orr.w	r1, r1, r5
 80005a6:	bd30      	pop	{r4, r5, pc}
 80005a8:	ea5f 0c4c 	movs.w	ip, ip, lsl #1
 80005ac:	4140      	adcs	r0, r0
 80005ae:	eb41 0101 	adc.w	r1, r1, r1
 80005b2:	3c01      	subs	r4, #1
 80005b4:	bf28      	it	cs
 80005b6:	f5b1 1f80 	cmpcs.w	r1, #1048576	; 0x100000
 80005ba:	d2e9      	bcs.n	8000590 <__adddf3+0x10c>
 80005bc:	f091 0f00 	teq	r1, #0
 80005c0:	bf04      	itt	eq
 80005c2:	4601      	moveq	r1, r0
 80005c4:	2000      	moveq	r0, #0
 80005c6:	fab1 f381 	clz	r3, r1
 80005ca:	bf08      	it	eq
 80005cc:	3320      	addeq	r3, #32
 80005ce:	f1a3 030b 	sub.w	r3, r3, #11
 80005d2:	f1b3 0220 	subs.w	r2, r3, #32
 80005d6:	da0c      	bge.n	80005f2 <__adddf3+0x16e>
 80005d8:	320c      	adds	r2, #12
 80005da:	dd08      	ble.n	80005ee <__adddf3+0x16a>
 80005dc:	f102 0c14 	add.w	ip, r2, #20
 80005e0:	f1c2 020c 	rsb	r2, r2, #12
 80005e4:	fa01 f00c 	lsl.w	r0, r1, ip
 80005e8:	fa21 f102 	lsr.w	r1, r1, r2
 80005ec:	e00c      	b.n	8000608 <__adddf3+0x184>
 80005ee:	f102 0214 	add.w	r2, r2, #20
 80005f2:	bfd8      	it	le
 80005f4:	f1c2 0c20 	rsble	ip, r2, #32
 80005f8:	fa01 f102 	lsl.w	r1, r1, r2
 80005fc:	fa20 fc0c 	lsr.w	ip, r0, ip
 8000600:	bfdc      	itt	le
 8000602:	ea41 010c 	orrle.w	r1, r1, ip
 8000606:	4090      	lslle	r0, r2
 8000608:	1ae4      	subs	r4, r4, r3
 800060a:	bfa2      	ittt	ge
 800060c:	eb01 5104 	addge.w	r1, r1, r4, lsl #20
 8000610:	4329      	orrge	r1, r5
 8000612:	bd30      	popge	{r4, r5, pc}
 8000614:	ea6f 0404 	mvn.w	r4, r4
 8000618:	3c1f      	subs	r4, #31
 800061a:	da1c      	bge.n	8000656 <__adddf3+0x1d2>
 800061c:	340c      	adds	r4, #12
 800061e:	dc0e      	bgt.n	800063e <__adddf3+0x1ba>
 8000620:	f104 0414 	add.w	r4, r4, #20
 8000624:	f1c4 0220 	rsb	r2, r4, #32
 8000628:	fa20 f004 	lsr.w	r0, r0, r4
 800062c:	fa01 f302 	lsl.w	r3, r1, r2
 8000630:	ea40 0003 	orr.w	r0, r0, r3
 8000634:	fa21 f304 	lsr.w	r3, r1, r4
 8000638:	ea45 0103 	orr.w	r1, r5, r3
 800063c:	bd30      	pop	{r4, r5, pc}
 800063e:	f1c4 040c 	rsb	r4, r4, #12
 8000642:	f1c4 0220 	rsb	r2, r4, #32
 8000646:	fa20 f002 	lsr.w	r0, r0, r2
 800064a:	fa01 f304 	lsl.w	r3, r1, r4
 800064e:	ea40 0003 	orr.w	r0, r0, r3
 8000652:	4629      	mov	r1, r5
 8000654:	bd30      	pop	{r4, r5, pc}
 8000656:	fa21 f004 	lsr.w	r0, r1, r4
 800065a:	4629      	mov	r1, r5
 800065c:	bd30      	pop	{r4, r5, pc}
 800065e:	f094 0f00 	teq	r4, #0
 8000662:	f483 1380 	eor.w	r3, r3, #1048576	; 0x100000
 8000666:	bf06      	itte	eq
 8000668:	f481 1180 	eoreq.w	r1, r1, #1048576	; 0x100000
 800066c:	3401      	addeq	r4, #1
 800066e:	3d01      	subne	r5, #1
 8000670:	e74e      	b.n	8000510 <__adddf3+0x8c>
 8000672:	ea7f 5c64 	mvns.w	ip, r4, asr #21
 8000676:	bf18      	it	ne
 8000678:	ea7f 5c65 	mvnsne.w	ip, r5, asr #21
 800067c:	d029      	beq.n	80006d2 <__adddf3+0x24e>
 800067e:	ea94 0f05 	teq	r4, r5
 8000682:	bf08      	it	eq
 8000684:	ea90 0f02 	teqeq	r0, r2
 8000688:	d005      	beq.n	8000696 <__adddf3+0x212>
 800068a:	ea54 0c00 	orrs.w	ip, r4, r0
 800068e:	bf04      	itt	eq
 8000690:	4619      	moveq	r1, r3
 8000692:	4610      	moveq	r0, r2
 8000694:	bd30      	pop	{r4, r5, pc}
 8000696:	ea91 0f03 	teq	r1, r3
 800069a:	bf1e      	ittt	ne
 800069c:	2100      	movne	r1, #0
 800069e:	2000      	movne	r0, #0
 80006a0:	bd30      	popne	{r4, r5, pc}
 80006a2:	ea5f 5c54 	movs.w	ip, r4, lsr #21
 80006a6:	d105      	bne.n	80006b4 <__adddf3+0x230>
 80006a8:	0040      	lsls	r0, r0, #1
 80006aa:	4149      	adcs	r1, r1
 80006ac:	bf28      	it	cs
 80006ae:	f041 4100 	orrcs.w	r1, r1, #2147483648	; 0x80000000
 80006b2:	bd30      	pop	{r4, r5, pc}
 80006b4:	f514 0480 	adds.w	r4, r4, #4194304	; 0x400000
 80006b8:	bf3c      	itt	cc
 80006ba:	f501 1180 	addcc.w	r1, r1, #1048576	; 0x100000
 80006be:	bd30      	popcc	{r4, r5, pc}
 80006c0:	f001 4500 	and.w	r5, r1, #2147483648	; 0x80000000
 80006c4:	f045 41fe 	orr.w	r1, r5, #2130706432	; 0x7f000000
 80006c8:	f441 0170 	orr.w	r1, r1, #15728640	; 0xf00000
 80006cc:	f04f 0000 	mov.w	r0, #0
 80006d0:	bd30      	pop	{r4, r5, pc}
 80006d2:	ea7f 5c64 	mvns.w	ip, r4, asr #21
 80006d6:	bf1a      	itte	ne
 80006d8:	4619      	movne	r1, r3
 80006da:	4610      	movne	r0, r2
 80006dc:	ea7f 5c65 	mvnseq.w	ip, r5, asr #21
 80006e0:	bf1c      	itt	ne
 80006e2:	460b      	movne	r3, r1
 80006e4:	4602      	movne	r2, r0
 80006e6:	ea50 3401 	orrs.w	r4, r0, r1, lsl #12
 80006ea:	bf06      	itte	eq
 80006ec:	ea52 3503 	orrseq.w	r5, r2, r3, lsl #12
 80006f0:	ea91 0f03 	teqeq	r1, r3
 80006f4:	f441 2100 	orrne.w	r1, r1, #524288	; 0x80000
 80006f8:	bd30      	pop	{r4, r5, pc}
 80006fa:	bf00      	nop

080006fc <__aeabi_ui2d>:
 80006fc:	f090 0f00 	teq	r0, #0
 8000700:	bf04      	itt	eq
 8000702:	2100      	moveq	r1, #0
 8000704:	4770      	bxeq	lr
 8000706:	b530      	push	{r4, r5, lr}
 8000708:	f44f 6480 	mov.w	r4, #1024	; 0x400
 800070c:	f104 0432 	add.w	r4, r4, #50	; 0x32
 8000710:	f04f 0500 	mov.w	r5, #0
 8000714:	f04f 0100 	mov.w	r1, #0
 8000718:	e750      	b.n	80005bc <__adddf3+0x138>
 800071a:	bf00      	nop

0800071c <__aeabi_i2d>:
 800071c:	f090 0f00 	teq	r0, #0
 8000720:	bf04      	itt	eq
 8000722:	2100      	moveq	r1, #0
 8000724:	4770      	bxeq	lr
 8000726:	b530      	push	{r4, r5, lr}
 8000728:	f44f 6480 	mov.w	r4, #1024	; 0x400
 800072c:	f104 0432 	add.w	r4, r4, #50	; 0x32
 8000730:	f010 4500 	ands.w	r5, r0, #2147483648	; 0x80000000
 8000734:	bf48      	it	mi
 8000736:	4240      	negmi	r0, r0
 8000738:	f04f 0100 	mov.w	r1, #0
 800073c:	e73e      	b.n	80005bc <__adddf3+0x138>
 800073e:	bf00      	nop

08000740 <__aeabi_f2d>:
 8000740:	0042      	lsls	r2, r0, #1
 8000742:	ea4f 01e2 	mov.w	r1, r2, asr #3
 8000746:	ea4f 0131 	mov.w	r1, r1, rrx
 800074a:	ea4f 7002 	mov.w	r0, r2, lsl #28
 800074e:	bf1f      	itttt	ne
 8000750:	f012 437f 	andsne.w	r3, r2, #4278190080	; 0xff000000
 8000754:	f093 4f7f 	teqne	r3, #4278190080	; 0xff000000
 8000758:	f081 5160 	eorne.w	r1, r1, #939524096	; 0x38000000
 800075c:	4770      	bxne	lr
 800075e:	f032 427f 	bics.w	r2, r2, #4278190080	; 0xff000000
 8000762:	bf08      	it	eq
 8000764:	4770      	bxeq	lr
 8000766:	f093 4f7f 	teq	r3, #4278190080	; 0xff000000
 800076a:	bf04      	itt	eq
 800076c:	f441 2100 	orreq.w	r1, r1, #524288	; 0x80000
 8000770:	4770      	bxeq	lr
 8000772:	b530      	push	{r4, r5, lr}
 8000774:	f44f 7460 	mov.w	r4, #896	; 0x380
 8000778:	f001 4500 	and.w	r5, r1, #2147483648	; 0x80000000
 800077c:	f021 4100 	bic.w	r1, r1, #2147483648	; 0x80000000
 8000780:	e71c      	b.n	80005bc <__adddf3+0x138>
 8000782:	bf00      	nop

08000784 <__aeabi_ul2d>:
 8000784:	ea50 0201 	orrs.w	r2, r0, r1
 8000788:	bf08      	it	eq
 800078a:	4770      	bxeq	lr
 800078c:	b530      	push	{r4, r5, lr}
 800078e:	f04f 0500 	mov.w	r5, #0
 8000792:	e00a      	b.n	80007aa <__aeabi_l2d+0x16>

08000794 <__aeabi_l2d>:
 8000794:	ea50 0201 	orrs.w	r2, r0, r1
 8000798:	bf08      	it	eq
 800079a:	4770      	bxeq	lr
 800079c:	b530      	push	{r4, r5, lr}
 800079e:	f011 4500 	ands.w	r5, r1, #2147483648	; 0x80000000
 80007a2:	d502      	bpl.n	80007aa <__aeabi_l2d+0x16>
 80007a4:	4240      	negs	r0, r0
 80007a6:	eb61 0141 	sbc.w	r1, r1, r1, lsl #1
 80007aa:	f44f 6480 	mov.w	r4, #1024	; 0x400
 80007ae:	f104 0432 	add.w	r4, r4, #50	; 0x32
 80007b2:	ea5f 5c91 	movs.w	ip, r1, lsr #22
 80007b6:	f43f aed8 	beq.w	800056a <__adddf3+0xe6>
 80007ba:	f04f 0203 	mov.w	r2, #3
 80007be:	ea5f 0cdc 	movs.w	ip, ip, lsr #3
 80007c2:	bf18      	it	ne
 80007c4:	3203      	addne	r2, #3
 80007c6:	ea5f 0cdc 	movs.w	ip, ip, lsr #3
 80007ca:	bf18      	it	ne
 80007cc:	3203      	addne	r2, #3
 80007ce:	eb02 02dc 	add.w	r2, r2, ip, lsr #3
 80007d2:	f1c2 0320 	rsb	r3, r2, #32
 80007d6:	fa00 fc03 	lsl.w	ip, r0, r3
 80007da:	fa20 f002 	lsr.w	r0, r0, r2
 80007de:	fa01 fe03 	lsl.w	lr, r1, r3
 80007e2:	ea40 000e 	orr.w	r0, r0, lr
 80007e6:	fa21 f102 	lsr.w	r1, r1, r2
 80007ea:	4414      	add	r4, r2
 80007ec:	e6bd      	b.n	800056a <__adddf3+0xe6>
 80007ee:	bf00      	nop

080007f0 <__gedf2>:
 80007f0:	f04f 3cff 	mov.w	ip, #4294967295
 80007f4:	e006      	b.n	8000804 <__cmpdf2+0x4>
 80007f6:	bf00      	nop

080007f8 <__ledf2>:
 80007f8:	f04f 0c01 	mov.w	ip, #1
 80007fc:	e002      	b.n	8000804 <__cmpdf2+0x4>
 80007fe:	bf00      	nop

08000800 <__cmpdf2>:
 8000800:	f04f 0c01 	mov.w	ip, #1
 8000804:	f84d cd04 	str.w	ip, [sp, #-4]!
 8000808:	ea4f 0c41 	mov.w	ip, r1, lsl #1
 800080c:	ea7f 5c6c 	mvns.w	ip, ip, asr #21
 8000810:	ea4f 0c43 	mov.w	ip, r3, lsl #1
 8000814:	bf18      	it	ne
 8000816:	ea7f 5c6c 	mvnsne.w	ip, ip, asr #21
 800081a:	d01b      	beq.n	8000854 <__cmpdf2+0x54>
 800081c:	b001      	add	sp, #4
 800081e:	ea50 0c41 	orrs.w	ip, r0, r1, lsl #1
 8000822:	bf0c      	ite	eq
 8000824:	ea52 0c43 	orrseq.w	ip, r2, r3, lsl #1
 8000828:	ea91 0f03 	teqne	r1, r3
 800082c:	bf02      	ittt	eq
 800082e:	ea90 0f02 	teqeq	r0, r2
 8000832:	2000      	moveq	r0, #0
 8000834:	4770      	bxeq	lr
 8000836:	f110 0f00 	cmn.w	r0, #0
 800083a:	ea91 0f03 	teq	r1, r3
 800083e:	bf58      	it	pl
 8000840:	4299      	cmppl	r1, r3
 8000842:	bf08      	it	eq
 8000844:	4290      	cmpeq	r0, r2
 8000846:	bf2c      	ite	cs
 8000848:	17d8      	asrcs	r0, r3, #31
 800084a:	ea6f 70e3 	mvncc.w	r0, r3, asr #31
 800084e:	f040 0001 	orr.w	r0, r0, #1
 8000852:	4770      	bx	lr
 8000854:	ea4f 0c41 	mov.w	ip, r1, lsl #1
 8000858:	ea7f 5c6c 	mvns.w	ip, ip, asr #21
 800085c:	d102      	bne.n	8000864 <__cmpdf2+0x64>
 800085e:	ea50 3c01 	orrs.w	ip, r0, r1, lsl #12
 8000862:	d107      	bne.n	8000874 <__cmpdf2+0x74>
 8000864:	ea4f 0c43 	mov.w	ip, r3, lsl #1
 8000868:	ea7f 5c6c 	mvns.w	ip, ip, asr #21
 800086c:	d1d6      	bne.n	800081c <__cmpdf2+0x1c>
 800086e:	ea52 3c03 	orrs.w	ip, r2, r3, lsl #12
 8000872:	d0d3      	beq.n	800081c <__cmpdf2+0x1c>
 8000874:	f85d 0b04 	ldr.w	r0, [sp], #4
 8000878:	4770      	bx	lr
 800087a:	bf00      	nop

0800087c <__aeabi_cdrcmple>:
 800087c:	4684      	mov	ip, r0
 800087e:	4610      	mov	r0, r2
 8000880:	4662      	mov	r2, ip
 8000882:	468c      	mov	ip, r1
 8000884:	4619      	mov	r1, r3
 8000886:	4663      	mov	r3, ip
 8000888:	e000      	b.n	800088c <__aeabi_cdcmpeq>
 800088a:	bf00      	nop

0800088c <__aeabi_cdcmpeq>:
 800088c:	b501      	push	{r0, lr}
 800088e:	f7ff ffb7 	bl	8000800 <__cmpdf2>
 8000892:	2800      	cmp	r0, #0
 8000894:	bf48      	it	mi
 8000896:	f110 0f00 	cmnmi.w	r0, #0
 800089a:	bd01      	pop	{r0, pc}

0800089c <__aeabi_dcmpeq>:
 800089c:	f84d ed08 	str.w	lr, [sp, #-8]!
 80008a0:	f7ff fff4 	bl	800088c <__aeabi_cdcmpeq>
 80008a4:	bf0c      	ite	eq
 80008a6:	2001      	moveq	r0, #1
 80008a8:	2000      	movne	r0, #0
 80008aa:	f85d fb08 	ldr.w	pc, [sp], #8
 80008ae:	bf00      	nop

080008b0 <__aeabi_dcmplt>:
 80008b0:	f84d ed08 	str.w	lr, [sp, #-8]!
 80008b4:	f7ff ffea 	bl	800088c <__aeabi_cdcmpeq>
 80008b8:	bf34      	ite	cc
 80008ba:	2001      	movcc	r0, #1
 80008bc:	2000      	movcs	r0, #0
 80008be:	f85d fb08 	ldr.w	pc, [sp], #8
 80008c2:	bf00      	nop

080008c4 <__aeabi_dcmple>:
 80008c4:	f84d ed08 	str.w	lr, [sp, #-8]!
 80008c8:	f7ff ffe0 	bl	800088c <__aeabi_cdcmpeq>
 80008cc:	bf94      	ite	ls
 80008ce:	2001      	movls	r0, #1
 80008d0:	2000      	movhi	r0, #0
 80008d2:	f85d fb08 	ldr.w	pc, [sp], #8
 80008d6:	bf00      	nop

080008d8 <__aeabi_dcmpge>:
 80008d8:	f84d ed08 	str.w	lr, [sp, #-8]!
 80008dc:	f7ff ffce 	bl	800087c <__aeabi_cdrcmple>
 80008e0:	bf94      	ite	ls
 80008e2:	2001      	movls	r0, #1
 80008e4:	2000      	movhi	r0, #0
 80008e6:	f85d fb08 	ldr.w	pc, [sp], #8
 80008ea:	bf00      	nop

080008ec <__aeabi_dcmpgt>:
 80008ec:	f84d ed08 	str.w	lr, [sp, #-8]!
 80008f0:	f7ff ffc4 	bl	800087c <__aeabi_cdrcmple>
 80008f4:	bf34      	ite	cc
 80008f6:	2001      	movcc	r0, #1
 80008f8:	2000      	movcs	r0, #0
 80008fa:	f85d fb08 	ldr.w	pc, [sp], #8
 80008fe:	bf00      	nop

08000900 <__aeabi_d2uiz>:
 8000900:	004a      	lsls	r2, r1, #1
 8000902:	d211      	bcs.n	8000928 <__aeabi_d2uiz+0x28>
 8000904:	f512 1200 	adds.w	r2, r2, #2097152	; 0x200000
 8000908:	d211      	bcs.n	800092e <__aeabi_d2uiz+0x2e>
 800090a:	d50d      	bpl.n	8000928 <__aeabi_d2uiz+0x28>
 800090c:	f46f 7378 	mvn.w	r3, #992	; 0x3e0
 8000910:	ebb3 5262 	subs.w	r2, r3, r2, asr #21
 8000914:	d40e      	bmi.n	8000934 <__aeabi_d2uiz+0x34>
 8000916:	ea4f 23c1 	mov.w	r3, r1, lsl #11
 800091a:	f043 4300 	orr.w	r3, r3, #2147483648	; 0x80000000
 800091e:	ea43 5350 	orr.w	r3, r3, r0, lsr #21
 8000922:	fa23 f002 	lsr.w	r0, r3, r2
 8000926:	4770      	bx	lr
 8000928:	f04f 0000 	mov.w	r0, #0
 800092c:	4770      	bx	lr
 800092e:	ea50 3001 	orrs.w	r0, r0, r1, lsl #12
 8000932:	d102      	bne.n	800093a <__aeabi_d2uiz+0x3a>
 8000934:	f04f 30ff 	mov.w	r0, #4294967295
 8000938:	4770      	bx	lr
 800093a:	f04f 0000 	mov.w	r0, #0
 800093e:	4770      	bx	lr

08000940 <_ZN4BallC1Ev>:
#include <Ball.h>
#include "lcd.h"
Ball::Ball() {
 8000940:	b580      	push	{r7, lr}
 8000942:	b082      	sub	sp, #8
 8000944:	af00      	add	r7, sp, #0
 8000946:	6078      	str	r0, [r7, #4]
 8000948:	4a05      	ldr	r2, [pc, #20]	; (8000960 <_ZN4BallC1Ev+0x20>)
 800094a:	687b      	ldr	r3, [r7, #4]
 800094c:	601a      	str	r2, [r3, #0]
	reset();
 800094e:	6878      	ldr	r0, [r7, #4]
 8000950:	f000 f808 	bl	8000964 <_ZN4Ball5resetEv>
}
 8000954:	687b      	ldr	r3, [r7, #4]
 8000956:	4618      	mov	r0, r3
 8000958:	3708      	adds	r7, #8
 800095a:	46bd      	mov	sp, r7
 800095c:	bd80      	pop	{r7, pc}
 800095e:	bf00      	nop
 8000960:	08007d3c 	.word	0x08007d3c

08000964 <_ZN4Ball5resetEv>:
void Ball::reset() {
 8000964:	b480      	push	{r7}
 8000966:	b083      	sub	sp, #12
 8000968:	af00      	add	r7, sp, #0
 800096a:	6078      	str	r0, [r7, #4]
	x = (LCD_DispWindow_COLUMN / 2)-ballWidith;
 800096c:	687b      	ldr	r3, [r7, #4]
 800096e:	2273      	movs	r2, #115	; 0x73
 8000970:	605a      	str	r2, [r3, #4]
	y = (LCD_DispWindow_PAGE / 2)-ballWidith;
 8000972:	687b      	ldr	r3, [r7, #4]
 8000974:	229b      	movs	r2, #155	; 0x9b
 8000976:	609a      	str	r2, [r3, #8]
	dx = 0;
 8000978:	687b      	ldr	r3, [r7, #4]
 800097a:	2200      	movs	r2, #0
 800097c:	60da      	str	r2, [r3, #12]
	dy = 1;
 800097e:	687b      	ldr	r3, [r7, #4]
 8000980:	2201      	movs	r2, #1
 8000982:	611a      	str	r2, [r3, #16]
}
 8000984:	bf00      	nop
 8000986:	370c      	adds	r7, #12
 8000988:	46bd      	mov	sp, r7
 800098a:	bc80      	pop	{r7}
 800098c:	4770      	bx	lr
	...

08000990 <_ZN4BallD1Ev>:
Ball::~Ball() {}
 8000990:	b480      	push	{r7}
 8000992:	b083      	sub	sp, #12
 8000994:	af00      	add	r7, sp, #0
 8000996:	6078      	str	r0, [r7, #4]
 8000998:	4a04      	ldr	r2, [pc, #16]	; (80009ac <_ZN4BallD1Ev+0x1c>)
 800099a:	687b      	ldr	r3, [r7, #4]
 800099c:	601a      	str	r2, [r3, #0]
 800099e:	687b      	ldr	r3, [r7, #4]
 80009a0:	4618      	mov	r0, r3
 80009a2:	370c      	adds	r7, #12
 80009a4:	46bd      	mov	sp, r7
 80009a6:	bc80      	pop	{r7}
 80009a8:	4770      	bx	lr
 80009aa:	bf00      	nop
 80009ac:	08007d3c 	.word	0x08007d3c

080009b0 <_ZN4BallD0Ev>:
 80009b0:	b580      	push	{r7, lr}
 80009b2:	b082      	sub	sp, #8
 80009b4:	af00      	add	r7, sp, #0
 80009b6:	6078      	str	r0, [r7, #4]
 80009b8:	6878      	ldr	r0, [r7, #4]
 80009ba:	f7ff ffe9 	bl	8000990 <_ZN4BallD1Ev>
 80009be:	2114      	movs	r1, #20
 80009c0:	6878      	ldr	r0, [r7, #4]
 80009c2:	f006 fc97 	bl	80072f4 <_ZdlPvj>
 80009c6:	687b      	ldr	r3, [r7, #4]
 80009c8:	4618      	mov	r0, r3
 80009ca:	3708      	adds	r7, #8
 80009cc:	46bd      	mov	sp, r7
 80009ce:	bd80      	pop	{r7, pc}

080009d0 <_ZN4GameC1Ev>:
#include "main.h"
#include <stdlib.h>
#include <stdio.h>

static void MX_TIM4_Init(int pulse);
Game::Game() {
 80009d0:	b590      	push	{r4, r7, lr}
 80009d2:	b083      	sub	sp, #12
 80009d4:	af00      	add	r7, sp, #0
 80009d6:	6078      	str	r0, [r7, #4]
 80009d8:	4a10      	ldr	r2, [pc, #64]	; (8000a1c <_ZN4GameC1Ev+0x4c>)
 80009da:	687b      	ldr	r3, [r7, #4]
 80009dc:	601a      	str	r2, [r3, #0]
 80009de:	687b      	ldr	r3, [r7, #4]
 80009e0:	f103 0408 	add.w	r4, r3, #8
 80009e4:	2100      	movs	r1, #0
 80009e6:	4620      	mov	r0, r4
 80009e8:	f001 fa0a 	bl	8001e00 <_ZN6PlayerC1Ei>
 80009ec:	f104 0320 	add.w	r3, r4, #32
 80009f0:	2101      	movs	r1, #1
 80009f2:	4618      	mov	r0, r3
 80009f4:	f001 fa04 	bl	8001e00 <_ZN6PlayerC1Ei>
 80009f8:	687b      	ldr	r3, [r7, #4]
 80009fa:	3348      	adds	r3, #72	; 0x48
 80009fc:	4618      	mov	r0, r3
 80009fe:	f000 fead 	bl	800175c <_ZN4MenuC1Ev>
 8000a02:	687b      	ldr	r3, [r7, #4]
 8000a04:	3360      	adds	r3, #96	; 0x60
 8000a06:	4618      	mov	r0, r3
 8000a08:	f7ff ff9a 	bl	8000940 <_ZN4BallC1Ev>
	start = false;
 8000a0c:	687b      	ldr	r3, [r7, #4]
 8000a0e:	2200      	movs	r2, #0
 8000a10:	711a      	strb	r2, [r3, #4]
}
 8000a12:	687b      	ldr	r3, [r7, #4]
 8000a14:	4618      	mov	r0, r3
 8000a16:	370c      	adds	r7, #12
 8000a18:	46bd      	mov	sp, r7
 8000a1a:	bd90      	pop	{r4, r7, pc}
 8000a1c:	08007d4c 	.word	0x08007d4c

08000a20 <_ZN4Game8setStartEb>:
void Game::setStart(bool start) {
 8000a20:	b480      	push	{r7}
 8000a22:	b083      	sub	sp, #12
 8000a24:	af00      	add	r7, sp, #0
 8000a26:	6078      	str	r0, [r7, #4]
 8000a28:	460b      	mov	r3, r1
 8000a2a:	70fb      	strb	r3, [r7, #3]
	this->start = start;
 8000a2c:	687b      	ldr	r3, [r7, #4]
 8000a2e:	78fa      	ldrb	r2, [r7, #3]
 8000a30:	711a      	strb	r2, [r3, #4]
}
 8000a32:	bf00      	nop
 8000a34:	370c      	adds	r7, #12
 8000a36:	46bd      	mov	sp, r7
 8000a38:	bc80      	pop	{r7}
 8000a3a:	4770      	bx	lr

08000a3c <_ZN4Game8getStartEv>:
bool Game::getStart() {
 8000a3c:	b480      	push	{r7}
 8000a3e:	b083      	sub	sp, #12
 8000a40:	af00      	add	r7, sp, #0
 8000a42:	6078      	str	r0, [r7, #4]
	return start;
 8000a44:	687b      	ldr	r3, [r7, #4]
 8000a46:	791b      	ldrb	r3, [r3, #4]
}
 8000a48:	4618      	mov	r0, r3
 8000a4a:	370c      	adds	r7, #12
 8000a4c:	46bd      	mov	sp, r7
 8000a4e:	bc80      	pop	{r7}
 8000a50:	4770      	bx	lr

08000a52 <_ZN4Game4quitEv>:
void Game::quit() {
 8000a52:	b580      	push	{r7, lr}
 8000a54:	b082      	sub	sp, #8
 8000a56:	af00      	add	r7, sp, #0
 8000a58:	6078      	str	r0, [r7, #4]
	start = false;
 8000a5a:	687b      	ldr	r3, [r7, #4]
 8000a5c:	2200      	movs	r2, #0
 8000a5e:	711a      	strb	r2, [r3, #4]
	player[Player::player1].score.setPoint(0);
 8000a60:	687b      	ldr	r3, [r7, #4]
 8000a62:	331c      	adds	r3, #28
 8000a64:	2100      	movs	r1, #0
 8000a66:	4618      	mov	r0, r3
 8000a68:	f001 fe96 	bl	8002798 <_ZN5Score8setPointEi>
	player[Player::player2].score.setPoint(0);
 8000a6c:	687b      	ldr	r3, [r7, #4]
 8000a6e:	333c      	adds	r3, #60	; 0x3c
 8000a70:	2100      	movs	r1, #0
 8000a72:	4618      	mov	r0, r3
 8000a74:	f001 fe90 	bl	8002798 <_ZN5Score8setPointEi>
	player[Player::player1].score.turnOffDisplay();
 8000a78:	687b      	ldr	r3, [r7, #4]
 8000a7a:	331c      	adds	r3, #28
 8000a7c:	4618      	mov	r0, r3
 8000a7e:	f001 fe9b 	bl	80027b8 <_ZN5Score14turnOffDisplayEv>
	player[Player::player2].score.turnOffDisplay();
 8000a82:	687b      	ldr	r3, [r7, #4]
 8000a84:	333c      	adds	r3, #60	; 0x3c
 8000a86:	4618      	mov	r0, r3
 8000a88:	f001 fe96 	bl	80027b8 <_ZN5Score14turnOffDisplayEv>
	player[Player::player1].resetX();
 8000a8c:	687b      	ldr	r3, [r7, #4]
 8000a8e:	3308      	adds	r3, #8
 8000a90:	4618      	mov	r0, r3
 8000a92:	f001 f9db 	bl	8001e4c <_ZN6Player6resetXEv>
	player[Player::player2].resetX();
 8000a96:	687b      	ldr	r3, [r7, #4]
 8000a98:	3328      	adds	r3, #40	; 0x28
 8000a9a:	4618      	mov	r0, r3
 8000a9c:	f001 f9d6 	bl	8001e4c <_ZN6Player6resetXEv>
	ball.reset();
 8000aa0:	687b      	ldr	r3, [r7, #4]
 8000aa2:	3360      	adds	r3, #96	; 0x60
 8000aa4:	4618      	mov	r0, r3
 8000aa6:	f7ff ff5d 	bl	8000964 <_ZN4Ball5resetEv>
	menu.setCurrentMenu(Menu::homeScreen);
 8000aaa:	687b      	ldr	r3, [r7, #4]
 8000aac:	3348      	adds	r3, #72	; 0x48
 8000aae:	2100      	movs	r1, #0
 8000ab0:	4618      	mov	r0, r3
 8000ab2:	f001 f843 	bl	8001b3c <_ZN4Menu14setCurrentMenuEi>
}
 8000ab6:	bf00      	nop
 8000ab8:	3708      	adds	r7, #8
 8000aba:	46bd      	mov	sp, r7
 8000abc:	bd80      	pop	{r7, pc}

08000abe <_ZN4Game7restartEv>:
void Game::restart() {
 8000abe:	b590      	push	{r4, r7, lr}
 8000ac0:	b083      	sub	sp, #12
 8000ac2:	af00      	add	r7, sp, #0
 8000ac4:	6078      	str	r0, [r7, #4]
	start = false;
 8000ac6:	687b      	ldr	r3, [r7, #4]
 8000ac8:	2200      	movs	r2, #0
 8000aca:	711a      	strb	r2, [r3, #4]
	player[Player::player1].resetX();
 8000acc:	687b      	ldr	r3, [r7, #4]
 8000ace:	3308      	adds	r3, #8
 8000ad0:	4618      	mov	r0, r3
 8000ad2:	f001 f9bb 	bl	8001e4c <_ZN6Player6resetXEv>
	player[Player::player2].resetX();
 8000ad6:	687b      	ldr	r3, [r7, #4]
 8000ad8:	3328      	adds	r3, #40	; 0x28
 8000ada:	4618      	mov	r0, r3
 8000adc:	f001 f9b6 	bl	8001e4c <_ZN6Player6resetXEv>
	ball.reset();
 8000ae0:	687b      	ldr	r3, [r7, #4]
 8000ae2:	3360      	adds	r3, #96	; 0x60
 8000ae4:	4618      	mov	r0, r3
 8000ae6:	f7ff ff3d 	bl	8000964 <_ZN4Ball5resetEv>
	menu.setCurrentMenu(menu.getCurrentMenu());
 8000aea:	687b      	ldr	r3, [r7, #4]
 8000aec:	f103 0448 	add.w	r4, r3, #72	; 0x48
 8000af0:	687b      	ldr	r3, [r7, #4]
 8000af2:	3348      	adds	r3, #72	; 0x48
 8000af4:	4618      	mov	r0, r3
 8000af6:	f000 fe47 	bl	8001788 <_ZN4Menu14getCurrentMenuEv>
 8000afa:	4603      	mov	r3, r0
 8000afc:	4619      	mov	r1, r3
 8000afe:	4620      	mov	r0, r4
 8000b00:	f001 f81c 	bl	8001b3c <_ZN4Menu14setCurrentMenuEi>
}
 8000b04:	bf00      	nop
 8000b06:	370c      	adds	r7, #12
 8000b08:	46bd      	mov	sp, r7
 8000b0a:	bd90      	pop	{r4, r7, pc}

08000b0c <_ZN4Game9knockbackEi>:
TIM_HandleTypeDef htim4;
void Game::knockback(int playerNumber) {
 8000b0c:	b580      	push	{r7, lr}
 8000b0e:	b084      	sub	sp, #16
 8000b10:	af00      	add	r7, sp, #0
 8000b12:	6078      	str	r0, [r7, #4]
 8000b14:	6039      	str	r1, [r7, #0]
	int pulse = minPulse, delay = startingDelay; // TODO change pulse
 8000b16:	f243 23c8 	movw	r3, #13000	; 0x32c8
 8000b1a:	60fb      	str	r3, [r7, #12]
 8000b1c:	23c8      	movs	r3, #200	; 0xc8
 8000b1e:	60bb      	str	r3, [r7, #8]

	if(pulse + pulseRate*ball.dy >= maxPulse){
 8000b20:	687b      	ldr	r3, [r7, #4]
 8000b22:	6f1b      	ldr	r3, [r3, #112]	; 0x70
 8000b24:	f44f 727a 	mov.w	r2, #1000	; 0x3e8
 8000b28:	fb03 f202 	mul.w	r2, r3, r2
 8000b2c:	68fb      	ldr	r3, [r7, #12]
 8000b2e:	4413      	add	r3, r2
 8000b30:	f645 12d7 	movw	r2, #22999	; 0x59d7
 8000b34:	4293      	cmp	r3, r2
 8000b36:	dd04      	ble.n	8000b42 <_ZN4Game9knockbackEi+0x36>
		MX_TIM4_Init(maxPulse);
 8000b38:	f645 10d8 	movw	r0, #23000	; 0x59d8
 8000b3c:	f000 fd6a 	bl	8001614 <_ZL12MX_TIM4_Initi>
 8000b40:	e00a      	b.n	8000b58 <_ZN4Game9knockbackEi+0x4c>
	}else{
		MX_TIM4_Init(pulse + pulseRate*ball.dy);
 8000b42:	687b      	ldr	r3, [r7, #4]
 8000b44:	6f1b      	ldr	r3, [r3, #112]	; 0x70
 8000b46:	f44f 727a 	mov.w	r2, #1000	; 0x3e8
 8000b4a:	fb03 f202 	mul.w	r2, r3, r2
 8000b4e:	68fb      	ldr	r3, [r7, #12]
 8000b50:	4413      	add	r3, r2
 8000b52:	4618      	mov	r0, r3
 8000b54:	f000 fd5e 	bl	8001614 <_ZL12MX_TIM4_Initi>
	}
	if (playerNumber == Player::player1) {
 8000b58:	683b      	ldr	r3, [r7, #0]
 8000b5a:	2b00      	cmp	r3, #0
 8000b5c:	d11d      	bne.n	8000b9a <_ZN4Game9knockbackEi+0x8e>
			HAL_TIM_PWM_Start(&htim4, TIM_CHANNEL_1); //PB6
 8000b5e:	2100      	movs	r1, #0
 8000b60:	481e      	ldr	r0, [pc, #120]	; (8000bdc <_ZN4Game9knockbackEi+0xd0>)
 8000b62:	f005 fcf1 	bl	8006548 <HAL_TIM_PWM_Start>
		if (startingDelay * ball.dy >= maximumDelay) {
 8000b66:	687b      	ldr	r3, [r7, #4]
 8000b68:	6f1b      	ldr	r3, [r3, #112]	; 0x70
 8000b6a:	22c8      	movs	r2, #200	; 0xc8
 8000b6c:	fb02 f303 	mul.w	r3, r2, r3
 8000b70:	f5b3 6ffa 	cmp.w	r3, #2000	; 0x7d0
 8000b74:	db04      	blt.n	8000b80 <_ZN4Game9knockbackEi+0x74>
			HAL_Delay(maximumDelay);
 8000b76:	f44f 60fa 	mov.w	r0, #2000	; 0x7d0
 8000b7a:	f003 fe63 	bl	8004844 <HAL_Delay>
 8000b7e:	e007      	b.n	8000b90 <_ZN4Game9knockbackEi+0x84>
		} else {
			HAL_Delay(delay * ball.dy);
 8000b80:	687b      	ldr	r3, [r7, #4]
 8000b82:	6f1b      	ldr	r3, [r3, #112]	; 0x70
 8000b84:	68ba      	ldr	r2, [r7, #8]
 8000b86:	fb02 f303 	mul.w	r3, r2, r3
 8000b8a:	4618      	mov	r0, r3
 8000b8c:	f003 fe5a 	bl	8004844 <HAL_Delay>
		}
			HAL_TIM_PWM_Stop(&htim4, TIM_CHANNEL_1); // no idea if this will work, might need to do pulse stuff
 8000b90:	2100      	movs	r1, #0
 8000b92:	4812      	ldr	r0, [pc, #72]	; (8000bdc <_ZN4Game9knockbackEi+0xd0>)
 8000b94:	f005 fd92 	bl	80066bc <HAL_TIM_PWM_Stop>
			HAL_Delay(delay * ball.dy);
		}
			HAL_TIM_PWM_Stop(&htim4, TIM_CHANNEL_2);
	}

}
 8000b98:	e01c      	b.n	8000bd4 <_ZN4Game9knockbackEi+0xc8>
			HAL_TIM_PWM_Start(&htim4, TIM_CHANNEL_2); //PB7
 8000b9a:	2104      	movs	r1, #4
 8000b9c:	480f      	ldr	r0, [pc, #60]	; (8000bdc <_ZN4Game9knockbackEi+0xd0>)
 8000b9e:	f005 fcd3 	bl	8006548 <HAL_TIM_PWM_Start>
		if (startingDelay * ball.dy >= maximumDelay) {
 8000ba2:	687b      	ldr	r3, [r7, #4]
 8000ba4:	6f1b      	ldr	r3, [r3, #112]	; 0x70
 8000ba6:	22c8      	movs	r2, #200	; 0xc8
 8000ba8:	fb02 f303 	mul.w	r3, r2, r3
 8000bac:	f5b3 6ffa 	cmp.w	r3, #2000	; 0x7d0
 8000bb0:	db04      	blt.n	8000bbc <_ZN4Game9knockbackEi+0xb0>
			HAL_Delay(maximumDelay);
 8000bb2:	f44f 60fa 	mov.w	r0, #2000	; 0x7d0
 8000bb6:	f003 fe45 	bl	8004844 <HAL_Delay>
 8000bba:	e007      	b.n	8000bcc <_ZN4Game9knockbackEi+0xc0>
			HAL_Delay(delay * ball.dy);
 8000bbc:	687b      	ldr	r3, [r7, #4]
 8000bbe:	6f1b      	ldr	r3, [r3, #112]	; 0x70
 8000bc0:	68ba      	ldr	r2, [r7, #8]
 8000bc2:	fb02 f303 	mul.w	r3, r2, r3
 8000bc6:	4618      	mov	r0, r3
 8000bc8:	f003 fe3c 	bl	8004844 <HAL_Delay>
			HAL_TIM_PWM_Stop(&htim4, TIM_CHANNEL_2);
 8000bcc:	2104      	movs	r1, #4
 8000bce:	4803      	ldr	r0, [pc, #12]	; (8000bdc <_ZN4Game9knockbackEi+0xd0>)
 8000bd0:	f005 fd74 	bl	80066bc <HAL_TIM_PWM_Stop>
}
 8000bd4:	bf00      	nop
 8000bd6:	3710      	adds	r7, #16
 8000bd8:	46bd      	mov	sp, r7
 8000bda:	bd80      	pop	{r7, pc}
 8000bdc:	200000c0 	.word	0x200000c0

08000be0 <_ZN4Game14checkCollisionEi>:

bool Game::checkCollision(int playerNumber) {
 8000be0:	b590      	push	{r4, r7, lr}
 8000be2:	b083      	sub	sp, #12
 8000be4:	af00      	add	r7, sp, #0
 8000be6:	6078      	str	r0, [r7, #4]
 8000be8:	6039      	str	r1, [r7, #0]
	if (playerNumber == Player::player1) {
 8000bea:	683b      	ldr	r3, [r7, #0]
 8000bec:	2b00      	cmp	r3, #0
 8000bee:	d106      	bne.n	8000bfe <_ZN4Game14checkCollisionEi+0x1e>
		if (ball.y + ballWidith < player1YAxis) {
 8000bf0:	687b      	ldr	r3, [r7, #4]
 8000bf2:	6e9b      	ldr	r3, [r3, #104]	; 0x68
 8000bf4:	f5b3 7f93 	cmp.w	r3, #294	; 0x126
 8000bf8:	dc01      	bgt.n	8000bfe <_ZN4Game14checkCollisionEi+0x1e>
			return false;
 8000bfa:	2300      	movs	r3, #0
 8000bfc:	e02b      	b.n	8000c56 <_ZN4Game14checkCollisionEi+0x76>
		}
	}
	if (playerNumber == Player::player2) {
 8000bfe:	683b      	ldr	r3, [r7, #0]
 8000c00:	2b01      	cmp	r3, #1
 8000c02:	d105      	bne.n	8000c10 <_ZN4Game14checkCollisionEi+0x30>
		if (ball.y > player2YAxis) {
 8000c04:	687b      	ldr	r3, [r7, #4]
 8000c06:	6e9b      	ldr	r3, [r3, #104]	; 0x68
 8000c08:	2b14      	cmp	r3, #20
 8000c0a:	dd01      	ble.n	8000c10 <_ZN4Game14checkCollisionEi+0x30>
			return false;
 8000c0c:	2300      	movs	r3, #0
 8000c0e:	e022      	b.n	8000c56 <_ZN4Game14checkCollisionEi+0x76>
		}
	}
	if ((ball.x >= player[playerNumber].getX())
 8000c10:	687b      	ldr	r3, [r7, #4]
 8000c12:	6e5c      	ldr	r4, [r3, #100]	; 0x64
 8000c14:	683b      	ldr	r3, [r7, #0]
 8000c16:	015b      	lsls	r3, r3, #5
 8000c18:	3308      	adds	r3, #8
 8000c1a:	687a      	ldr	r2, [r7, #4]
 8000c1c:	4413      	add	r3, r2
 8000c1e:	4618      	mov	r0, r3
 8000c20:	f001 f92d 	bl	8001e7e <_ZN6Player4getXEv>
 8000c24:	4603      	mov	r3, r0
			&& (ball.x <= player[playerNumber].getX() + playerWidith)) {
 8000c26:	429c      	cmp	r4, r3
 8000c28:	db0f      	blt.n	8000c4a <_ZN4Game14checkCollisionEi+0x6a>
 8000c2a:	687b      	ldr	r3, [r7, #4]
 8000c2c:	6e5c      	ldr	r4, [r3, #100]	; 0x64
 8000c2e:	683b      	ldr	r3, [r7, #0]
 8000c30:	015b      	lsls	r3, r3, #5
 8000c32:	3308      	adds	r3, #8
 8000c34:	687a      	ldr	r2, [r7, #4]
 8000c36:	4413      	add	r3, r2
 8000c38:	4618      	mov	r0, r3
 8000c3a:	f001 f920 	bl	8001e7e <_ZN6Player4getXEv>
 8000c3e:	4603      	mov	r3, r0
 8000c40:	332d      	adds	r3, #45	; 0x2d
 8000c42:	429c      	cmp	r4, r3
 8000c44:	dc01      	bgt.n	8000c4a <_ZN4Game14checkCollisionEi+0x6a>
 8000c46:	2301      	movs	r3, #1
 8000c48:	e000      	b.n	8000c4c <_ZN4Game14checkCollisionEi+0x6c>
 8000c4a:	2300      	movs	r3, #0
	if ((ball.x >= player[playerNumber].getX())
 8000c4c:	2b00      	cmp	r3, #0
 8000c4e:	d001      	beq.n	8000c54 <_ZN4Game14checkCollisionEi+0x74>
		return true;
 8000c50:	2301      	movs	r3, #1
 8000c52:	e000      	b.n	8000c56 <_ZN4Game14checkCollisionEi+0x76>
	}
	return false;
 8000c54:	2300      	movs	r3, #0
}
 8000c56:	4618      	mov	r0, r3
 8000c58:	370c      	adds	r7, #12
 8000c5a:	46bd      	mov	sp, r7
 8000c5c:	bd90      	pop	{r4, r7, pc}
	...

08000c60 <_ZN4Game8moveBallEv>:
bool Game::moveBall() {
 8000c60:	e92d 41f0 	stmdb	sp!, {r4, r5, r6, r7, r8, lr}
 8000c64:	b08e      	sub	sp, #56	; 0x38
 8000c66:	af04      	add	r7, sp, #16
 8000c68:	6078      	str	r0, [r7, #4]
	// update ball location according to vector
	int tempY, tempX;
	tempX = ball.x;
 8000c6a:	687b      	ldr	r3, [r7, #4]
 8000c6c:	6e5b      	ldr	r3, [r3, #100]	; 0x64
 8000c6e:	61bb      	str	r3, [r7, #24]
	tempY = ball.y;
 8000c70:	687b      	ldr	r3, [r7, #4]
 8000c72:	6e9b      	ldr	r3, [r3, #104]	; 0x68
 8000c74:	617b      	str	r3, [r7, #20]
	ball.x += ball.dx;
 8000c76:	687b      	ldr	r3, [r7, #4]
 8000c78:	6e5a      	ldr	r2, [r3, #100]	; 0x64
 8000c7a:	687b      	ldr	r3, [r7, #4]
 8000c7c:	6edb      	ldr	r3, [r3, #108]	; 0x6c
 8000c7e:	441a      	add	r2, r3
 8000c80:	687b      	ldr	r3, [r7, #4]
 8000c82:	665a      	str	r2, [r3, #100]	; 0x64
	ball.y += ball.dy;
 8000c84:	687b      	ldr	r3, [r7, #4]
 8000c86:	6e9a      	ldr	r2, [r3, #104]	; 0x68
 8000c88:	687b      	ldr	r3, [r7, #4]
 8000c8a:	6f1b      	ldr	r3, [r3, #112]	; 0x70
 8000c8c:	441a      	add	r2, r3
 8000c8e:	687b      	ldr	r3, [r7, #4]
 8000c90:	669a      	str	r2, [r3, #104]	; 0x68
	// if vsWall then no need to check for player 2 collision
	if (menu.getCurrentMenu() == Menu::vsWallGame && ball.y <= wallWidith) {
 8000c92:	687b      	ldr	r3, [r7, #4]
 8000c94:	3348      	adds	r3, #72	; 0x48
 8000c96:	4618      	mov	r0, r3
 8000c98:	f000 fd76 	bl	8001788 <_ZN4Menu14getCurrentMenuEv>
 8000c9c:	4603      	mov	r3, r0
 8000c9e:	2b04      	cmp	r3, #4
 8000ca0:	d105      	bne.n	8000cae <_ZN4Game8moveBallEv+0x4e>
 8000ca2:	687b      	ldr	r3, [r7, #4]
 8000ca4:	6e9b      	ldr	r3, [r3, #104]	; 0x68
 8000ca6:	2b03      	cmp	r3, #3
 8000ca8:	dc01      	bgt.n	8000cae <_ZN4Game8moveBallEv+0x4e>
 8000caa:	2301      	movs	r3, #1
 8000cac:	e000      	b.n	8000cb0 <_ZN4Game8moveBallEv+0x50>
 8000cae:	2300      	movs	r3, #0
 8000cb0:	2b00      	cmp	r3, #0
 8000cb2:	d009      	beq.n	8000cc8 <_ZN4Game8moveBallEv+0x68>
		ball.dy = -ball.dy;
 8000cb4:	687b      	ldr	r3, [r7, #4]
 8000cb6:	6f1b      	ldr	r3, [r3, #112]	; 0x70
 8000cb8:	425a      	negs	r2, r3
 8000cba:	687b      	ldr	r3, [r7, #4]
 8000cbc:	671a      	str	r2, [r3, #112]	; 0x70
		ball.y = wallWidith + 1;
 8000cbe:	687b      	ldr	r3, [r7, #4]
 8000cc0:	2204      	movs	r2, #4
 8000cc2:	669a      	str	r2, [r3, #104]	; 0x68
		return true;
 8000cc4:	2301      	movs	r3, #1
 8000cc6:	e151      	b.n	8000f6c <_ZN4Game8moveBallEv+0x30c>
	}

	// check if ball hit wall
	if (ball.x <= wallWidith
 8000cc8:	687b      	ldr	r3, [r7, #4]
 8000cca:	6e5b      	ldr	r3, [r3, #100]	; 0x64
 8000ccc:	2b03      	cmp	r3, #3
 8000cce:	dd03      	ble.n	8000cd8 <_ZN4Game8moveBallEv+0x78>
			|| ball.x + ballWidith >= LCD_DispWindow_COLUMN - wallWidith) {
 8000cd0:	687b      	ldr	r3, [r7, #4]
 8000cd2:	6e5b      	ldr	r3, [r3, #100]	; 0x64
 8000cd4:	2be7      	cmp	r3, #231	; 0xe7
 8000cd6:	dd12      	ble.n	8000cfe <_ZN4Game8moveBallEv+0x9e>
		ball.dx = -ball.dx;
 8000cd8:	687b      	ldr	r3, [r7, #4]
 8000cda:	6edb      	ldr	r3, [r3, #108]	; 0x6c
 8000cdc:	425a      	negs	r2, r3
 8000cde:	687b      	ldr	r3, [r7, #4]
 8000ce0:	66da      	str	r2, [r3, #108]	; 0x6c

		// move back within broad
		if (ball.x <= wallWidith) {
 8000ce2:	687b      	ldr	r3, [r7, #4]
 8000ce4:	6e5b      	ldr	r3, [r3, #100]	; 0x64
 8000ce6:	2b03      	cmp	r3, #3
 8000ce8:	dc02      	bgt.n	8000cf0 <_ZN4Game8moveBallEv+0x90>
			ball.x = wallWidith + 1;
 8000cea:	687b      	ldr	r3, [r7, #4]
 8000cec:	2204      	movs	r2, #4
 8000cee:	665a      	str	r2, [r3, #100]	; 0x64
		}
		if (ball.x + ballWidith >= LCD_DispWindow_COLUMN - wallWidith) {
 8000cf0:	687b      	ldr	r3, [r7, #4]
 8000cf2:	6e5b      	ldr	r3, [r3, #100]	; 0x64
 8000cf4:	2be7      	cmp	r3, #231	; 0xe7
 8000cf6:	dd02      	ble.n	8000cfe <_ZN4Game8moveBallEv+0x9e>
			ball.x = LCD_DispWindow_COLUMN - ballWidith - wallWidith - 1;
 8000cf8:	687b      	ldr	r3, [r7, #4]
 8000cfa:	22e7      	movs	r2, #231	; 0xe7
 8000cfc:	665a      	str	r2, [r3, #100]	; 0x64
		}
	}

	// check for collision on both players
	for (int i = 0; i < 2; i++) {
 8000cfe:	2300      	movs	r3, #0
 8000d00:	627b      	str	r3, [r7, #36]	; 0x24
 8000d02:	6a7b      	ldr	r3, [r7, #36]	; 0x24
 8000d04:	2b01      	cmp	r3, #1
 8000d06:	f300 80fd 	bgt.w	8000f04 <_ZN4Game8moveBallEv+0x2a4>
		if (checkCollision(i)) {
 8000d0a:	6a79      	ldr	r1, [r7, #36]	; 0x24
 8000d0c:	6878      	ldr	r0, [r7, #4]
 8000d0e:	f7ff ff67 	bl	8000be0 <_ZN4Game14checkCollisionEi>
 8000d12:	4603      	mov	r3, r0
 8000d14:	2b00      	cmp	r3, #0
 8000d16:	f000 80f1 	beq.w	8000efc <_ZN4Game8moveBallEv+0x29c>
			// increase ball speed and move back within broad
			if (ball.dy < 0) { // for player 2
 8000d1a:	687b      	ldr	r3, [r7, #4]
 8000d1c:	6f1b      	ldr	r3, [r3, #112]	; 0x70
 8000d1e:	2b00      	cmp	r3, #0
 8000d20:	da0e      	bge.n	8000d40 <_ZN4Game8moveBallEv+0xe0>
				ball.dy -= menu.settings.getBallSpeedIncreaseRate(); // increase ball speed
 8000d22:	687b      	ldr	r3, [r7, #4]
 8000d24:	3350      	adds	r3, #80	; 0x50
 8000d26:	4618      	mov	r0, r3
 8000d28:	f001 fe15 	bl	8002956 <_ZN8Settings24getBallSpeedIncreaseRateEv>
 8000d2c:	4602      	mov	r2, r0
 8000d2e:	687b      	ldr	r3, [r7, #4]
 8000d30:	6f1b      	ldr	r3, [r3, #112]	; 0x70
 8000d32:	1a9a      	subs	r2, r3, r2
 8000d34:	687b      	ldr	r3, [r7, #4]
 8000d36:	671a      	str	r2, [r3, #112]	; 0x70
//				tempY = ball.y;
				ball.y = player2YAxis + 1; // set ball to right place
 8000d38:	687b      	ldr	r3, [r7, #4]
 8000d3a:	2215      	movs	r2, #21
 8000d3c:	669a      	str	r2, [r3, #104]	; 0x68
 8000d3e:	e00e      	b.n	8000d5e <_ZN4Game8moveBallEv+0xfe>
			} else { // for player 1
				ball.dy += menu.settings.getBallSpeedIncreaseRate();
 8000d40:	687b      	ldr	r3, [r7, #4]
 8000d42:	3350      	adds	r3, #80	; 0x50
 8000d44:	4618      	mov	r0, r3
 8000d46:	f001 fe06 	bl	8002956 <_ZN8Settings24getBallSpeedIncreaseRateEv>
 8000d4a:	4602      	mov	r2, r0
 8000d4c:	687b      	ldr	r3, [r7, #4]
 8000d4e:	6f1b      	ldr	r3, [r3, #112]	; 0x70
 8000d50:	441a      	add	r2, r3
 8000d52:	687b      	ldr	r3, [r7, #4]
 8000d54:	671a      	str	r2, [r3, #112]	; 0x70
//				tempY = ball.y;
				ball.y = player1YAxis - ballWidith - 1; // set ball to right place
 8000d56:	687b      	ldr	r3, [r7, #4]
 8000d58:	f44f 7293 	mov.w	r2, #294	; 0x126
 8000d5c:	669a      	str	r2, [r3, #104]	; 0x68
			}
			LCD_TeleportBall(tempX,tempY,ball.x,ball.y,player[Player::player1].getX(),player[Player::player2].getX(),ball.dy); // move ball to right place
 8000d5e:	69bb      	ldr	r3, [r7, #24]
 8000d60:	b29c      	uxth	r4, r3
 8000d62:	697b      	ldr	r3, [r7, #20]
 8000d64:	b29d      	uxth	r5, r3
 8000d66:	687b      	ldr	r3, [r7, #4]
 8000d68:	6e5b      	ldr	r3, [r3, #100]	; 0x64
 8000d6a:	b29e      	uxth	r6, r3
 8000d6c:	687b      	ldr	r3, [r7, #4]
 8000d6e:	6e9b      	ldr	r3, [r3, #104]	; 0x68
 8000d70:	fa1f f883 	uxth.w	r8, r3
 8000d74:	687b      	ldr	r3, [r7, #4]
 8000d76:	3308      	adds	r3, #8
 8000d78:	4618      	mov	r0, r3
 8000d7a:	f001 f880 	bl	8001e7e <_ZN6Player4getXEv>
 8000d7e:	6038      	str	r0, [r7, #0]
 8000d80:	687b      	ldr	r3, [r7, #4]
 8000d82:	3328      	adds	r3, #40	; 0x28
 8000d84:	4618      	mov	r0, r3
 8000d86:	f001 f87a 	bl	8001e7e <_ZN6Player4getXEv>
 8000d8a:	4602      	mov	r2, r0
 8000d8c:	687b      	ldr	r3, [r7, #4]
 8000d8e:	6f1b      	ldr	r3, [r3, #112]	; 0x70
 8000d90:	9302      	str	r3, [sp, #8]
 8000d92:	9201      	str	r2, [sp, #4]
 8000d94:	683b      	ldr	r3, [r7, #0]
 8000d96:	9300      	str	r3, [sp, #0]
 8000d98:	4643      	mov	r3, r8
 8000d9a:	4632      	mov	r2, r6
 8000d9c:	4629      	mov	r1, r5
 8000d9e:	4620      	mov	r0, r4
 8000da0:	f002 f9ee 	bl	8003180 <_Z16LCD_TeleportBallttttiii>
			if ((menu.getCurrentMenu() != Menu::vsBotGame
 8000da4:	687b      	ldr	r3, [r7, #4]
 8000da6:	3348      	adds	r3, #72	; 0x48
 8000da8:	4618      	mov	r0, r3
 8000daa:	f000 fced 	bl	8001788 <_ZN4Menu14getCurrentMenuEv>
 8000dae:	4603      	mov	r3, r0
					&& i == Player::player2) || i == Player::player1) { // check if it is bot, if bot then skip this
 8000db0:	2b03      	cmp	r3, #3
 8000db2:	d002      	beq.n	8000dba <_ZN4Game8moveBallEv+0x15a>
 8000db4:	6a7b      	ldr	r3, [r7, #36]	; 0x24
 8000db6:	2b01      	cmp	r3, #1
 8000db8:	d002      	beq.n	8000dc0 <_ZN4Game8moveBallEv+0x160>
 8000dba:	6a7b      	ldr	r3, [r7, #36]	; 0x24
 8000dbc:	2b00      	cmp	r3, #0
 8000dbe:	d101      	bne.n	8000dc4 <_ZN4Game8moveBallEv+0x164>
 8000dc0:	2301      	movs	r3, #1
 8000dc2:	e000      	b.n	8000dc6 <_ZN4Game8moveBallEv+0x166>
 8000dc4:	2300      	movs	r3, #0
			if ((menu.getCurrentMenu() != Menu::vsBotGame
 8000dc6:	2b00      	cmp	r3, #0
 8000dc8:	d041      	beq.n	8000e4e <_ZN4Game8moveBallEv+0x1ee>
				if (menu.settings.getKnockback()) { // check if knockback is on
 8000dca:	687b      	ldr	r3, [r7, #4]
 8000dcc:	3350      	adds	r3, #80	; 0x50
 8000dce:	4618      	mov	r0, r3
 8000dd0:	f001 fddc 	bl	800298c <_ZN8Settings12getKnockbackEv>
 8000dd4:	4603      	mov	r3, r0
 8000dd6:	2b00      	cmp	r3, #0
 8000dd8:	d039      	beq.n	8000e4e <_ZN4Game8moveBallEv+0x1ee>
					knockback(i); // knockback the player
 8000dda:	6a79      	ldr	r1, [r7, #36]	; 0x24
 8000ddc:	6878      	ldr	r0, [r7, #4]
 8000dde:	f7ff fe95 	bl	8000b0c <_ZN4Game9knockbackEi>
					displayPlayerMovement(i); // update player position
 8000de2:	6a79      	ldr	r1, [r7, #36]	; 0x24
 8000de4:	6878      	ldr	r0, [r7, #4]
 8000de6:	f000 fa01 	bl	80011ec <_ZN4Game21displayPlayerMovementEi>
					if (!player[i].playerTouch()
 8000dea:	6a7b      	ldr	r3, [r7, #36]	; 0x24
 8000dec:	015b      	lsls	r3, r3, #5
 8000dee:	3308      	adds	r3, #8
 8000df0:	687a      	ldr	r2, [r7, #4]
 8000df2:	4413      	add	r3, r2
 8000df4:	4618      	mov	r0, r3
 8000df6:	f001 f865 	bl	8001ec4 <_ZN6Player11playerTouchEv>
 8000dfa:	4603      	mov	r3, r0
 8000dfc:	f083 0301 	eor.w	r3, r3, #1
 8000e00:	b2db      	uxtb	r3, r3
							&& ((ball.x >= player[i].getX())
 8000e02:	2b00      	cmp	r3, #0
 8000e04:	d01c      	beq.n	8000e40 <_ZN4Game8moveBallEv+0x1e0>
 8000e06:	687b      	ldr	r3, [r7, #4]
 8000e08:	6e5c      	ldr	r4, [r3, #100]	; 0x64
 8000e0a:	6a7b      	ldr	r3, [r7, #36]	; 0x24
 8000e0c:	015b      	lsls	r3, r3, #5
 8000e0e:	3308      	adds	r3, #8
 8000e10:	687a      	ldr	r2, [r7, #4]
 8000e12:	4413      	add	r3, r2
 8000e14:	4618      	mov	r0, r3
 8000e16:	f001 f832 	bl	8001e7e <_ZN6Player4getXEv>
 8000e1a:	4603      	mov	r3, r0
 8000e1c:	429c      	cmp	r4, r3
 8000e1e:	db0f      	blt.n	8000e40 <_ZN4Game8moveBallEv+0x1e0>
									&& (ball.x
 8000e20:	687b      	ldr	r3, [r7, #4]
 8000e22:	6e5c      	ldr	r4, [r3, #100]	; 0x64
											<= player[i].getX() + playerWidith))) { // check if player is still on and if within player range
 8000e24:	6a7b      	ldr	r3, [r7, #36]	; 0x24
 8000e26:	015b      	lsls	r3, r3, #5
 8000e28:	3308      	adds	r3, #8
 8000e2a:	687a      	ldr	r2, [r7, #4]
 8000e2c:	4413      	add	r3, r2
 8000e2e:	4618      	mov	r0, r3
 8000e30:	f001 f825 	bl	8001e7e <_ZN6Player4getXEv>
 8000e34:	4603      	mov	r3, r0
 8000e36:	332d      	adds	r3, #45	; 0x2d
									&& (ball.x
 8000e38:	429c      	cmp	r4, r3
 8000e3a:	dc01      	bgt.n	8000e40 <_ZN4Game8moveBallEv+0x1e0>
							&& ((ball.x >= player[i].getX())
 8000e3c:	2301      	movs	r3, #1
 8000e3e:	e000      	b.n	8000e42 <_ZN4Game8moveBallEv+0x1e2>
 8000e40:	2300      	movs	r3, #0
					if (!player[i].playerTouch()
 8000e42:	2b00      	cmp	r3, #0
 8000e44:	d003      	beq.n	8000e4e <_ZN4Game8moveBallEv+0x1ee>
						ball.y = tempY;
 8000e46:	687b      	ldr	r3, [r7, #4]
 8000e48:	697a      	ldr	r2, [r7, #20]
 8000e4a:	669a      	str	r2, [r3, #104]	; 0x68
						break;
 8000e4c:	e05a      	b.n	8000f04 <_ZN4Game8moveBallEv+0x2a4>
					}
				}
			}
			// change ball direction
			ball.dy = -ball.dy;
 8000e4e:	687b      	ldr	r3, [r7, #4]
 8000e50:	6f1b      	ldr	r3, [r3, #112]	; 0x70
 8000e52:	425a      	negs	r2, r3
 8000e54:	687b      	ldr	r3, [r7, #4]
 8000e56:	671a      	str	r2, [r3, #112]	; 0x70

			//change ball angle based on where on the paddle it hit
			int hitPosition = (player[i].getX() + playerWidith) - ball.x;
 8000e58:	6a7b      	ldr	r3, [r7, #36]	; 0x24
 8000e5a:	015b      	lsls	r3, r3, #5
 8000e5c:	3308      	adds	r3, #8
 8000e5e:	687a      	ldr	r2, [r7, #4]
 8000e60:	4413      	add	r3, r2
 8000e62:	4618      	mov	r0, r3
 8000e64:	f001 f80b 	bl	8001e7e <_ZN6Player4getXEv>
 8000e68:	4603      	mov	r3, r0
 8000e6a:	f103 022d 	add.w	r2, r3, #45	; 0x2d
 8000e6e:	687b      	ldr	r3, [r7, #4]
 8000e70:	6e5b      	ldr	r3, [r3, #100]	; 0x64
 8000e72:	1ad3      	subs	r3, r2, r3
 8000e74:	613b      	str	r3, [r7, #16]
			double paddlePosition = playerWidith / 9;
 8000e76:	f04f 0200 	mov.w	r2, #0
 8000e7a:	4b3f      	ldr	r3, [pc, #252]	; (8000f78 <_ZN4Game8moveBallEv+0x318>)
 8000e7c:	e9c7 2302 	strd	r2, r3, [r7, #8]
			int direction = 4;
 8000e80:	2304      	movs	r3, #4
 8000e82:	623b      	str	r3, [r7, #32]
			for (int i = 0; i < 9; i++) {
 8000e84:	2300      	movs	r3, #0
 8000e86:	61fb      	str	r3, [r7, #28]
 8000e88:	69fb      	ldr	r3, [r7, #28]
 8000e8a:	2b08      	cmp	r3, #8
 8000e8c:	dc36      	bgt.n	8000efc <_ZN4Game8moveBallEv+0x29c>
				if (hitPosition >= paddlePosition * i
 8000e8e:	6938      	ldr	r0, [r7, #16]
 8000e90:	f7ff fc44 	bl	800071c <__aeabi_i2d>
 8000e94:	4604      	mov	r4, r0
 8000e96:	460d      	mov	r5, r1
 8000e98:	69f8      	ldr	r0, [r7, #28]
 8000e9a:	f7ff fc3f 	bl	800071c <__aeabi_i2d>
 8000e9e:	e9d7 2302 	ldrd	r2, r3, [r7, #8]
 8000ea2:	f7ff f9bf 	bl	8000224 <__aeabi_dmul>
 8000ea6:	4602      	mov	r2, r0
 8000ea8:	460b      	mov	r3, r1
 8000eaa:	4620      	mov	r0, r4
 8000eac:	4629      	mov	r1, r5
 8000eae:	f7ff fd13 	bl	80008d8 <__aeabi_dcmpge>
 8000eb2:	4603      	mov	r3, r0
 8000eb4:	2b00      	cmp	r3, #0
 8000eb6:	d01a      	beq.n	8000eee <_ZN4Game8moveBallEv+0x28e>
						&& hitPosition < paddlePosition * (i + 1)) {
 8000eb8:	6938      	ldr	r0, [r7, #16]
 8000eba:	f7ff fc2f 	bl	800071c <__aeabi_i2d>
 8000ebe:	4604      	mov	r4, r0
 8000ec0:	460d      	mov	r5, r1
 8000ec2:	69fb      	ldr	r3, [r7, #28]
 8000ec4:	3301      	adds	r3, #1
 8000ec6:	4618      	mov	r0, r3
 8000ec8:	f7ff fc28 	bl	800071c <__aeabi_i2d>
 8000ecc:	e9d7 2302 	ldrd	r2, r3, [r7, #8]
 8000ed0:	f7ff f9a8 	bl	8000224 <__aeabi_dmul>
 8000ed4:	4602      	mov	r2, r0
 8000ed6:	460b      	mov	r3, r1
 8000ed8:	4620      	mov	r0, r4
 8000eda:	4629      	mov	r1, r5
 8000edc:	f7ff fce8 	bl	80008b0 <__aeabi_dcmplt>
 8000ee0:	4603      	mov	r3, r0
 8000ee2:	2b00      	cmp	r3, #0
 8000ee4:	d003      	beq.n	8000eee <_ZN4Game8moveBallEv+0x28e>
					ball.dx = direction;
 8000ee6:	687b      	ldr	r3, [r7, #4]
 8000ee8:	6a3a      	ldr	r2, [r7, #32]
 8000eea:	66da      	str	r2, [r3, #108]	; 0x6c
					break;
 8000eec:	e006      	b.n	8000efc <_ZN4Game8moveBallEv+0x29c>
				}
				direction--;
 8000eee:	6a3b      	ldr	r3, [r7, #32]
 8000ef0:	3b01      	subs	r3, #1
 8000ef2:	623b      	str	r3, [r7, #32]
			for (int i = 0; i < 9; i++) {
 8000ef4:	69fb      	ldr	r3, [r7, #28]
 8000ef6:	3301      	adds	r3, #1
 8000ef8:	61fb      	str	r3, [r7, #28]
 8000efa:	e7c5      	b.n	8000e88 <_ZN4Game8moveBallEv+0x228>
	for (int i = 0; i < 2; i++) {
 8000efc:	6a7b      	ldr	r3, [r7, #36]	; 0x24
 8000efe:	3301      	adds	r3, #1
 8000f00:	627b      	str	r3, [r7, #36]	; 0x24
 8000f02:	e6fe      	b.n	8000d02 <_ZN4Game8moveBallEv+0xa2>
			}
		}
	}

	// check if player2 / bot won
	if (ball.y + ballWidith >= 320) {
 8000f04:	687b      	ldr	r3, [r7, #4]
 8000f06:	6e9b      	ldr	r3, [r3, #104]	; 0x68
 8000f08:	f5b3 7f9d 	cmp.w	r3, #314	; 0x13a
 8000f0c:	dd14      	ble.n	8000f38 <_ZN4Game8moveBallEv+0x2d8>
		player[Player::player2].score.setPoint(
 8000f0e:	687b      	ldr	r3, [r7, #4]
 8000f10:	f103 043c 	add.w	r4, r3, #60	; 0x3c
				player[Player::player2].score.getPoint() + 1);
 8000f14:	687b      	ldr	r3, [r7, #4]
 8000f16:	333c      	adds	r3, #60	; 0x3c
 8000f18:	4618      	mov	r0, r3
 8000f1a:	f001 f88d 	bl	8002038 <_ZN5Score8getPointEv>
 8000f1e:	4603      	mov	r3, r0
		player[Player::player2].score.setPoint(
 8000f20:	3301      	adds	r3, #1
 8000f22:	4619      	mov	r1, r3
 8000f24:	4620      	mov	r0, r4
 8000f26:	f001 fc37 	bl	8002798 <_ZN5Score8setPointEi>
		ball.reset();
 8000f2a:	687b      	ldr	r3, [r7, #4]
 8000f2c:	3360      	adds	r3, #96	; 0x60
 8000f2e:	4618      	mov	r0, r3
 8000f30:	f7ff fd18 	bl	8000964 <_ZN4Ball5resetEv>
		return false;
 8000f34:	2300      	movs	r3, #0
 8000f36:	e019      	b.n	8000f6c <_ZN4Game8moveBallEv+0x30c>
	}

	// check if player1 won
	if (ball.y <= 0) {
 8000f38:	687b      	ldr	r3, [r7, #4]
 8000f3a:	6e9b      	ldr	r3, [r3, #104]	; 0x68
 8000f3c:	2b00      	cmp	r3, #0
 8000f3e:	dc14      	bgt.n	8000f6a <_ZN4Game8moveBallEv+0x30a>
		player[Player::player1].score.setPoint(
 8000f40:	687b      	ldr	r3, [r7, #4]
 8000f42:	f103 041c 	add.w	r4, r3, #28
				player[Player::player1].score.getPoint() + 1);
 8000f46:	687b      	ldr	r3, [r7, #4]
 8000f48:	331c      	adds	r3, #28
 8000f4a:	4618      	mov	r0, r3
 8000f4c:	f001 f874 	bl	8002038 <_ZN5Score8getPointEv>
 8000f50:	4603      	mov	r3, r0
		player[Player::player1].score.setPoint(
 8000f52:	3301      	adds	r3, #1
 8000f54:	4619      	mov	r1, r3
 8000f56:	4620      	mov	r0, r4
 8000f58:	f001 fc1e 	bl	8002798 <_ZN5Score8setPointEi>
		ball.reset();
 8000f5c:	687b      	ldr	r3, [r7, #4]
 8000f5e:	3360      	adds	r3, #96	; 0x60
 8000f60:	4618      	mov	r0, r3
 8000f62:	f7ff fcff 	bl	8000964 <_ZN4Ball5resetEv>
		return false;
 8000f66:	2300      	movs	r3, #0
 8000f68:	e000      	b.n	8000f6c <_ZN4Game8moveBallEv+0x30c>
	}
	return true;
 8000f6a:	2301      	movs	r3, #1
}
 8000f6c:	4618      	mov	r0, r3
 8000f6e:	3728      	adds	r7, #40	; 0x28
 8000f70:	46bd      	mov	sp, r7
 8000f72:	e8bd 81f0 	ldmia.w	sp!, {r4, r5, r6, r7, r8, pc}
 8000f76:	bf00      	nop
 8000f78:	40140000 	.word	0x40140000

08000f7c <_ZN4Game11botMovementEv>:

void Game::botMovement() {
 8000f7c:	b590      	push	{r4, r7, lr}
 8000f7e:	b087      	sub	sp, #28
 8000f80:	af00      	add	r7, sp, #0
 8000f82:	6078      	str	r0, [r7, #4]
	int center = player[Player::player2].getX() + (playerWidith / 2);
 8000f84:	687b      	ldr	r3, [r7, #4]
 8000f86:	3328      	adds	r3, #40	; 0x28
 8000f88:	4618      	mov	r0, r3
 8000f8a:	f000 ff78 	bl	8001e7e <_ZN6Player4getXEv>
 8000f8e:	4603      	mov	r3, r0
 8000f90:	3316      	adds	r3, #22
 8000f92:	617b      	str	r3, [r7, #20]
	int screenCenter = LCD_DispWindow_COLUMN / 2;
 8000f94:	2378      	movs	r3, #120	; 0x78
 8000f96:	613b      	str	r3, [r7, #16]
	int ballSpeed = abs(ball.dx);
 8000f98:	687b      	ldr	r3, [r7, #4]
 8000f9a:	6edb      	ldr	r3, [r3, #108]	; 0x6c
 8000f9c:	2b00      	cmp	r3, #0
 8000f9e:	bfb8      	it	lt
 8000fa0:	425b      	neglt	r3, r3
 8000fa2:	60fb      	str	r3, [r7, #12]

	//ball moving right
	if (ball.dy > 0) {
 8000fa4:	687b      	ldr	r3, [r7, #4]
 8000fa6:	6f1b      	ldr	r3, [r3, #112]	; 0x70
 8000fa8:	2b00      	cmp	r3, #0
 8000faa:	dd23      	ble.n	8000ff4 <_ZN4Game11botMovementEv+0x78>
		//return to center position
		if (center < screenCenter) {
 8000fac:	697a      	ldr	r2, [r7, #20]
 8000fae:	693b      	ldr	r3, [r7, #16]
 8000fb0:	429a      	cmp	r2, r3
 8000fb2:	da0f      	bge.n	8000fd4 <_ZN4Game11botMovementEv+0x58>
			player[Player::player2].setX(
 8000fb4:	687b      	ldr	r3, [r7, #4]
 8000fb6:	f103 0428 	add.w	r4, r3, #40	; 0x28
					player[Player::player2].getX() + ballSpeed);
 8000fba:	687b      	ldr	r3, [r7, #4]
 8000fbc:	3328      	adds	r3, #40	; 0x28
 8000fbe:	4618      	mov	r0, r3
 8000fc0:	f000 ff5d 	bl	8001e7e <_ZN6Player4getXEv>
 8000fc4:	4602      	mov	r2, r0
			player[Player::player2].setX(
 8000fc6:	68fb      	ldr	r3, [r7, #12]
 8000fc8:	4413      	add	r3, r2
 8000fca:	4619      	mov	r1, r3
 8000fcc:	4620      	mov	r0, r4
 8000fce:	f000 ff49 	bl	8001e64 <_ZN6Player4setXEi>
 8000fd2:	e085      	b.n	80010e0 <_ZN4Game11botMovementEv+0x164>
		} else {
			player[Player::player2].setX(
 8000fd4:	687b      	ldr	r3, [r7, #4]
 8000fd6:	f103 0428 	add.w	r4, r3, #40	; 0x28
					player[Player::player2].getX() - ballSpeed);
 8000fda:	687b      	ldr	r3, [r7, #4]
 8000fdc:	3328      	adds	r3, #40	; 0x28
 8000fde:	4618      	mov	r0, r3
 8000fe0:	f000 ff4d 	bl	8001e7e <_ZN6Player4getXEv>
 8000fe4:	4602      	mov	r2, r0
			player[Player::player2].setX(
 8000fe6:	68fb      	ldr	r3, [r7, #12]
 8000fe8:	1ad3      	subs	r3, r2, r3
 8000fea:	4619      	mov	r1, r3
 8000fec:	4620      	mov	r0, r4
 8000fee:	f000 ff39 	bl	8001e64 <_ZN6Player4setXEi>
 8000ff2:	e075      	b.n	80010e0 <_ZN4Game11botMovementEv+0x164>
		}
		//ball moving left
	} else {
		//ball moving down
		if (ball.dx > 0) {
 8000ff4:	687b      	ldr	r3, [r7, #4]
 8000ff6:	6edb      	ldr	r3, [r3, #108]	; 0x6c
 8000ff8:	2b00      	cmp	r3, #0
 8000ffa:	dd23      	ble.n	8001044 <_ZN4Game11botMovementEv+0xc8>
			if (ball.x > center) {
 8000ffc:	687b      	ldr	r3, [r7, #4]
 8000ffe:	6e5b      	ldr	r3, [r3, #100]	; 0x64
 8001000:	697a      	ldr	r2, [r7, #20]
 8001002:	429a      	cmp	r2, r3
 8001004:	da0f      	bge.n	8001026 <_ZN4Game11botMovementEv+0xaa>
				player[Player::player2].setX(
 8001006:	687b      	ldr	r3, [r7, #4]
 8001008:	f103 0428 	add.w	r4, r3, #40	; 0x28
						player[Player::player2].getX() + ballSpeed);
 800100c:	687b      	ldr	r3, [r7, #4]
 800100e:	3328      	adds	r3, #40	; 0x28
 8001010:	4618      	mov	r0, r3
 8001012:	f000 ff34 	bl	8001e7e <_ZN6Player4getXEv>
 8001016:	4602      	mov	r2, r0
				player[Player::player2].setX(
 8001018:	68fb      	ldr	r3, [r7, #12]
 800101a:	4413      	add	r3, r2
 800101c:	4619      	mov	r1, r3
 800101e:	4620      	mov	r0, r4
 8001020:	f000 ff20 	bl	8001e64 <_ZN6Player4setXEi>
 8001024:	e00e      	b.n	8001044 <_ZN4Game11botMovementEv+0xc8>
			} else {
				player[Player::player2].setX(
 8001026:	687b      	ldr	r3, [r7, #4]
 8001028:	f103 0428 	add.w	r4, r3, #40	; 0x28
						player[Player::player2].getX() - ballSpeed);
 800102c:	687b      	ldr	r3, [r7, #4]
 800102e:	3328      	adds	r3, #40	; 0x28
 8001030:	4618      	mov	r0, r3
 8001032:	f000 ff24 	bl	8001e7e <_ZN6Player4getXEv>
 8001036:	4602      	mov	r2, r0
				player[Player::player2].setX(
 8001038:	68fb      	ldr	r3, [r7, #12]
 800103a:	1ad3      	subs	r3, r2, r3
 800103c:	4619      	mov	r1, r3
 800103e:	4620      	mov	r0, r4
 8001040:	f000 ff10 	bl	8001e64 <_ZN6Player4setXEi>
			}
		}
		//ball moving up
		if (ball.dx < 0) {
 8001044:	687b      	ldr	r3, [r7, #4]
 8001046:	6edb      	ldr	r3, [r3, #108]	; 0x6c
 8001048:	2b00      	cmp	r3, #0
 800104a:	da23      	bge.n	8001094 <_ZN4Game11botMovementEv+0x118>
			if (ball.x < center) {
 800104c:	687b      	ldr	r3, [r7, #4]
 800104e:	6e5b      	ldr	r3, [r3, #100]	; 0x64
 8001050:	697a      	ldr	r2, [r7, #20]
 8001052:	429a      	cmp	r2, r3
 8001054:	dd0f      	ble.n	8001076 <_ZN4Game11botMovementEv+0xfa>
				player[Player::player2].setX(
 8001056:	687b      	ldr	r3, [r7, #4]
 8001058:	f103 0428 	add.w	r4, r3, #40	; 0x28
						player[Player::player2].getX() - ballSpeed);
 800105c:	687b      	ldr	r3, [r7, #4]
 800105e:	3328      	adds	r3, #40	; 0x28
 8001060:	4618      	mov	r0, r3
 8001062:	f000 ff0c 	bl	8001e7e <_ZN6Player4getXEv>
 8001066:	4602      	mov	r2, r0
				player[Player::player2].setX(
 8001068:	68fb      	ldr	r3, [r7, #12]
 800106a:	1ad3      	subs	r3, r2, r3
 800106c:	4619      	mov	r1, r3
 800106e:	4620      	mov	r0, r4
 8001070:	f000 fef8 	bl	8001e64 <_ZN6Player4setXEi>
 8001074:	e00e      	b.n	8001094 <_ZN4Game11botMovementEv+0x118>
			} else {
				player[Player::player2].setX(
 8001076:	687b      	ldr	r3, [r7, #4]
 8001078:	f103 0428 	add.w	r4, r3, #40	; 0x28
						player[Player::player2].getX() + ballSpeed);
 800107c:	687b      	ldr	r3, [r7, #4]
 800107e:	3328      	adds	r3, #40	; 0x28
 8001080:	4618      	mov	r0, r3
 8001082:	f000 fefc 	bl	8001e7e <_ZN6Player4getXEv>
 8001086:	4602      	mov	r2, r0
				player[Player::player2].setX(
 8001088:	68fb      	ldr	r3, [r7, #12]
 800108a:	4413      	add	r3, r2
 800108c:	4619      	mov	r1, r3
 800108e:	4620      	mov	r0, r4
 8001090:	f000 fee8 	bl	8001e64 <_ZN6Player4setXEi>
			}
		}
		//ball moving stright across
		if (ball.dx == 0) {
 8001094:	687b      	ldr	r3, [r7, #4]
 8001096:	6edb      	ldr	r3, [r3, #108]	; 0x6c
 8001098:	2b00      	cmp	r3, #0
 800109a:	d121      	bne.n	80010e0 <_ZN4Game11botMovementEv+0x164>
			if (ball.x < center) {
 800109c:	687b      	ldr	r3, [r7, #4]
 800109e:	6e5b      	ldr	r3, [r3, #100]	; 0x64
 80010a0:	697a      	ldr	r2, [r7, #20]
 80010a2:	429a      	cmp	r2, r3
 80010a4:	dd0e      	ble.n	80010c4 <_ZN4Game11botMovementEv+0x148>
				player[Player::player2].setX(
 80010a6:	687b      	ldr	r3, [r7, #4]
 80010a8:	f103 0428 	add.w	r4, r3, #40	; 0x28
						player[Player::player2].getX() - 5);
 80010ac:	687b      	ldr	r3, [r7, #4]
 80010ae:	3328      	adds	r3, #40	; 0x28
 80010b0:	4618      	mov	r0, r3
 80010b2:	f000 fee4 	bl	8001e7e <_ZN6Player4getXEv>
 80010b6:	4603      	mov	r3, r0
				player[Player::player2].setX(
 80010b8:	3b05      	subs	r3, #5
 80010ba:	4619      	mov	r1, r3
 80010bc:	4620      	mov	r0, r4
 80010be:	f000 fed1 	bl	8001e64 <_ZN6Player4setXEi>
 80010c2:	e00d      	b.n	80010e0 <_ZN4Game11botMovementEv+0x164>
			} else {
				player[Player::player2].setX(
 80010c4:	687b      	ldr	r3, [r7, #4]
 80010c6:	f103 0428 	add.w	r4, r3, #40	; 0x28
						player[Player::player2].getX() + 5);
 80010ca:	687b      	ldr	r3, [r7, #4]
 80010cc:	3328      	adds	r3, #40	; 0x28
 80010ce:	4618      	mov	r0, r3
 80010d0:	f000 fed5 	bl	8001e7e <_ZN6Player4getXEv>
 80010d4:	4603      	mov	r3, r0
				player[Player::player2].setX(
 80010d6:	3305      	adds	r3, #5
 80010d8:	4619      	mov	r1, r3
 80010da:	4620      	mov	r0, r4
 80010dc:	f000 fec2 	bl	8001e64 <_ZN6Player4setXEi>
			}
		}
	}
	// make sure it is within broad
	if (player[Player::player2].getX() <= wallWidith) {
 80010e0:	687b      	ldr	r3, [r7, #4]
 80010e2:	3328      	adds	r3, #40	; 0x28
 80010e4:	4618      	mov	r0, r3
 80010e6:	f000 feca 	bl	8001e7e <_ZN6Player4getXEv>
 80010ea:	4603      	mov	r3, r0
 80010ec:	2b03      	cmp	r3, #3
 80010ee:	bfd4      	ite	le
 80010f0:	2301      	movle	r3, #1
 80010f2:	2300      	movgt	r3, #0
 80010f4:	b2db      	uxtb	r3, r3
 80010f6:	2b00      	cmp	r3, #0
 80010f8:	d005      	beq.n	8001106 <_ZN4Game11botMovementEv+0x18a>
		player[Player::player2].setX(wallWidith + 1);
 80010fa:	687b      	ldr	r3, [r7, #4]
 80010fc:	3328      	adds	r3, #40	; 0x28
 80010fe:	2104      	movs	r1, #4
 8001100:	4618      	mov	r0, r3
 8001102:	f000 feaf 	bl	8001e64 <_ZN6Player4setXEi>
	}
	if (player[Player::player2].getX() + playerWidith
 8001106:	687b      	ldr	r3, [r7, #4]
 8001108:	3328      	adds	r3, #40	; 0x28
 800110a:	4618      	mov	r0, r3
 800110c:	f000 feb7 	bl	8001e7e <_ZN6Player4getXEv>
 8001110:	4603      	mov	r3, r0
			>= LCD_DispWindow_COLUMN - wallWidith) {
 8001112:	2bbf      	cmp	r3, #191	; 0xbf
 8001114:	bfcc      	ite	gt
 8001116:	2301      	movgt	r3, #1
 8001118:	2300      	movle	r3, #0
 800111a:	b2db      	uxtb	r3, r3
	if (player[Player::player2].getX() + playerWidith
 800111c:	2b00      	cmp	r3, #0
 800111e:	d005      	beq.n	800112c <_ZN4Game11botMovementEv+0x1b0>
		player[Player::player2].setX(
 8001120:	687b      	ldr	r3, [r7, #4]
 8001122:	3328      	adds	r3, #40	; 0x28
 8001124:	21bf      	movs	r1, #191	; 0xbf
 8001126:	4618      	mov	r0, r3
 8001128:	f000 fe9c 	bl	8001e64 <_ZN6Player4setXEi>
		LCD_DispWindow_COLUMN - wallWidith - playerWidith - 1);
	}

}
 800112c:	bf00      	nop
 800112e:	371c      	adds	r7, #28
 8001130:	46bd      	mov	sp, r7
 8001132:	bd90      	pop	{r4, r7, pc}

08001134 <_ZN4BallaSERKS_>:
#ifndef INC_BALL_H_
#define INC_BALL_H_

class Ball {
 8001134:	b480      	push	{r7}
 8001136:	b083      	sub	sp, #12
 8001138:	af00      	add	r7, sp, #0
 800113a:	6078      	str	r0, [r7, #4]
 800113c:	6039      	str	r1, [r7, #0]
 800113e:	683b      	ldr	r3, [r7, #0]
 8001140:	685a      	ldr	r2, [r3, #4]
 8001142:	687b      	ldr	r3, [r7, #4]
 8001144:	605a      	str	r2, [r3, #4]
 8001146:	683b      	ldr	r3, [r7, #0]
 8001148:	689a      	ldr	r2, [r3, #8]
 800114a:	687b      	ldr	r3, [r7, #4]
 800114c:	609a      	str	r2, [r3, #8]
 800114e:	683b      	ldr	r3, [r7, #0]
 8001150:	68da      	ldr	r2, [r3, #12]
 8001152:	687b      	ldr	r3, [r7, #4]
 8001154:	60da      	str	r2, [r3, #12]
 8001156:	683b      	ldr	r3, [r7, #0]
 8001158:	691a      	ldr	r2, [r3, #16]
 800115a:	687b      	ldr	r3, [r7, #4]
 800115c:	611a      	str	r2, [r3, #16]
 800115e:	687b      	ldr	r3, [r7, #4]
 8001160:	4618      	mov	r0, r3
 8001162:	370c      	adds	r7, #12
 8001164:	46bd      	mov	sp, r7
 8001166:	bc80      	pop	{r7}
 8001168:	4770      	bx	lr

0800116a <_ZN4Game19displayBallMovementEv>:

void Game::displayBallMovement() {
 800116a:	b580      	push	{r7, lr}
 800116c:	b088      	sub	sp, #32
 800116e:	af00      	add	r7, sp, #0
 8001170:	6078      	str	r0, [r7, #4]
	Ball tempBall;
 8001172:	f107 030c 	add.w	r3, r7, #12
 8001176:	4618      	mov	r0, r3
 8001178:	f7ff fbe2 	bl	8000940 <_ZN4BallC1Ev>
	tempBall = ball;
 800117c:	687b      	ldr	r3, [r7, #4]
 800117e:	f103 0260 	add.w	r2, r3, #96	; 0x60
 8001182:	f107 030c 	add.w	r3, r7, #12
 8001186:	4611      	mov	r1, r2
 8001188:	4618      	mov	r0, r3
 800118a:	f7ff ffd3 	bl	8001134 <_ZN4BallaSERKS_>
	if (moveBall()) { // ball moved
 800118e:	6878      	ldr	r0, [r7, #4]
 8001190:	f7ff fd66 	bl	8000c60 <_ZN4Game8moveBallEv>
 8001194:	4603      	mov	r3, r0
 8001196:	2b00      	cmp	r3, #0
 8001198:	d00c      	beq.n	80011b4 <_ZN4Game19displayBallMovementEv+0x4a>
		LCD_MoveBall(tempBall.x, tempBall.y, ball.x, ball.y);
 800119a:	693b      	ldr	r3, [r7, #16]
 800119c:	b298      	uxth	r0, r3
 800119e:	697b      	ldr	r3, [r7, #20]
 80011a0:	b299      	uxth	r1, r3
 80011a2:	687b      	ldr	r3, [r7, #4]
 80011a4:	6e5b      	ldr	r3, [r3, #100]	; 0x64
 80011a6:	b29a      	uxth	r2, r3
 80011a8:	687b      	ldr	r3, [r7, #4]
 80011aa:	6e9b      	ldr	r3, [r3, #104]	; 0x68
 80011ac:	b29b      	uxth	r3, r3
 80011ae:	f002 f980 	bl	80034b2 <_Z12LCD_MoveBalltttt>
 80011b2:	e012      	b.n	80011da <_ZN4Game19displayBallMovementEv+0x70>
	} else { // ball position reset
		LCD_DrawBall(tempBall.x, tempBall.y, BLACK);
 80011b4:	693b      	ldr	r3, [r7, #16]
 80011b6:	b29b      	uxth	r3, r3
 80011b8:	697a      	ldr	r2, [r7, #20]
 80011ba:	b291      	uxth	r1, r2
 80011bc:	2200      	movs	r2, #0
 80011be:	4618      	mov	r0, r3
 80011c0:	f001 ffb4 	bl	800312c <_Z12LCD_DrawBallttt>
		LCD_DrawBall(ball.x, ball.y, WHITE);
 80011c4:	687b      	ldr	r3, [r7, #4]
 80011c6:	6e5b      	ldr	r3, [r3, #100]	; 0x64
 80011c8:	b298      	uxth	r0, r3
 80011ca:	687b      	ldr	r3, [r7, #4]
 80011cc:	6e9b      	ldr	r3, [r3, #104]	; 0x68
 80011ce:	b29b      	uxth	r3, r3
 80011d0:	f64f 72ff 	movw	r2, #65535	; 0xffff
 80011d4:	4619      	mov	r1, r3
 80011d6:	f001 ffa9 	bl	800312c <_Z12LCD_DrawBallttt>
	Ball tempBall;
 80011da:	f107 030c 	add.w	r3, r7, #12
 80011de:	4618      	mov	r0, r3
 80011e0:	f7ff fbd6 	bl	8000990 <_ZN4BallD1Ev>
	}
}
 80011e4:	bf00      	nop
 80011e6:	3720      	adds	r7, #32
 80011e8:	46bd      	mov	sp, r7
 80011ea:	bd80      	pop	{r7, pc}

080011ec <_ZN4Game21displayPlayerMovementEi>:

void Game::displayPlayerMovement(int playerNumber) {
 80011ec:	b5f0      	push	{r4, r5, r6, r7, lr}
 80011ee:	b085      	sub	sp, #20
 80011f0:	af00      	add	r7, sp, #0
 80011f2:	6078      	str	r0, [r7, #4]
 80011f4:	6039      	str	r1, [r7, #0]
	int tempPlayerX;
	tempPlayerX = player[playerNumber].getX();
 80011f6:	683b      	ldr	r3, [r7, #0]
 80011f8:	015b      	lsls	r3, r3, #5
 80011fa:	3308      	adds	r3, #8
 80011fc:	687a      	ldr	r2, [r7, #4]
 80011fe:	4413      	add	r3, r2
 8001200:	4618      	mov	r0, r3
 8001202:	f000 fe3c 	bl	8001e7e <_ZN6Player4getXEv>
 8001206:	60f8      	str	r0, [r7, #12]
	if (menu.getCurrentMenu() == Menu::vsBotGame
 8001208:	687b      	ldr	r3, [r7, #4]
 800120a:	3348      	adds	r3, #72	; 0x48
 800120c:	4618      	mov	r0, r3
 800120e:	f000 fabb 	bl	8001788 <_ZN4Menu14getCurrentMenuEv>
 8001212:	4603      	mov	r3, r0
			&& playerNumber == Player::player2) {
 8001214:	2b03      	cmp	r3, #3
 8001216:	d104      	bne.n	8001222 <_ZN4Game21displayPlayerMovementEi+0x36>
 8001218:	683b      	ldr	r3, [r7, #0]
 800121a:	2b01      	cmp	r3, #1
 800121c:	d101      	bne.n	8001222 <_ZN4Game21displayPlayerMovementEi+0x36>
 800121e:	2301      	movs	r3, #1
 8001220:	e000      	b.n	8001224 <_ZN4Game21displayPlayerMovementEi+0x38>
 8001222:	2300      	movs	r3, #0
	if (menu.getCurrentMenu() == Menu::vsBotGame
 8001224:	2b00      	cmp	r3, #0
 8001226:	d003      	beq.n	8001230 <_ZN4Game21displayPlayerMovementEi+0x44>
		botMovement();
 8001228:	6878      	ldr	r0, [r7, #4]
 800122a:	f7ff fea7 	bl	8000f7c <_ZN4Game11botMovementEv>
 800122e:	e007      	b.n	8001240 <_ZN4Game21displayPlayerMovementEi+0x54>
	} else {
		player[playerNumber].findAndSetX();
 8001230:	683b      	ldr	r3, [r7, #0]
 8001232:	015b      	lsls	r3, r3, #5
 8001234:	3308      	adds	r3, #8
 8001236:	687a      	ldr	r2, [r7, #4]
 8001238:	4413      	add	r3, r2
 800123a:	4618      	mov	r0, r3
 800123c:	f000 fe6a 	bl	8001f14 <_ZN6Player11findAndSetXEv>
	}

	LCD_MovePlayer(tempPlayerX, player[playerNumber].getY(),
 8001240:	68fb      	ldr	r3, [r7, #12]
 8001242:	b29c      	uxth	r4, r3
 8001244:	683b      	ldr	r3, [r7, #0]
 8001246:	015b      	lsls	r3, r3, #5
 8001248:	3308      	adds	r3, #8
 800124a:	687a      	ldr	r2, [r7, #4]
 800124c:	4413      	add	r3, r2
 800124e:	4618      	mov	r0, r3
 8001250:	f000 fe20 	bl	8001e94 <_ZN6Player4getYEv>
 8001254:	4603      	mov	r3, r0
 8001256:	b29d      	uxth	r5, r3
			player[playerNumber].getX(), player[playerNumber].getY());
 8001258:	683b      	ldr	r3, [r7, #0]
 800125a:	015b      	lsls	r3, r3, #5
 800125c:	3308      	adds	r3, #8
 800125e:	687a      	ldr	r2, [r7, #4]
 8001260:	4413      	add	r3, r2
 8001262:	4618      	mov	r0, r3
 8001264:	f000 fe0b 	bl	8001e7e <_ZN6Player4getXEv>
 8001268:	4603      	mov	r3, r0
	LCD_MovePlayer(tempPlayerX, player[playerNumber].getY(),
 800126a:	b29e      	uxth	r6, r3
			player[playerNumber].getX(), player[playerNumber].getY());
 800126c:	683b      	ldr	r3, [r7, #0]
 800126e:	015b      	lsls	r3, r3, #5
 8001270:	3308      	adds	r3, #8
 8001272:	687a      	ldr	r2, [r7, #4]
 8001274:	4413      	add	r3, r2
 8001276:	4618      	mov	r0, r3
 8001278:	f000 fe0c 	bl	8001e94 <_ZN6Player4getYEv>
 800127c:	4603      	mov	r3, r0
	LCD_MovePlayer(tempPlayerX, player[playerNumber].getY(),
 800127e:	b29b      	uxth	r3, r3
 8001280:	4632      	mov	r2, r6
 8001282:	4629      	mov	r1, r5
 8001284:	4620      	mov	r0, r4
 8001286:	f002 fa1c 	bl	80036c2 <_Z14LCD_MovePlayertttt>
}
 800128a:	bf00      	nop
 800128c:	3714      	adds	r7, #20
 800128e:	46bd      	mov	sp, r7
 8001290:	bdf0      	pop	{r4, r5, r6, r7, pc}
	...

08001294 <_ZN4Game13displayWinnerEi>:

void Game::displayWinner(int playerNumber) {
 8001294:	b580      	push	{r7, lr}
 8001296:	b08a      	sub	sp, #40	; 0x28
 8001298:	af02      	add	r7, sp, #8
 800129a:	6078      	str	r0, [r7, #4]
 800129c:	6039      	str	r1, [r7, #0]

	LCD_Clear(LCD_DispWindow_Start_COLUMN, LCD_DispWindow_Start_PAGE,
 800129e:	2300      	movs	r3, #0
 80012a0:	9300      	str	r3, [sp, #0]
 80012a2:	f44f 73a0 	mov.w	r3, #320	; 0x140
 80012a6:	22f0      	movs	r2, #240	; 0xf0
 80012a8:	2100      	movs	r1, #0
 80012aa:	2000      	movs	r0, #0
 80012ac:	f001 fda8 	bl	8002e00 <_Z9LCD_Clearttttt>
	LCD_DispWindow_COLUMN, LCD_DispWindow_PAGE, BLACK);
	if (menu.getCurrentMenu() == Menu::vsBotGame
 80012b0:	687b      	ldr	r3, [r7, #4]
 80012b2:	3348      	adds	r3, #72	; 0x48
 80012b4:	4618      	mov	r0, r3
 80012b6:	f000 fa67 	bl	8001788 <_ZN4Menu14getCurrentMenuEv>
 80012ba:	4603      	mov	r3, r0
			&& playerNumber == Player::player2) {
 80012bc:	2b03      	cmp	r3, #3
 80012be:	d104      	bne.n	80012ca <_ZN4Game13displayWinnerEi+0x36>
 80012c0:	683b      	ldr	r3, [r7, #0]
 80012c2:	2b01      	cmp	r3, #1
 80012c4:	d101      	bne.n	80012ca <_ZN4Game13displayWinnerEi+0x36>
 80012c6:	2301      	movs	r3, #1
 80012c8:	e000      	b.n	80012cc <_ZN4Game13displayWinnerEi+0x38>
 80012ca:	2300      	movs	r3, #0
	if (menu.getCurrentMenu() == Menu::vsBotGame
 80012cc:	2b00      	cmp	r3, #0
 80012ce:	d005      	beq.n	80012dc <_ZN4Game13displayWinnerEi+0x48>
		LCD_DrawString(90, LCD_DispWindow_PAGE / 2, "YOU LOSE");
 80012d0:	4a0b      	ldr	r2, [pc, #44]	; (8001300 <_ZN4Game13displayWinnerEi+0x6c>)
 80012d2:	21a0      	movs	r1, #160	; 0xa0
 80012d4:	205a      	movs	r0, #90	; 0x5a
 80012d6:	f001 fee1 	bl	800309c <_Z14LCD_DrawStringttPKc>
 80012da:	e00e      	b.n	80012fa <_ZN4Game13displayWinnerEi+0x66>
		return;
	}
	char displayText[20];
	sprintf(displayText, "PLAYER %d WINS", playerNumber + 1);
 80012dc:	683b      	ldr	r3, [r7, #0]
 80012de:	1c5a      	adds	r2, r3, #1
 80012e0:	f107 030c 	add.w	r3, r7, #12
 80012e4:	4907      	ldr	r1, [pc, #28]	; (8001304 <_ZN4Game13displayWinnerEi+0x70>)
 80012e6:	4618      	mov	r0, r3
 80012e8:	f006 f92e 	bl	8007548 <siprintf>
	LCD_DrawString(70, LCD_DispWindow_PAGE / 2, displayText);
 80012ec:	f107 030c 	add.w	r3, r7, #12
 80012f0:	461a      	mov	r2, r3
 80012f2:	21a0      	movs	r1, #160	; 0xa0
 80012f4:	2046      	movs	r0, #70	; 0x46
 80012f6:	f001 fed1 	bl	800309c <_Z14LCD_DrawStringttPKc>
}
 80012fa:	3720      	adds	r7, #32
 80012fc:	46bd      	mov	sp, r7
 80012fe:	bd80      	pop	{r7, pc}
 8001300:	08007c7c 	.word	0x08007c7c
 8001304:	08007c88 	.word	0x08007c88

08001308 <_ZN4Game6gamingEv>:

void Game::gaming() {
 8001308:	b590      	push	{r4, r7, lr}
 800130a:	b083      	sub	sp, #12
 800130c:	af00      	add	r7, sp, #0
 800130e:	6078      	str	r0, [r7, #4]

	switch (menu.getCurrentMenu()) {
 8001310:	687b      	ldr	r3, [r7, #4]
 8001312:	3348      	adds	r3, #72	; 0x48
 8001314:	4618      	mov	r0, r3
 8001316:	f000 fa37 	bl	8001788 <_ZN4Menu14getCurrentMenuEv>
 800131a:	4603      	mov	r3, r0
 800131c:	2b05      	cmp	r3, #5
 800131e:	f000 80a7 	beq.w	8001470 <_ZN4Game6gamingEv+0x168>
 8001322:	2b05      	cmp	r3, #5
 8001324:	f300 80fc 	bgt.w	8001520 <_ZN4Game6gamingEv+0x218>
 8001328:	2b03      	cmp	r3, #3
 800132a:	d049      	beq.n	80013c0 <_ZN4Game6gamingEv+0xb8>
 800132c:	2b04      	cmp	r3, #4
 800132e:	f040 80f7 	bne.w	8001520 <_ZN4Game6gamingEv+0x218>
	case Menu::vsWallGame:
		if (!start) {
 8001332:	687b      	ldr	r3, [r7, #4]
 8001334:	791b      	ldrb	r3, [r3, #4]
 8001336:	f083 0301 	eor.w	r3, r3, #1
 800133a:	b2db      	uxtb	r3, r3
 800133c:	2b00      	cmp	r3, #0
 800133e:	d031      	beq.n	80013a4 <_ZN4Game6gamingEv+0x9c>
			LCD_DrawPlayer(player[Player::player1].getX(),
 8001340:	687b      	ldr	r3, [r7, #4]
 8001342:	3308      	adds	r3, #8
 8001344:	4618      	mov	r0, r3
 8001346:	f000 fd9a 	bl	8001e7e <_ZN6Player4getXEv>
 800134a:	4603      	mov	r3, r0
 800134c:	b29c      	uxth	r4, r3
					player[Player::player1].getY(), WHITE);
 800134e:	687b      	ldr	r3, [r7, #4]
 8001350:	3308      	adds	r3, #8
 8001352:	4618      	mov	r0, r3
 8001354:	f000 fd9e 	bl	8001e94 <_ZN6Player4getYEv>
 8001358:	4603      	mov	r3, r0
			LCD_DrawPlayer(player[Player::player1].getX(),
 800135a:	b29b      	uxth	r3, r3
 800135c:	f64f 72ff 	movw	r2, #65535	; 0xffff
 8001360:	4619      	mov	r1, r3
 8001362:	4620      	mov	r0, r4
 8001364:	f002 f94c 	bl	8003600 <_Z14LCD_DrawPlayerttt>
			LCD_DrawBall(ball.x, ball.y, WHITE);
 8001368:	687b      	ldr	r3, [r7, #4]
 800136a:	6e5b      	ldr	r3, [r3, #100]	; 0x64
 800136c:	b298      	uxth	r0, r3
 800136e:	687b      	ldr	r3, [r7, #4]
 8001370:	6e9b      	ldr	r3, [r3, #104]	; 0x68
 8001372:	b29b      	uxth	r3, r3
 8001374:	f64f 72ff 	movw	r2, #65535	; 0xffff
 8001378:	4619      	mov	r1, r3
 800137a:	f001 fed7 	bl	800312c <_Z12LCD_DrawBallttt>
			player[Player::player1].score.setPoint(10);
 800137e:	687b      	ldr	r3, [r7, #4]
 8001380:	331c      	adds	r3, #28
 8001382:	210a      	movs	r1, #10
 8001384:	4618      	mov	r0, r3
 8001386:	f001 fa07 	bl	8002798 <_ZN5Score8setPointEi>
			player[Player::player2].score.setPoint(10);
 800138a:	687b      	ldr	r3, [r7, #4]
 800138c:	333c      	adds	r3, #60	; 0x3c
 800138e:	210a      	movs	r1, #10
 8001390:	4618      	mov	r0, r3
 8001392:	f001 fa01 	bl	8002798 <_ZN5Score8setPointEi>
			player[Player::player2].setX(playerNotTouching);
 8001396:	687b      	ldr	r3, [r7, #4]
 8001398:	3328      	adds	r3, #40	; 0x28
 800139a:	f44f 51fa 	mov.w	r1, #8000	; 0x1f40
 800139e:	4618      	mov	r0, r3
 80013a0:	f000 fd60 	bl	8001e64 <_ZN6Player4setXEi>
		}
		setStart(true);
 80013a4:	2101      	movs	r1, #1
 80013a6:	6878      	ldr	r0, [r7, #4]
 80013a8:	f7ff fb3a 	bl	8000a20 <_ZN4Game8setStartEb>
		displayPlayerMovement(Player::player1);
 80013ac:	2100      	movs	r1, #0
 80013ae:	6878      	ldr	r0, [r7, #4]
 80013b0:	f7ff ff1c 	bl	80011ec <_ZN4Game21displayPlayerMovementEi>
		displayBallMovement();
 80013b4:	6878      	ldr	r0, [r7, #4]
 80013b6:	f7ff fed8 	bl	800116a <_ZN4Game19displayBallMovementEv>
		LCD_DrawNet();
 80013ba:	f002 fa1f 	bl	80037fc <_Z11LCD_DrawNetv>
		break;
 80013be:	e0af      	b.n	8001520 <_ZN4Game6gamingEv+0x218>
	case Menu::vsBotGame:
		if (!start) {
 80013c0:	687b      	ldr	r3, [r7, #4]
 80013c2:	791b      	ldrb	r3, [r3, #4]
 80013c4:	f083 0301 	eor.w	r3, r3, #1
 80013c8:	b2db      	uxtb	r3, r3
 80013ca:	2b00      	cmp	r3, #0
 80013cc:	d03e      	beq.n	800144c <_ZN4Game6gamingEv+0x144>
			LCD_DrawPlayer(player[Player::player1].getX(),
 80013ce:	687b      	ldr	r3, [r7, #4]
 80013d0:	3308      	adds	r3, #8
 80013d2:	4618      	mov	r0, r3
 80013d4:	f000 fd53 	bl	8001e7e <_ZN6Player4getXEv>
 80013d8:	4603      	mov	r3, r0
 80013da:	b29c      	uxth	r4, r3
					player[Player::player1].getY(), WHITE);
 80013dc:	687b      	ldr	r3, [r7, #4]
 80013de:	3308      	adds	r3, #8
 80013e0:	4618      	mov	r0, r3
 80013e2:	f000 fd57 	bl	8001e94 <_ZN6Player4getYEv>
 80013e6:	4603      	mov	r3, r0
			LCD_DrawPlayer(player[Player::player1].getX(),
 80013e8:	b29b      	uxth	r3, r3
 80013ea:	f64f 72ff 	movw	r2, #65535	; 0xffff
 80013ee:	4619      	mov	r1, r3
 80013f0:	4620      	mov	r0, r4
 80013f2:	f002 f905 	bl	8003600 <_Z14LCD_DrawPlayerttt>
			LCD_DrawPlayer(player[Player::player2].getX(),
 80013f6:	687b      	ldr	r3, [r7, #4]
 80013f8:	3328      	adds	r3, #40	; 0x28
 80013fa:	4618      	mov	r0, r3
 80013fc:	f000 fd3f 	bl	8001e7e <_ZN6Player4getXEv>
 8001400:	4603      	mov	r3, r0
 8001402:	b29c      	uxth	r4, r3
					player[Player::player2].getY(), WHITE);
 8001404:	687b      	ldr	r3, [r7, #4]
 8001406:	3328      	adds	r3, #40	; 0x28
 8001408:	4618      	mov	r0, r3
 800140a:	f000 fd43 	bl	8001e94 <_ZN6Player4getYEv>
 800140e:	4603      	mov	r3, r0
			LCD_DrawPlayer(player[Player::player2].getX(),
 8001410:	b29b      	uxth	r3, r3
 8001412:	f64f 72ff 	movw	r2, #65535	; 0xffff
 8001416:	4619      	mov	r1, r3
 8001418:	4620      	mov	r0, r4
 800141a:	f002 f8f1 	bl	8003600 <_Z14LCD_DrawPlayerttt>
			LCD_DrawBall(ball.x, ball.y, WHITE);
 800141e:	687b      	ldr	r3, [r7, #4]
 8001420:	6e5b      	ldr	r3, [r3, #100]	; 0x64
 8001422:	b298      	uxth	r0, r3
 8001424:	687b      	ldr	r3, [r7, #4]
 8001426:	6e9b      	ldr	r3, [r3, #104]	; 0x68
 8001428:	b29b      	uxth	r3, r3
 800142a:	f64f 72ff 	movw	r2, #65535	; 0xffff
 800142e:	4619      	mov	r1, r3
 8001430:	f001 fe7c 	bl	800312c <_Z12LCD_DrawBallttt>
			player[Player::player1].score.setPoint(0);
 8001434:	687b      	ldr	r3, [r7, #4]
 8001436:	331c      	adds	r3, #28
 8001438:	2100      	movs	r1, #0
 800143a:	4618      	mov	r0, r3
 800143c:	f001 f9ac 	bl	8002798 <_ZN5Score8setPointEi>
			player[Player::player2].score.setPoint(0);
 8001440:	687b      	ldr	r3, [r7, #4]
 8001442:	333c      	adds	r3, #60	; 0x3c
 8001444:	2100      	movs	r1, #0
 8001446:	4618      	mov	r0, r3
 8001448:	f001 f9a6 	bl	8002798 <_ZN5Score8setPointEi>
		}
		setStart(true);
 800144c:	2101      	movs	r1, #1
 800144e:	6878      	ldr	r0, [r7, #4]
 8001450:	f7ff fae6 	bl	8000a20 <_ZN4Game8setStartEb>
		displayPlayerMovement(Player::player1);
 8001454:	2100      	movs	r1, #0
 8001456:	6878      	ldr	r0, [r7, #4]
 8001458:	f7ff fec8 	bl	80011ec <_ZN4Game21displayPlayerMovementEi>
		displayPlayerMovement(Player::player2);
 800145c:	2101      	movs	r1, #1
 800145e:	6878      	ldr	r0, [r7, #4]
 8001460:	f7ff fec4 	bl	80011ec <_ZN4Game21displayPlayerMovementEi>
		displayBallMovement();
 8001464:	6878      	ldr	r0, [r7, #4]
 8001466:	f7ff fe80 	bl	800116a <_ZN4Game19displayBallMovementEv>
		LCD_DrawNet();
 800146a:	f002 f9c7 	bl	80037fc <_Z11LCD_DrawNetv>
		break;
 800146e:	e057      	b.n	8001520 <_ZN4Game6gamingEv+0x218>
	case Menu::twoPlayersGame:
		if (!start) {
 8001470:	687b      	ldr	r3, [r7, #4]
 8001472:	791b      	ldrb	r3, [r3, #4]
 8001474:	f083 0301 	eor.w	r3, r3, #1
 8001478:	b2db      	uxtb	r3, r3
 800147a:	2b00      	cmp	r3, #0
 800147c:	d03e      	beq.n	80014fc <_ZN4Game6gamingEv+0x1f4>
			LCD_DrawPlayer(player[Player::player1].getX(),
 800147e:	687b      	ldr	r3, [r7, #4]
 8001480:	3308      	adds	r3, #8
 8001482:	4618      	mov	r0, r3
 8001484:	f000 fcfb 	bl	8001e7e <_ZN6Player4getXEv>
 8001488:	4603      	mov	r3, r0
 800148a:	b29c      	uxth	r4, r3
					player[Player::player1].getY(), WHITE);
 800148c:	687b      	ldr	r3, [r7, #4]
 800148e:	3308      	adds	r3, #8
 8001490:	4618      	mov	r0, r3
 8001492:	f000 fcff 	bl	8001e94 <_ZN6Player4getYEv>
 8001496:	4603      	mov	r3, r0
			LCD_DrawPlayer(player[Player::player1].getX(),
 8001498:	b29b      	uxth	r3, r3
 800149a:	f64f 72ff 	movw	r2, #65535	; 0xffff
 800149e:	4619      	mov	r1, r3
 80014a0:	4620      	mov	r0, r4
 80014a2:	f002 f8ad 	bl	8003600 <_Z14LCD_DrawPlayerttt>
			LCD_DrawPlayer(player[Player::player2].getX(),
 80014a6:	687b      	ldr	r3, [r7, #4]
 80014a8:	3328      	adds	r3, #40	; 0x28
 80014aa:	4618      	mov	r0, r3
 80014ac:	f000 fce7 	bl	8001e7e <_ZN6Player4getXEv>
 80014b0:	4603      	mov	r3, r0
 80014b2:	b29c      	uxth	r4, r3
					player[Player::player2].getY(), WHITE);
 80014b4:	687b      	ldr	r3, [r7, #4]
 80014b6:	3328      	adds	r3, #40	; 0x28
 80014b8:	4618      	mov	r0, r3
 80014ba:	f000 fceb 	bl	8001e94 <_ZN6Player4getYEv>
 80014be:	4603      	mov	r3, r0
			LCD_DrawPlayer(player[Player::player2].getX(),
 80014c0:	b29b      	uxth	r3, r3
 80014c2:	f64f 72ff 	movw	r2, #65535	; 0xffff
 80014c6:	4619      	mov	r1, r3
 80014c8:	4620      	mov	r0, r4
 80014ca:	f002 f899 	bl	8003600 <_Z14LCD_DrawPlayerttt>
			LCD_DrawBall(ball.x, ball.y, WHITE);
 80014ce:	687b      	ldr	r3, [r7, #4]
 80014d0:	6e5b      	ldr	r3, [r3, #100]	; 0x64
 80014d2:	b298      	uxth	r0, r3
 80014d4:	687b      	ldr	r3, [r7, #4]
 80014d6:	6e9b      	ldr	r3, [r3, #104]	; 0x68
 80014d8:	b29b      	uxth	r3, r3
 80014da:	f64f 72ff 	movw	r2, #65535	; 0xffff
 80014de:	4619      	mov	r1, r3
 80014e0:	f001 fe24 	bl	800312c <_Z12LCD_DrawBallttt>
			player[Player::player1].score.setPoint(0);
 80014e4:	687b      	ldr	r3, [r7, #4]
 80014e6:	331c      	adds	r3, #28
 80014e8:	2100      	movs	r1, #0
 80014ea:	4618      	mov	r0, r3
 80014ec:	f001 f954 	bl	8002798 <_ZN5Score8setPointEi>
			player[Player::player2].score.setPoint(0);
 80014f0:	687b      	ldr	r3, [r7, #4]
 80014f2:	333c      	adds	r3, #60	; 0x3c
 80014f4:	2100      	movs	r1, #0
 80014f6:	4618      	mov	r0, r3
 80014f8:	f001 f94e 	bl	8002798 <_ZN5Score8setPointEi>
		}
		setStart(true);
 80014fc:	2101      	movs	r1, #1
 80014fe:	6878      	ldr	r0, [r7, #4]
 8001500:	f7ff fa8e 	bl	8000a20 <_ZN4Game8setStartEb>
		displayPlayerMovement(Player::player1);
 8001504:	2100      	movs	r1, #0
 8001506:	6878      	ldr	r0, [r7, #4]
 8001508:	f7ff fe70 	bl	80011ec <_ZN4Game21displayPlayerMovementEi>
		displayPlayerMovement(Player::player2);
 800150c:	2101      	movs	r1, #1
 800150e:	6878      	ldr	r0, [r7, #4]
 8001510:	f7ff fe6c 	bl	80011ec <_ZN4Game21displayPlayerMovementEi>
		displayBallMovement();
 8001514:	6878      	ldr	r0, [r7, #4]
 8001516:	f7ff fe28 	bl	800116a <_ZN4Game19displayBallMovementEv>
		LCD_DrawNet();
 800151a:	f002 f96f 	bl	80037fc <_Z11LCD_DrawNetv>
		break;
 800151e:	bf00      	nop
	default:
		;
	}
	if (player[Player::player1].score.getPoint()
 8001520:	687b      	ldr	r3, [r7, #4]
 8001522:	331c      	adds	r3, #28
 8001524:	4618      	mov	r0, r3
 8001526:	f000 fd87 	bl	8002038 <_ZN5Score8getPointEv>
 800152a:	4604      	mov	r4, r0
			== menu.settings.getPointsNeeded()) {
 800152c:	687b      	ldr	r3, [r7, #4]
 800152e:	3350      	adds	r3, #80	; 0x50
 8001530:	4618      	mov	r0, r3
 8001532:	f001 f9ef 	bl	8002914 <_ZN8Settings15getPointsNeededEv>
 8001536:	4603      	mov	r3, r0
 8001538:	429c      	cmp	r4, r3
 800153a:	bf0c      	ite	eq
 800153c:	2301      	moveq	r3, #1
 800153e:	2300      	movne	r3, #0
 8001540:	b2db      	uxtb	r3, r3
	if (player[Player::player1].score.getPoint()
 8001542:	2b00      	cmp	r3, #0
 8001544:	d00a      	beq.n	800155c <_ZN4Game6gamingEv+0x254>
		displayWinner(Player::player1);
 8001546:	2100      	movs	r1, #0
 8001548:	6878      	ldr	r0, [r7, #4]
 800154a:	f7ff fea3 	bl	8001294 <_ZN4Game13displayWinnerEi>
		HAL_Delay(winScreenDuration);
 800154e:	f640 30b8 	movw	r0, #3000	; 0xbb8
 8001552:	f003 f977 	bl	8004844 <HAL_Delay>
		quit();
 8001556:	6878      	ldr	r0, [r7, #4]
 8001558:	f7ff fa7b 	bl	8000a52 <_ZN4Game4quitEv>
	}
	if (player[Player::player2].score.getPoint()
 800155c:	687b      	ldr	r3, [r7, #4]
 800155e:	333c      	adds	r3, #60	; 0x3c
 8001560:	4618      	mov	r0, r3
 8001562:	f000 fd69 	bl	8002038 <_ZN5Score8getPointEv>
 8001566:	4604      	mov	r4, r0
			== menu.settings.getPointsNeeded()) {
 8001568:	687b      	ldr	r3, [r7, #4]
 800156a:	3350      	adds	r3, #80	; 0x50
 800156c:	4618      	mov	r0, r3
 800156e:	f001 f9d1 	bl	8002914 <_ZN8Settings15getPointsNeededEv>
 8001572:	4603      	mov	r3, r0
 8001574:	429c      	cmp	r4, r3
 8001576:	bf0c      	ite	eq
 8001578:	2301      	moveq	r3, #1
 800157a:	2300      	movne	r3, #0
 800157c:	b2db      	uxtb	r3, r3
	if (player[Player::player2].score.getPoint()
 800157e:	2b00      	cmp	r3, #0
 8001580:	d00a      	beq.n	8001598 <_ZN4Game6gamingEv+0x290>
		displayWinner(Player::player2);
 8001582:	2101      	movs	r1, #1
 8001584:	6878      	ldr	r0, [r7, #4]
 8001586:	f7ff fe85 	bl	8001294 <_ZN4Game13displayWinnerEi>
		HAL_Delay(winScreenDuration);
 800158a:	f640 30b8 	movw	r0, #3000	; 0xbb8
 800158e:	f003 f959 	bl	8004844 <HAL_Delay>
		quit();
 8001592:	6878      	ldr	r0, [r7, #4]
 8001594:	f7ff fa5d 	bl	8000a52 <_ZN4Game4quitEv>
	}
//	HAL_Delay(gameDelay);
}
 8001598:	bf00      	nop
 800159a:	370c      	adds	r7, #12
 800159c:	46bd      	mov	sp, r7
 800159e:	bd90      	pop	{r4, r7, pc}

080015a0 <_ZN4GameD1Ev>:
Game::~Game() {
 80015a0:	b590      	push	{r4, r7, lr}
 80015a2:	b083      	sub	sp, #12
 80015a4:	af00      	add	r7, sp, #0
 80015a6:	6078      	str	r0, [r7, #4]
 80015a8:	4a11      	ldr	r2, [pc, #68]	; (80015f0 <_ZN4GameD1Ev+0x50>)
 80015aa:	687b      	ldr	r3, [r7, #4]
 80015ac:	601a      	str	r2, [r3, #0]
 80015ae:	687b      	ldr	r3, [r7, #4]
 80015b0:	3360      	adds	r3, #96	; 0x60
 80015b2:	4618      	mov	r0, r3
 80015b4:	f7ff f9ec 	bl	8000990 <_ZN4BallD1Ev>
 80015b8:	687b      	ldr	r3, [r7, #4]
 80015ba:	3348      	adds	r3, #72	; 0x48
 80015bc:	4618      	mov	r0, r3
 80015be:	f000 fbfb 	bl	8001db8 <_ZN4MenuD1Ev>
 80015c2:	687b      	ldr	r3, [r7, #4]
 80015c4:	3308      	adds	r3, #8
 80015c6:	2b00      	cmp	r3, #0
 80015c8:	d00d      	beq.n	80015e6 <_ZN4GameD1Ev+0x46>
 80015ca:	687b      	ldr	r3, [r7, #4]
 80015cc:	3308      	adds	r3, #8
 80015ce:	f103 0440 	add.w	r4, r3, #64	; 0x40
 80015d2:	687b      	ldr	r3, [r7, #4]
 80015d4:	3308      	adds	r3, #8
 80015d6:	429c      	cmp	r4, r3
 80015d8:	d005      	beq.n	80015e6 <_ZN4GameD1Ev+0x46>
 80015da:	3c20      	subs	r4, #32
 80015dc:	6823      	ldr	r3, [r4, #0]
 80015de:	681b      	ldr	r3, [r3, #0]
 80015e0:	4620      	mov	r0, r4
 80015e2:	4798      	blx	r3
 80015e4:	e7f5      	b.n	80015d2 <_ZN4GameD1Ev+0x32>
}
 80015e6:	687b      	ldr	r3, [r7, #4]
 80015e8:	4618      	mov	r0, r3
 80015ea:	370c      	adds	r7, #12
 80015ec:	46bd      	mov	sp, r7
 80015ee:	bd90      	pop	{r4, r7, pc}
 80015f0:	08007d4c 	.word	0x08007d4c

080015f4 <_ZN4GameD0Ev>:
Game::~Game() {
 80015f4:	b580      	push	{r7, lr}
 80015f6:	b082      	sub	sp, #8
 80015f8:	af00      	add	r7, sp, #0
 80015fa:	6078      	str	r0, [r7, #4]
}
 80015fc:	6878      	ldr	r0, [r7, #4]
 80015fe:	f7ff ffcf 	bl	80015a0 <_ZN4GameD1Ev>
 8001602:	2174      	movs	r1, #116	; 0x74
 8001604:	6878      	ldr	r0, [r7, #4]
 8001606:	f005 fe75 	bl	80072f4 <_ZdlPvj>
 800160a:	687b      	ldr	r3, [r7, #4]
 800160c:	4618      	mov	r0, r3
 800160e:	3708      	adds	r7, #8
 8001610:	46bd      	mov	sp, r7
 8001612:	bd80      	pop	{r7, pc}

08001614 <_ZL12MX_TIM4_Initi>:

static void MX_TIM4_Init(int pulse)
{
 8001614:	b580      	push	{r7, lr}
 8001616:	b090      	sub	sp, #64	; 0x40
 8001618:	af00      	add	r7, sp, #0
 800161a:	6078      	str	r0, [r7, #4]

  /* USER CODE BEGIN TIM4_Init 0 */

  /* USER CODE END TIM4_Init 0 */

  TIM_ClockConfigTypeDef sClockSourceConfig = {0};
 800161c:	f107 0330 	add.w	r3, r7, #48	; 0x30
 8001620:	2200      	movs	r2, #0
 8001622:	601a      	str	r2, [r3, #0]
 8001624:	605a      	str	r2, [r3, #4]
 8001626:	609a      	str	r2, [r3, #8]
 8001628:	60da      	str	r2, [r3, #12]
  TIM_MasterConfigTypeDef sMasterConfig = {0};
 800162a:	f107 0328 	add.w	r3, r7, #40	; 0x28
 800162e:	2200      	movs	r2, #0
 8001630:	601a      	str	r2, [r3, #0]
 8001632:	605a      	str	r2, [r3, #4]
  TIM_OC_InitTypeDef sConfigOC = {0};
 8001634:	f107 030c 	add.w	r3, r7, #12
 8001638:	2200      	movs	r2, #0
 800163a:	601a      	str	r2, [r3, #0]
 800163c:	605a      	str	r2, [r3, #4]
 800163e:	609a      	str	r2, [r3, #8]
 8001640:	60da      	str	r2, [r3, #12]
 8001642:	611a      	str	r2, [r3, #16]
 8001644:	615a      	str	r2, [r3, #20]
 8001646:	619a      	str	r2, [r3, #24]

  /* USER CODE BEGIN TIM4_Init 1 */

  /* USER CODE END TIM4_Init 1 */
  htim4.Instance = TIM4;
 8001648:	4b42      	ldr	r3, [pc, #264]	; (8001754 <_ZL12MX_TIM4_Initi+0x140>)
 800164a:	4a43      	ldr	r2, [pc, #268]	; (8001758 <_ZL12MX_TIM4_Initi+0x144>)
 800164c:	601a      	str	r2, [r3, #0]
  htim4.Init.Prescaler = 0;
 800164e:	4b41      	ldr	r3, [pc, #260]	; (8001754 <_ZL12MX_TIM4_Initi+0x140>)
 8001650:	2200      	movs	r2, #0
 8001652:	605a      	str	r2, [r3, #4]
  htim4.Init.CounterMode = TIM_COUNTERMODE_UP;
 8001654:	4b3f      	ldr	r3, [pc, #252]	; (8001754 <_ZL12MX_TIM4_Initi+0x140>)
 8001656:	2200      	movs	r2, #0
 8001658:	609a      	str	r2, [r3, #8]
  htim4.Init.Period = 19999;
 800165a:	4b3e      	ldr	r3, [pc, #248]	; (8001754 <_ZL12MX_TIM4_Initi+0x140>)
 800165c:	f644 621f 	movw	r2, #19999	; 0x4e1f
 8001660:	60da      	str	r2, [r3, #12]
  htim4.Init.ClockDivision = TIM_CLOCKDIVISION_DIV1;
 8001662:	4b3c      	ldr	r3, [pc, #240]	; (8001754 <_ZL12MX_TIM4_Initi+0x140>)
 8001664:	2200      	movs	r2, #0
 8001666:	611a      	str	r2, [r3, #16]
  htim4.Init.AutoReloadPreload = TIM_AUTORELOAD_PRELOAD_DISABLE;
 8001668:	4b3a      	ldr	r3, [pc, #232]	; (8001754 <_ZL12MX_TIM4_Initi+0x140>)
 800166a:	2200      	movs	r2, #0
 800166c:	619a      	str	r2, [r3, #24]
  if (HAL_TIM_Base_Init(&htim4) != HAL_OK)
 800166e:	4839      	ldr	r0, [pc, #228]	; (8001754 <_ZL12MX_TIM4_Initi+0x140>)
 8001670:	f004 fec3 	bl	80063fa <HAL_TIM_Base_Init>
 8001674:	4603      	mov	r3, r0
 8001676:	2b00      	cmp	r3, #0
 8001678:	bf14      	ite	ne
 800167a:	2301      	movne	r3, #1
 800167c:	2300      	moveq	r3, #0
 800167e:	b2db      	uxtb	r3, r3
 8001680:	2b00      	cmp	r3, #0
 8001682:	d001      	beq.n	8001688 <_ZL12MX_TIM4_Initi+0x74>
  {
    Error_Handler();
 8001684:	f002 fbec 	bl	8003e60 <Error_Handler>
  }
  sClockSourceConfig.ClockSource = TIM_CLOCKSOURCE_INTERNAL;
 8001688:	f44f 5380 	mov.w	r3, #4096	; 0x1000
 800168c:	633b      	str	r3, [r7, #48]	; 0x30
  if (HAL_TIM_ConfigClockSource(&htim4, &sClockSourceConfig) != HAL_OK)
 800168e:	f107 0330 	add.w	r3, r7, #48	; 0x30
 8001692:	4619      	mov	r1, r3
 8001694:	482f      	ldr	r0, [pc, #188]	; (8001754 <_ZL12MX_TIM4_Initi+0x140>)
 8001696:	f005 f943 	bl	8006920 <HAL_TIM_ConfigClockSource>
 800169a:	4603      	mov	r3, r0
 800169c:	2b00      	cmp	r3, #0
 800169e:	bf14      	ite	ne
 80016a0:	2301      	movne	r3, #1
 80016a2:	2300      	moveq	r3, #0
 80016a4:	b2db      	uxtb	r3, r3
 80016a6:	2b00      	cmp	r3, #0
 80016a8:	d001      	beq.n	80016ae <_ZL12MX_TIM4_Initi+0x9a>
  {
    Error_Handler();
 80016aa:	f002 fbd9 	bl	8003e60 <Error_Handler>
  }
  if (HAL_TIM_PWM_Init(&htim4) != HAL_OK)
 80016ae:	4829      	ldr	r0, [pc, #164]	; (8001754 <_ZL12MX_TIM4_Initi+0x140>)
 80016b0:	f004 fef2 	bl	8006498 <HAL_TIM_PWM_Init>
 80016b4:	4603      	mov	r3, r0
 80016b6:	2b00      	cmp	r3, #0
 80016b8:	bf14      	ite	ne
 80016ba:	2301      	movne	r3, #1
 80016bc:	2300      	moveq	r3, #0
 80016be:	b2db      	uxtb	r3, r3
 80016c0:	2b00      	cmp	r3, #0
 80016c2:	d001      	beq.n	80016c8 <_ZL12MX_TIM4_Initi+0xb4>
  {
    Error_Handler();
 80016c4:	f002 fbcc 	bl	8003e60 <Error_Handler>
  }
  sMasterConfig.MasterOutputTrigger = TIM_TRGO_RESET;
 80016c8:	2300      	movs	r3, #0
 80016ca:	62bb      	str	r3, [r7, #40]	; 0x28
  sMasterConfig.MasterSlaveMode = TIM_MASTERSLAVEMODE_DISABLE;
 80016cc:	2300      	movs	r3, #0
 80016ce:	62fb      	str	r3, [r7, #44]	; 0x2c
  if (HAL_TIMEx_MasterConfigSynchronization(&htim4, &sMasterConfig) != HAL_OK)
 80016d0:	f107 0328 	add.w	r3, r7, #40	; 0x28
 80016d4:	4619      	mov	r1, r3
 80016d6:	481f      	ldr	r0, [pc, #124]	; (8001754 <_ZL12MX_TIM4_Initi+0x140>)
 80016d8:	f005 fcca 	bl	8007070 <HAL_TIMEx_MasterConfigSynchronization>
 80016dc:	4603      	mov	r3, r0
 80016de:	2b00      	cmp	r3, #0
 80016e0:	bf14      	ite	ne
 80016e2:	2301      	movne	r3, #1
 80016e4:	2300      	moveq	r3, #0
 80016e6:	b2db      	uxtb	r3, r3
 80016e8:	2b00      	cmp	r3, #0
 80016ea:	d001      	beq.n	80016f0 <_ZL12MX_TIM4_Initi+0xdc>
  {
    Error_Handler();
 80016ec:	f002 fbb8 	bl	8003e60 <Error_Handler>
  }
  sConfigOC.OCMode = TIM_OCMODE_PWM1;
 80016f0:	2360      	movs	r3, #96	; 0x60
 80016f2:	60fb      	str	r3, [r7, #12]
  sConfigOC.Pulse = pulse; // pluse range 10000 - 20000
 80016f4:	687b      	ldr	r3, [r7, #4]
 80016f6:	613b      	str	r3, [r7, #16]
  sConfigOC.OCPolarity = TIM_OCPOLARITY_HIGH;
 80016f8:	2300      	movs	r3, #0
 80016fa:	617b      	str	r3, [r7, #20]
  sConfigOC.OCFastMode = TIM_OCFAST_DISABLE;
 80016fc:	2300      	movs	r3, #0
 80016fe:	61fb      	str	r3, [r7, #28]
  if (HAL_TIM_PWM_ConfigChannel(&htim4, &sConfigOC, TIM_CHANNEL_1) != HAL_OK)
 8001700:	f107 030c 	add.w	r3, r7, #12
 8001704:	2200      	movs	r2, #0
 8001706:	4619      	mov	r1, r3
 8001708:	4812      	ldr	r0, [pc, #72]	; (8001754 <_ZL12MX_TIM4_Initi+0x140>)
 800170a:	f005 f847 	bl	800679c <HAL_TIM_PWM_ConfigChannel>
 800170e:	4603      	mov	r3, r0
 8001710:	2b00      	cmp	r3, #0
 8001712:	bf14      	ite	ne
 8001714:	2301      	movne	r3, #1
 8001716:	2300      	moveq	r3, #0
 8001718:	b2db      	uxtb	r3, r3
 800171a:	2b00      	cmp	r3, #0
 800171c:	d001      	beq.n	8001722 <_ZL12MX_TIM4_Initi+0x10e>
  {
    Error_Handler();
 800171e:	f002 fb9f 	bl	8003e60 <Error_Handler>
  }
  if (HAL_TIM_PWM_ConfigChannel(&htim4, &sConfigOC, TIM_CHANNEL_2) != HAL_OK)
 8001722:	f107 030c 	add.w	r3, r7, #12
 8001726:	2204      	movs	r2, #4
 8001728:	4619      	mov	r1, r3
 800172a:	480a      	ldr	r0, [pc, #40]	; (8001754 <_ZL12MX_TIM4_Initi+0x140>)
 800172c:	f005 f836 	bl	800679c <HAL_TIM_PWM_ConfigChannel>
 8001730:	4603      	mov	r3, r0
 8001732:	2b00      	cmp	r3, #0
 8001734:	bf14      	ite	ne
 8001736:	2301      	movne	r3, #1
 8001738:	2300      	moveq	r3, #0
 800173a:	b2db      	uxtb	r3, r3
 800173c:	2b00      	cmp	r3, #0
 800173e:	d001      	beq.n	8001744 <_ZL12MX_TIM4_Initi+0x130>
  {
    Error_Handler();
 8001740:	f002 fb8e 	bl	8003e60 <Error_Handler>
  }
  /* USER CODE BEGIN TIM4_Init 2 */

  /* USER CODE END TIM4_Init 2 */
  HAL_TIM_MspPostInit(&htim4);
 8001744:	4803      	ldr	r0, [pc, #12]	; (8001754 <_ZL12MX_TIM4_Initi+0x140>)
 8001746:	f002 fc5f 	bl	8004008 <HAL_TIM_MspPostInit>

}
 800174a:	bf00      	nop
 800174c:	3740      	adds	r7, #64	; 0x40
 800174e:	46bd      	mov	sp, r7
 8001750:	bd80      	pop	{r7, pc}
 8001752:	bf00      	nop
 8001754:	200000c0 	.word	0x200000c0
 8001758:	40000800 	.word	0x40000800

0800175c <_ZN4MenuC1Ev>:
#include <Menu.h>
#include "lcd.h"
#include "xpt2046.h"
#include <stdio.h>
Menu::Menu() {
 800175c:	b580      	push	{r7, lr}
 800175e:	b082      	sub	sp, #8
 8001760:	af00      	add	r7, sp, #0
 8001762:	6078      	str	r0, [r7, #4]
 8001764:	4a07      	ldr	r2, [pc, #28]	; (8001784 <_ZN4MenuC1Ev+0x28>)
 8001766:	687b      	ldr	r3, [r7, #4]
 8001768:	601a      	str	r2, [r3, #0]
 800176a:	687b      	ldr	r3, [r7, #4]
 800176c:	3308      	adds	r3, #8
 800176e:	4618      	mov	r0, r3
 8001770:	f001 f8a2 	bl	80028b8 <_ZN8SettingsC1Ev>
	currentMenu = homeScreen;
 8001774:	687b      	ldr	r3, [r7, #4]
 8001776:	2200      	movs	r2, #0
 8001778:	605a      	str	r2, [r3, #4]
}
 800177a:	687b      	ldr	r3, [r7, #4]
 800177c:	4618      	mov	r0, r3
 800177e:	3708      	adds	r7, #8
 8001780:	46bd      	mov	sp, r7
 8001782:	bd80      	pop	{r7, pc}
 8001784:	08007d5c 	.word	0x08007d5c

08001788 <_ZN4Menu14getCurrentMenuEv>:
int Menu::getCurrentMenu() {
 8001788:	b480      	push	{r7}
 800178a:	b083      	sub	sp, #12
 800178c:	af00      	add	r7, sp, #0
 800178e:	6078      	str	r0, [r7, #4]
	return currentMenu;
 8001790:	687b      	ldr	r3, [r7, #4]
 8001792:	685b      	ldr	r3, [r3, #4]
}
 8001794:	4618      	mov	r0, r3
 8001796:	370c      	adds	r7, #12
 8001798:	46bd      	mov	sp, r7
 800179a:	bc80      	pop	{r7}
 800179c:	4770      	bx	lr
	...

080017a0 <_ZN4Menu18displayCurrentMenuEv>:
void Menu::displayCurrentMenu() {
 80017a0:	b580      	push	{r7, lr}
 80017a2:	b08a      	sub	sp, #40	; 0x28
 80017a4:	af02      	add	r7, sp, #8
 80017a6:	6078      	str	r0, [r7, #4]
	switch (currentMenu) {
 80017a8:	687b      	ldr	r3, [r7, #4]
 80017aa:	685b      	ldr	r3, [r3, #4]
 80017ac:	2b05      	cmp	r3, #5
 80017ae:	f200 81a6 	bhi.w	8001afe <_ZN4Menu18displayCurrentMenuEv+0x35e>
 80017b2:	a201      	add	r2, pc, #4	; (adr r2, 80017b8 <_ZN4Menu18displayCurrentMenuEv+0x18>)
 80017b4:	f852 f023 	ldr.w	pc, [r2, r3, lsl #2]
 80017b8:	080017d1 	.word	0x080017d1
 80017bc:	08001847 	.word	0x08001847
 80017c0:	080018bd 	.word	0x080018bd
 80017c4:	080019b7 	.word	0x080019b7
 80017c8:	08001a1d 	.word	0x08001a1d
 80017cc:	08001a99 	.word	0x08001a99
	case homeScreen:
		LCD_Clear(LCD_DispWindow_Start_COLUMN, LCD_DispWindow_Start_PAGE,
 80017d0:	2300      	movs	r3, #0
 80017d2:	9300      	str	r3, [sp, #0]
 80017d4:	f44f 73a0 	mov.w	r3, #320	; 0x140
 80017d8:	22f0      	movs	r2, #240	; 0xf0
 80017da:	2100      	movs	r1, #0
 80017dc:	2000      	movs	r0, #0
 80017de:	f001 fb0f 	bl	8002e00 <_Z9LCD_Clearttttt>
		LCD_DispWindow_COLUMN, LCD_DispWindow_PAGE, BLACK);
		LCD_DrawString(70, 40, "Extreme Pong");
 80017e2:	4ac9      	ldr	r2, [pc, #804]	; (8001b08 <_ZN4Menu18displayCurrentMenuEv+0x368>)
 80017e4:	2128      	movs	r1, #40	; 0x28
 80017e6:	2046      	movs	r0, #70	; 0x46
 80017e8:	f001 fc58 	bl	800309c <_Z14LCD_DrawStringttPKc>
		LCD_DrawEmptyRectangle(20, 80, 220, 130, WHITE);
 80017ec:	f64f 73ff 	movw	r3, #65535	; 0xffff
 80017f0:	9300      	str	r3, [sp, #0]
 80017f2:	2382      	movs	r3, #130	; 0x82
 80017f4:	22dc      	movs	r2, #220	; 0xdc
 80017f6:	2150      	movs	r1, #80	; 0x50
 80017f8:	2014      	movs	r0, #20
 80017fa:	f001 fba8 	bl	8002f4e <_Z22LCD_DrawEmptyRectanglettttt>
		LCD_DrawString(70, 100, "Single Player");
 80017fe:	4ac3      	ldr	r2, [pc, #780]	; (8001b0c <_ZN4Menu18displayCurrentMenuEv+0x36c>)
 8001800:	2164      	movs	r1, #100	; 0x64
 8001802:	2046      	movs	r0, #70	; 0x46
 8001804:	f001 fc4a 	bl	800309c <_Z14LCD_DrawStringttPKc>
		LCD_DrawEmptyRectangle(20, 160, 220, 210, WHITE);
 8001808:	f64f 73ff 	movw	r3, #65535	; 0xffff
 800180c:	9300      	str	r3, [sp, #0]
 800180e:	23d2      	movs	r3, #210	; 0xd2
 8001810:	22dc      	movs	r2, #220	; 0xdc
 8001812:	21a0      	movs	r1, #160	; 0xa0
 8001814:	2014      	movs	r0, #20
 8001816:	f001 fb9a 	bl	8002f4e <_Z22LCD_DrawEmptyRectanglettttt>
		LCD_DrawString(70, 180, "Two Player");
 800181a:	4abd      	ldr	r2, [pc, #756]	; (8001b10 <_ZN4Menu18displayCurrentMenuEv+0x370>)
 800181c:	21b4      	movs	r1, #180	; 0xb4
 800181e:	2046      	movs	r0, #70	; 0x46
 8001820:	f001 fc3c 	bl	800309c <_Z14LCD_DrawStringttPKc>
		LCD_DrawEmptyRectangle(20, 240, 220, 290, WHITE);
 8001824:	f64f 73ff 	movw	r3, #65535	; 0xffff
 8001828:	9300      	str	r3, [sp, #0]
 800182a:	f44f 7391 	mov.w	r3, #290	; 0x122
 800182e:	22dc      	movs	r2, #220	; 0xdc
 8001830:	21f0      	movs	r1, #240	; 0xf0
 8001832:	2014      	movs	r0, #20
 8001834:	f001 fb8b 	bl	8002f4e <_Z22LCD_DrawEmptyRectanglettttt>
		LCD_DrawString(70, 260, "Settings");
 8001838:	4ab6      	ldr	r2, [pc, #728]	; (8001b14 <_ZN4Menu18displayCurrentMenuEv+0x374>)
 800183a:	f44f 7182 	mov.w	r1, #260	; 0x104
 800183e:	2046      	movs	r0, #70	; 0x46
 8001840:	f001 fc2c 	bl	800309c <_Z14LCD_DrawStringttPKc>
		break;
 8001844:	e15b      	b.n	8001afe <_ZN4Menu18displayCurrentMenuEv+0x35e>
	case singlePlayerOptionsScreen:
		LCD_Clear(LCD_DispWindow_Start_COLUMN, LCD_DispWindow_Start_PAGE,
 8001846:	2300      	movs	r3, #0
 8001848:	9300      	str	r3, [sp, #0]
 800184a:	f44f 73a0 	mov.w	r3, #320	; 0x140
 800184e:	22f0      	movs	r2, #240	; 0xf0
 8001850:	2100      	movs	r1, #0
 8001852:	2000      	movs	r0, #0
 8001854:	f001 fad4 	bl	8002e00 <_Z9LCD_Clearttttt>
		LCD_DispWindow_COLUMN, LCD_DispWindow_PAGE, BLACK);
		LCD_DrawString(70, 40, "Single Player");
 8001858:	4aac      	ldr	r2, [pc, #688]	; (8001b0c <_ZN4Menu18displayCurrentMenuEv+0x36c>)
 800185a:	2128      	movs	r1, #40	; 0x28
 800185c:	2046      	movs	r0, #70	; 0x46
 800185e:	f001 fc1d 	bl	800309c <_Z14LCD_DrawStringttPKc>
		LCD_DrawEmptyRectangle(20, 80, 220, 130, WHITE);
 8001862:	f64f 73ff 	movw	r3, #65535	; 0xffff
 8001866:	9300      	str	r3, [sp, #0]
 8001868:	2382      	movs	r3, #130	; 0x82
 800186a:	22dc      	movs	r2, #220	; 0xdc
 800186c:	2150      	movs	r1, #80	; 0x50
 800186e:	2014      	movs	r0, #20
 8001870:	f001 fb6d 	bl	8002f4e <_Z22LCD_DrawEmptyRectanglettttt>
		LCD_DrawString(70, 100, "Vs Bot");
 8001874:	4aa8      	ldr	r2, [pc, #672]	; (8001b18 <_ZN4Menu18displayCurrentMenuEv+0x378>)
 8001876:	2164      	movs	r1, #100	; 0x64
 8001878:	2046      	movs	r0, #70	; 0x46
 800187a:	f001 fc0f 	bl	800309c <_Z14LCD_DrawStringttPKc>
		LCD_DrawEmptyRectangle(20, 160, 220, 210, WHITE);
 800187e:	f64f 73ff 	movw	r3, #65535	; 0xffff
 8001882:	9300      	str	r3, [sp, #0]
 8001884:	23d2      	movs	r3, #210	; 0xd2
 8001886:	22dc      	movs	r2, #220	; 0xdc
 8001888:	21a0      	movs	r1, #160	; 0xa0
 800188a:	2014      	movs	r0, #20
 800188c:	f001 fb5f 	bl	8002f4e <_Z22LCD_DrawEmptyRectanglettttt>
		LCD_DrawString(70, 180, "Vs Wall");
 8001890:	4aa2      	ldr	r2, [pc, #648]	; (8001b1c <_ZN4Menu18displayCurrentMenuEv+0x37c>)
 8001892:	21b4      	movs	r1, #180	; 0xb4
 8001894:	2046      	movs	r0, #70	; 0x46
 8001896:	f001 fc01 	bl	800309c <_Z14LCD_DrawStringttPKc>
		LCD_DrawEmptyRectangle(20, 240, 220, 290, WHITE);
 800189a:	f64f 73ff 	movw	r3, #65535	; 0xffff
 800189e:	9300      	str	r3, [sp, #0]
 80018a0:	f44f 7391 	mov.w	r3, #290	; 0x122
 80018a4:	22dc      	movs	r2, #220	; 0xdc
 80018a6:	21f0      	movs	r1, #240	; 0xf0
 80018a8:	2014      	movs	r0, #20
 80018aa:	f001 fb50 	bl	8002f4e <_Z22LCD_DrawEmptyRectanglettttt>
		LCD_DrawString(100, 260, "Back");
 80018ae:	4a9c      	ldr	r2, [pc, #624]	; (8001b20 <_ZN4Menu18displayCurrentMenuEv+0x380>)
 80018b0:	f44f 7182 	mov.w	r1, #260	; 0x104
 80018b4:	2064      	movs	r0, #100	; 0x64
 80018b6:	f001 fbf1 	bl	800309c <_Z14LCD_DrawStringttPKc>
		break;
 80018ba:	e120      	b.n	8001afe <_ZN4Menu18displayCurrentMenuEv+0x35e>
	case settingsScreen:
		char resultsDisplay[10];
		LCD_Clear(LCD_DispWindow_Start_COLUMN, LCD_DispWindow_Start_PAGE,
 80018bc:	2300      	movs	r3, #0
 80018be:	9300      	str	r3, [sp, #0]
 80018c0:	f44f 73a0 	mov.w	r3, #320	; 0x140
 80018c4:	22f0      	movs	r2, #240	; 0xf0
 80018c6:	2100      	movs	r1, #0
 80018c8:	2000      	movs	r0, #0
 80018ca:	f001 fa99 	bl	8002e00 <_Z9LCD_Clearttttt>
		LCD_DispWindow_COLUMN, LCD_DispWindow_PAGE, BLACK);

		//Victory Condition button
		LCD_DrawEmptyRectangle(20, 10, 220, 60, WHITE);
 80018ce:	f64f 73ff 	movw	r3, #65535	; 0xffff
 80018d2:	9300      	str	r3, [sp, #0]
 80018d4:	233c      	movs	r3, #60	; 0x3c
 80018d6:	22dc      	movs	r2, #220	; 0xdc
 80018d8:	210a      	movs	r1, #10
 80018da:	2014      	movs	r0, #20
 80018dc:	f001 fb37 	bl	8002f4e <_Z22LCD_DrawEmptyRectanglettttt>
		LCD_DrawString(30, 30, "Victory Condition:");
 80018e0:	4a90      	ldr	r2, [pc, #576]	; (8001b24 <_ZN4Menu18displayCurrentMenuEv+0x384>)
 80018e2:	211e      	movs	r1, #30
 80018e4:	201e      	movs	r0, #30
 80018e6:	f001 fbd9 	bl	800309c <_Z14LCD_DrawStringttPKc>
		sprintf(resultsDisplay, "%d", settings.getPointsNeeded());
 80018ea:	687b      	ldr	r3, [r7, #4]
 80018ec:	3308      	adds	r3, #8
 80018ee:	4618      	mov	r0, r3
 80018f0:	f001 f810 	bl	8002914 <_ZN8Settings15getPointsNeededEv>
 80018f4:	4602      	mov	r2, r0
 80018f6:	f107 0308 	add.w	r3, r7, #8
 80018fa:	498b      	ldr	r1, [pc, #556]	; (8001b28 <_ZN4Menu18displayCurrentMenuEv+0x388>)
 80018fc:	4618      	mov	r0, r3
 80018fe:	f005 fe23 	bl	8007548 <siprintf>
		LCD_DrawString(180, 30, resultsDisplay);
 8001902:	f107 0308 	add.w	r3, r7, #8
 8001906:	461a      	mov	r2, r3
 8001908:	211e      	movs	r1, #30
 800190a:	20b4      	movs	r0, #180	; 0xb4
 800190c:	f001 fbc6 	bl	800309c <_Z14LCD_DrawStringttPKc>

		//Ball Speed Up Rate button
		LCD_DrawEmptyRectangle(20, 80, 220, 130, WHITE);
 8001910:	f64f 73ff 	movw	r3, #65535	; 0xffff
 8001914:	9300      	str	r3, [sp, #0]
 8001916:	2382      	movs	r3, #130	; 0x82
 8001918:	22dc      	movs	r2, #220	; 0xdc
 800191a:	2150      	movs	r1, #80	; 0x50
 800191c:	2014      	movs	r0, #20
 800191e:	f001 fb16 	bl	8002f4e <_Z22LCD_DrawEmptyRectanglettttt>
		LCD_DrawString(30, 100, "Ball Speed Up Rate:");
 8001922:	4a82      	ldr	r2, [pc, #520]	; (8001b2c <_ZN4Menu18displayCurrentMenuEv+0x38c>)
 8001924:	2164      	movs	r1, #100	; 0x64
 8001926:	201e      	movs	r0, #30
 8001928:	f001 fbb8 	bl	800309c <_Z14LCD_DrawStringttPKc>
		sprintf(resultsDisplay, "%d", settings.getBallSpeedIncreaseRate());
 800192c:	687b      	ldr	r3, [r7, #4]
 800192e:	3308      	adds	r3, #8
 8001930:	4618      	mov	r0, r3
 8001932:	f001 f810 	bl	8002956 <_ZN8Settings24getBallSpeedIncreaseRateEv>
 8001936:	4602      	mov	r2, r0
 8001938:	f107 0308 	add.w	r3, r7, #8
 800193c:	497a      	ldr	r1, [pc, #488]	; (8001b28 <_ZN4Menu18displayCurrentMenuEv+0x388>)
 800193e:	4618      	mov	r0, r3
 8001940:	f005 fe02 	bl	8007548 <siprintf>
		LCD_DrawString(180, 100, resultsDisplay);
 8001944:	f107 0308 	add.w	r3, r7, #8
 8001948:	461a      	mov	r2, r3
 800194a:	2164      	movs	r1, #100	; 0x64
 800194c:	20b4      	movs	r0, #180	; 0xb4
 800194e:	f001 fba5 	bl	800309c <_Z14LCD_DrawStringttPKc>

		// Knockback button
		LCD_DrawEmptyRectangle(20, 160, 220, 210, WHITE);
 8001952:	f64f 73ff 	movw	r3, #65535	; 0xffff
 8001956:	9300      	str	r3, [sp, #0]
 8001958:	23d2      	movs	r3, #210	; 0xd2
 800195a:	22dc      	movs	r2, #220	; 0xdc
 800195c:	21a0      	movs	r1, #160	; 0xa0
 800195e:	2014      	movs	r0, #20
 8001960:	f001 faf5 	bl	8002f4e <_Z22LCD_DrawEmptyRectanglettttt>
		LCD_DrawString(30, 180, "Knockback:");
 8001964:	4a72      	ldr	r2, [pc, #456]	; (8001b30 <_ZN4Menu18displayCurrentMenuEv+0x390>)
 8001966:	21b4      	movs	r1, #180	; 0xb4
 8001968:	201e      	movs	r0, #30
 800196a:	f001 fb97 	bl	800309c <_Z14LCD_DrawStringttPKc>
		if (settings.getKnockback()) {
 800196e:	687b      	ldr	r3, [r7, #4]
 8001970:	3308      	adds	r3, #8
 8001972:	4618      	mov	r0, r3
 8001974:	f001 f80a 	bl	800298c <_ZN8Settings12getKnockbackEv>
 8001978:	4603      	mov	r3, r0
 800197a:	2b00      	cmp	r3, #0
 800197c:	d005      	beq.n	800198a <_ZN4Menu18displayCurrentMenuEv+0x1ea>
			LCD_DrawString(180, 180, "ON");
 800197e:	4a6d      	ldr	r2, [pc, #436]	; (8001b34 <_ZN4Menu18displayCurrentMenuEv+0x394>)
 8001980:	21b4      	movs	r1, #180	; 0xb4
 8001982:	20b4      	movs	r0, #180	; 0xb4
 8001984:	f001 fb8a 	bl	800309c <_Z14LCD_DrawStringttPKc>
 8001988:	e004      	b.n	8001994 <_ZN4Menu18displayCurrentMenuEv+0x1f4>
		} else {
			LCD_DrawString(180, 180, "OFF");
 800198a:	4a6b      	ldr	r2, [pc, #428]	; (8001b38 <_ZN4Menu18displayCurrentMenuEv+0x398>)
 800198c:	21b4      	movs	r1, #180	; 0xb4
 800198e:	20b4      	movs	r0, #180	; 0xb4
 8001990:	f001 fb84 	bl	800309c <_Z14LCD_DrawStringttPKc>
		}

		// Back button
		LCD_DrawEmptyRectangle(20, 240, 220, 290, WHITE);
 8001994:	f64f 73ff 	movw	r3, #65535	; 0xffff
 8001998:	9300      	str	r3, [sp, #0]
 800199a:	f44f 7391 	mov.w	r3, #290	; 0x122
 800199e:	22dc      	movs	r2, #220	; 0xdc
 80019a0:	21f0      	movs	r1, #240	; 0xf0
 80019a2:	2014      	movs	r0, #20
 80019a4:	f001 fad3 	bl	8002f4e <_Z22LCD_DrawEmptyRectanglettttt>
		LCD_DrawString(100, 260, "Back");
 80019a8:	4a5d      	ldr	r2, [pc, #372]	; (8001b20 <_ZN4Menu18displayCurrentMenuEv+0x380>)
 80019aa:	f44f 7182 	mov.w	r1, #260	; 0x104
 80019ae:	2064      	movs	r0, #100	; 0x64
 80019b0:	f001 fb74 	bl	800309c <_Z14LCD_DrawStringttPKc>
		break;
 80019b4:	e0a3      	b.n	8001afe <_ZN4Menu18displayCurrentMenuEv+0x35e>
	case vsBotGame:
		LCD_Clear(LCD_DispWindow_Start_COLUMN, LCD_DispWindow_Start_PAGE,
 80019b6:	2300      	movs	r3, #0
 80019b8:	9300      	str	r3, [sp, #0]
 80019ba:	f44f 73a0 	mov.w	r3, #320	; 0x140
 80019be:	22f0      	movs	r2, #240	; 0xf0
 80019c0:	2100      	movs	r1, #0
 80019c2:	2000      	movs	r0, #0
 80019c4:	f001 fa1c 	bl	8002e00 <_Z9LCD_Clearttttt>
		LCD_DispWindow_COLUMN, LCD_DispWindow_PAGE, BLACK);
		for (int i=0; i <= wallWidith; i++) {
 80019c8:	2300      	movs	r3, #0
 80019ca:	61fb      	str	r3, [r7, #28]
 80019cc:	69fb      	ldr	r3, [r7, #28]
 80019ce:	2b03      	cmp	r3, #3
 80019d0:	dc21      	bgt.n	8001a16 <_ZN4Menu18displayCurrentMenuEv+0x276>
			LCD_DrawLine(LCD_DispWindow_Start_COLUMN + i,
 80019d2:	69fb      	ldr	r3, [r7, #28]
 80019d4:	b298      	uxth	r0, r3
 80019d6:	69fb      	ldr	r3, [r7, #28]
 80019d8:	b29a      	uxth	r2, r3
 80019da:	f64f 73ff 	movw	r3, #65535	; 0xffff
 80019de:	9300      	str	r3, [sp, #0]
 80019e0:	f44f 73a0 	mov.w	r3, #320	; 0x140
 80019e4:	2100      	movs	r1, #0
 80019e6:	f001 fa2e 	bl	8002e46 <_Z12LCD_DrawLinettttt>
					LCD_DispWindow_Start_PAGE, LCD_DispWindow_Start_COLUMN + i,
					LCD_DispWindow_PAGE, WHITE);
			LCD_DrawLine(LCD_DispWindow_COLUMN - i, LCD_DispWindow_Start_PAGE,
 80019ea:	69fb      	ldr	r3, [r7, #28]
 80019ec:	b29b      	uxth	r3, r3
 80019ee:	f1c3 03f0 	rsb	r3, r3, #240	; 0xf0
 80019f2:	b298      	uxth	r0, r3
 80019f4:	69fb      	ldr	r3, [r7, #28]
 80019f6:	b29b      	uxth	r3, r3
 80019f8:	f1c3 03f0 	rsb	r3, r3, #240	; 0xf0
 80019fc:	b29a      	uxth	r2, r3
 80019fe:	f64f 73ff 	movw	r3, #65535	; 0xffff
 8001a02:	9300      	str	r3, [sp, #0]
 8001a04:	f44f 73a0 	mov.w	r3, #320	; 0x140
 8001a08:	2100      	movs	r1, #0
 8001a0a:	f001 fa1c 	bl	8002e46 <_Z12LCD_DrawLinettttt>
		for (int i=0; i <= wallWidith; i++) {
 8001a0e:	69fb      	ldr	r3, [r7, #28]
 8001a10:	3301      	adds	r3, #1
 8001a12:	61fb      	str	r3, [r7, #28]
 8001a14:	e7da      	b.n	80019cc <_ZN4Menu18displayCurrentMenuEv+0x22c>
					LCD_DispWindow_COLUMN - i, LCD_DispWindow_PAGE, WHITE);
		}
		LCD_DrawNet();
 8001a16:	f001 fef1 	bl	80037fc <_Z11LCD_DrawNetv>
		break;
 8001a1a:	e070      	b.n	8001afe <_ZN4Menu18displayCurrentMenuEv+0x35e>
	case vsWallGame:
		LCD_Clear(LCD_DispWindow_Start_COLUMN, LCD_DispWindow_Start_PAGE,
 8001a1c:	2300      	movs	r3, #0
 8001a1e:	9300      	str	r3, [sp, #0]
 8001a20:	f44f 73a0 	mov.w	r3, #320	; 0x140
 8001a24:	22f0      	movs	r2, #240	; 0xf0
 8001a26:	2100      	movs	r1, #0
 8001a28:	2000      	movs	r0, #0
 8001a2a:	f001 f9e9 	bl	8002e00 <_Z9LCD_Clearttttt>
		LCD_DispWindow_COLUMN, LCD_DispWindow_PAGE, BLACK);

		for (int i=0; i <= wallWidith; i++) {
 8001a2e:	2300      	movs	r3, #0
 8001a30:	61bb      	str	r3, [r7, #24]
 8001a32:	69bb      	ldr	r3, [r7, #24]
 8001a34:	2b03      	cmp	r3, #3
 8001a36:	dc2c      	bgt.n	8001a92 <_ZN4Menu18displayCurrentMenuEv+0x2f2>
			LCD_DrawLine(LCD_DispWindow_Start_COLUMN + i,
 8001a38:	69bb      	ldr	r3, [r7, #24]
 8001a3a:	b298      	uxth	r0, r3
 8001a3c:	69bb      	ldr	r3, [r7, #24]
 8001a3e:	b29a      	uxth	r2, r3
 8001a40:	f64f 73ff 	movw	r3, #65535	; 0xffff
 8001a44:	9300      	str	r3, [sp, #0]
 8001a46:	f44f 73a0 	mov.w	r3, #320	; 0x140
 8001a4a:	2100      	movs	r1, #0
 8001a4c:	f001 f9fb 	bl	8002e46 <_Z12LCD_DrawLinettttt>
					LCD_DispWindow_Start_PAGE, LCD_DispWindow_Start_COLUMN + i,
					LCD_DispWindow_PAGE, WHITE);
			LCD_DrawLine(LCD_DispWindow_COLUMN - i, LCD_DispWindow_Start_PAGE,
 8001a50:	69bb      	ldr	r3, [r7, #24]
 8001a52:	b29b      	uxth	r3, r3
 8001a54:	f1c3 03f0 	rsb	r3, r3, #240	; 0xf0
 8001a58:	b298      	uxth	r0, r3
 8001a5a:	69bb      	ldr	r3, [r7, #24]
 8001a5c:	b29b      	uxth	r3, r3
 8001a5e:	f1c3 03f0 	rsb	r3, r3, #240	; 0xf0
 8001a62:	b29a      	uxth	r2, r3
 8001a64:	f64f 73ff 	movw	r3, #65535	; 0xffff
 8001a68:	9300      	str	r3, [sp, #0]
 8001a6a:	f44f 73a0 	mov.w	r3, #320	; 0x140
 8001a6e:	2100      	movs	r1, #0
 8001a70:	f001 f9e9 	bl	8002e46 <_Z12LCD_DrawLinettttt>
					LCD_DispWindow_COLUMN - i, LCD_DispWindow_PAGE, WHITE);
			LCD_DrawLine(LCD_DispWindow_Start_COLUMN,
 8001a74:	69bb      	ldr	r3, [r7, #24]
 8001a76:	b299      	uxth	r1, r3
 8001a78:	69bb      	ldr	r3, [r7, #24]
 8001a7a:	b29b      	uxth	r3, r3
 8001a7c:	f64f 72ff 	movw	r2, #65535	; 0xffff
 8001a80:	9200      	str	r2, [sp, #0]
 8001a82:	22f0      	movs	r2, #240	; 0xf0
 8001a84:	2000      	movs	r0, #0
 8001a86:	f001 f9de 	bl	8002e46 <_Z12LCD_DrawLinettttt>
		for (int i=0; i <= wallWidith; i++) {
 8001a8a:	69bb      	ldr	r3, [r7, #24]
 8001a8c:	3301      	adds	r3, #1
 8001a8e:	61bb      	str	r3, [r7, #24]
 8001a90:	e7cf      	b.n	8001a32 <_ZN4Menu18displayCurrentMenuEv+0x292>
					LCD_DispWindow_Start_PAGE + i, LCD_DispWindow_COLUMN,
					LCD_DispWindow_Start_PAGE + i, WHITE);
		}
		LCD_DrawNet();
 8001a92:	f001 feb3 	bl	80037fc <_Z11LCD_DrawNetv>
		break;
 8001a96:	e032      	b.n	8001afe <_ZN4Menu18displayCurrentMenuEv+0x35e>
	case twoPlayersGame:
		LCD_Clear(LCD_DispWindow_Start_COLUMN, LCD_DispWindow_Start_PAGE,
 8001a98:	2300      	movs	r3, #0
 8001a9a:	9300      	str	r3, [sp, #0]
 8001a9c:	f44f 73a0 	mov.w	r3, #320	; 0x140
 8001aa0:	22f0      	movs	r2, #240	; 0xf0
 8001aa2:	2100      	movs	r1, #0
 8001aa4:	2000      	movs	r0, #0
 8001aa6:	f001 f9ab 	bl	8002e00 <_Z9LCD_Clearttttt>
		LCD_DispWindow_COLUMN, LCD_DispWindow_PAGE, BLACK);
		for (int i=0; i <= wallWidith; i++) {
 8001aaa:	2300      	movs	r3, #0
 8001aac:	617b      	str	r3, [r7, #20]
 8001aae:	697b      	ldr	r3, [r7, #20]
 8001ab0:	2b03      	cmp	r3, #3
 8001ab2:	dc21      	bgt.n	8001af8 <_ZN4Menu18displayCurrentMenuEv+0x358>
			LCD_DrawLine(LCD_DispWindow_Start_COLUMN + i,
 8001ab4:	697b      	ldr	r3, [r7, #20]
 8001ab6:	b298      	uxth	r0, r3
 8001ab8:	697b      	ldr	r3, [r7, #20]
 8001aba:	b29a      	uxth	r2, r3
 8001abc:	f64f 73ff 	movw	r3, #65535	; 0xffff
 8001ac0:	9300      	str	r3, [sp, #0]
 8001ac2:	f44f 73a0 	mov.w	r3, #320	; 0x140
 8001ac6:	2100      	movs	r1, #0
 8001ac8:	f001 f9bd 	bl	8002e46 <_Z12LCD_DrawLinettttt>
					LCD_DispWindow_Start_PAGE, LCD_DispWindow_Start_COLUMN + i,
					LCD_DispWindow_PAGE, WHITE);
			LCD_DrawLine(LCD_DispWindow_COLUMN - i, LCD_DispWindow_Start_PAGE,
 8001acc:	697b      	ldr	r3, [r7, #20]
 8001ace:	b29b      	uxth	r3, r3
 8001ad0:	f1c3 03f0 	rsb	r3, r3, #240	; 0xf0
 8001ad4:	b298      	uxth	r0, r3
 8001ad6:	697b      	ldr	r3, [r7, #20]
 8001ad8:	b29b      	uxth	r3, r3
 8001ada:	f1c3 03f0 	rsb	r3, r3, #240	; 0xf0
 8001ade:	b29a      	uxth	r2, r3
 8001ae0:	f64f 73ff 	movw	r3, #65535	; 0xffff
 8001ae4:	9300      	str	r3, [sp, #0]
 8001ae6:	f44f 73a0 	mov.w	r3, #320	; 0x140
 8001aea:	2100      	movs	r1, #0
 8001aec:	f001 f9ab 	bl	8002e46 <_Z12LCD_DrawLinettttt>
		for (int i=0; i <= wallWidith; i++) {
 8001af0:	697b      	ldr	r3, [r7, #20]
 8001af2:	3301      	adds	r3, #1
 8001af4:	617b      	str	r3, [r7, #20]
 8001af6:	e7da      	b.n	8001aae <_ZN4Menu18displayCurrentMenuEv+0x30e>
					LCD_DispWindow_COLUMN - i, LCD_DispWindow_PAGE, WHITE);
		}
		LCD_DrawNet();
 8001af8:	f001 fe80 	bl	80037fc <_Z11LCD_DrawNetv>
		break;
 8001afc:	bf00      	nop
	default:
		;
	}
}
 8001afe:	bf00      	nop
 8001b00:	3720      	adds	r7, #32
 8001b02:	46bd      	mov	sp, r7
 8001b04:	bd80      	pop	{r7, pc}
 8001b06:	bf00      	nop
 8001b08:	08007c98 	.word	0x08007c98
 8001b0c:	08007ca8 	.word	0x08007ca8
 8001b10:	08007cb8 	.word	0x08007cb8
 8001b14:	08007cc4 	.word	0x08007cc4
 8001b18:	08007cd0 	.word	0x08007cd0
 8001b1c:	08007cd8 	.word	0x08007cd8
 8001b20:	08007ce0 	.word	0x08007ce0
 8001b24:	08007ce8 	.word	0x08007ce8
 8001b28:	08007cfc 	.word	0x08007cfc
 8001b2c:	08007d00 	.word	0x08007d00
 8001b30:	08007d14 	.word	0x08007d14
 8001b34:	08007d20 	.word	0x08007d20
 8001b38:	08007d24 	.word	0x08007d24

08001b3c <_ZN4Menu14setCurrentMenuEi>:
void Menu::setCurrentMenu(int menu) {
 8001b3c:	b580      	push	{r7, lr}
 8001b3e:	b082      	sub	sp, #8
 8001b40:	af00      	add	r7, sp, #0
 8001b42:	6078      	str	r0, [r7, #4]
 8001b44:	6039      	str	r1, [r7, #0]
	currentMenu = menu;
 8001b46:	687b      	ldr	r3, [r7, #4]
 8001b48:	683a      	ldr	r2, [r7, #0]
 8001b4a:	605a      	str	r2, [r3, #4]
	displayCurrentMenu();
 8001b4c:	6878      	ldr	r0, [r7, #4]
 8001b4e:	f7ff fe27 	bl	80017a0 <_ZN4Menu18displayCurrentMenuEv>
}
 8001b52:	bf00      	nop
 8001b54:	3708      	adds	r7, #8
 8001b56:	46bd      	mov	sp, r7
 8001b58:	bd80      	pop	{r7, pc}
	...

08001b5c <_ZN4Menu16onClickListienerEv>:
void Menu::onClickListiener() {
 8001b5c:	b580      	push	{r7, lr}
 8001b5e:	b086      	sub	sp, #24
 8001b60:	af00      	add	r7, sp, #0
 8001b62:	6078      	str	r0, [r7, #4]
	strType_XPT2046_Coordinate strDisplayCoordinate;
	if (!XPT2046_Get_TouchedPoint(&strDisplayCoordinate,
 8001b64:	f107 0314 	add.w	r3, r7, #20
 8001b68:	498d      	ldr	r1, [pc, #564]	; (8001da0 <_ZN4Menu16onClickListienerEv+0x244>)
 8001b6a:	4618      	mov	r0, r3
 8001b6c:	f002 fd56 	bl	800461c <_Z24XPT2046_Get_TouchedPointP26strType_XPT2046_CoordinateP25strType_XPT2046_TouchPara>
 8001b70:	4603      	mov	r3, r0
 8001b72:	2b00      	cmp	r3, #0
 8001b74:	bf0c      	ite	eq
 8001b76:	2301      	moveq	r3, #1
 8001b78:	2300      	movne	r3, #0
 8001b7a:	b2db      	uxtb	r3, r3
 8001b7c:	2b00      	cmp	r3, #0
 8001b7e:	f040 8105 	bne.w	8001d8c <_ZN4Menu16onClickListienerEv+0x230>
			&strXPT2046_TouchPara)) {
		return;
	}
	switch (currentMenu) {
 8001b82:	687b      	ldr	r3, [r7, #4]
 8001b84:	685b      	ldr	r3, [r3, #4]
 8001b86:	2b02      	cmp	r3, #2
 8001b88:	d073      	beq.n	8001c72 <_ZN4Menu16onClickListienerEv+0x116>
 8001b8a:	2b02      	cmp	r3, #2
 8001b8c:	f300 8105 	bgt.w	8001d9a <_ZN4Menu16onClickListienerEv+0x23e>
 8001b90:	2b00      	cmp	r3, #0
 8001b92:	d002      	beq.n	8001b9a <_ZN4Menu16onClickListienerEv+0x3e>
 8001b94:	2b01      	cmp	r3, #1
 8001b96:	d036      	beq.n	8001c06 <_ZN4Menu16onClickListienerEv+0xaa>
 8001b98:	e0ff      	b.n	8001d9a <_ZN4Menu16onClickListienerEv+0x23e>
	case homeScreen:
		if (((strDisplayCoordinate.y > 80) && (strDisplayCoordinate.y < 130))
 8001b9a:	8afb      	ldrh	r3, [r7, #22]
 8001b9c:	2b50      	cmp	r3, #80	; 0x50
 8001b9e:	d90c      	bls.n	8001bba <_ZN4Menu16onClickListienerEv+0x5e>
 8001ba0:	8afb      	ldrh	r3, [r7, #22]
 8001ba2:	2b81      	cmp	r3, #129	; 0x81
 8001ba4:	d809      	bhi.n	8001bba <_ZN4Menu16onClickListienerEv+0x5e>
				&& ((strDisplayCoordinate.x > 20)
 8001ba6:	8abb      	ldrh	r3, [r7, #20]
 8001ba8:	2b14      	cmp	r3, #20
 8001baa:	d906      	bls.n	8001bba <_ZN4Menu16onClickListienerEv+0x5e>
						&& (strDisplayCoordinate.x < 220))) {
 8001bac:	8abb      	ldrh	r3, [r7, #20]
 8001bae:	2bdb      	cmp	r3, #219	; 0xdb
 8001bb0:	d803      	bhi.n	8001bba <_ZN4Menu16onClickListienerEv+0x5e>
			setCurrentMenu(singlePlayerOptionsScreen);
 8001bb2:	2101      	movs	r1, #1
 8001bb4:	6878      	ldr	r0, [r7, #4]
 8001bb6:	f7ff ffc1 	bl	8001b3c <_ZN4Menu14setCurrentMenuEi>
		}
		if (((strDisplayCoordinate.y > 160) && (strDisplayCoordinate.y < 210))
 8001bba:	8afb      	ldrh	r3, [r7, #22]
 8001bbc:	2ba0      	cmp	r3, #160	; 0xa0
 8001bbe:	d90c      	bls.n	8001bda <_ZN4Menu16onClickListienerEv+0x7e>
 8001bc0:	8afb      	ldrh	r3, [r7, #22]
 8001bc2:	2bd1      	cmp	r3, #209	; 0xd1
 8001bc4:	d809      	bhi.n	8001bda <_ZN4Menu16onClickListienerEv+0x7e>
				&& ((strDisplayCoordinate.x > 20)
 8001bc6:	8abb      	ldrh	r3, [r7, #20]
 8001bc8:	2b14      	cmp	r3, #20
 8001bca:	d906      	bls.n	8001bda <_ZN4Menu16onClickListienerEv+0x7e>
						&& (strDisplayCoordinate.x < 220))) {
 8001bcc:	8abb      	ldrh	r3, [r7, #20]
 8001bce:	2bdb      	cmp	r3, #219	; 0xdb
 8001bd0:	d803      	bhi.n	8001bda <_ZN4Menu16onClickListienerEv+0x7e>
			setCurrentMenu(twoPlayersGame);
 8001bd2:	2105      	movs	r1, #5
 8001bd4:	6878      	ldr	r0, [r7, #4]
 8001bd6:	f7ff ffb1 	bl	8001b3c <_ZN4Menu14setCurrentMenuEi>
		}
		if (((strDisplayCoordinate.y > 240) && (strDisplayCoordinate.y < 290))
 8001bda:	8afb      	ldrh	r3, [r7, #22]
 8001bdc:	2bf0      	cmp	r3, #240	; 0xf0
 8001bde:	f240 80d7 	bls.w	8001d90 <_ZN4Menu16onClickListienerEv+0x234>
 8001be2:	8afb      	ldrh	r3, [r7, #22]
 8001be4:	f5b3 7f91 	cmp.w	r3, #290	; 0x122
 8001be8:	f080 80d2 	bcs.w	8001d90 <_ZN4Menu16onClickListienerEv+0x234>
				&& ((strDisplayCoordinate.x > 20)
 8001bec:	8abb      	ldrh	r3, [r7, #20]
 8001bee:	2b14      	cmp	r3, #20
 8001bf0:	f240 80ce 	bls.w	8001d90 <_ZN4Menu16onClickListienerEv+0x234>
						&& (strDisplayCoordinate.x < 220))) {
 8001bf4:	8abb      	ldrh	r3, [r7, #20]
 8001bf6:	2bdb      	cmp	r3, #219	; 0xdb
 8001bf8:	f200 80ca 	bhi.w	8001d90 <_ZN4Menu16onClickListienerEv+0x234>
			setCurrentMenu(settingsScreen);
 8001bfc:	2102      	movs	r1, #2
 8001bfe:	6878      	ldr	r0, [r7, #4]
 8001c00:	f7ff ff9c 	bl	8001b3c <_ZN4Menu14setCurrentMenuEi>
		}

		break;
 8001c04:	e0c4      	b.n	8001d90 <_ZN4Menu16onClickListienerEv+0x234>
	case singlePlayerOptionsScreen:
		if (((strDisplayCoordinate.y > 80) && (strDisplayCoordinate.y < 130))
 8001c06:	8afb      	ldrh	r3, [r7, #22]
 8001c08:	2b50      	cmp	r3, #80	; 0x50
 8001c0a:	d90c      	bls.n	8001c26 <_ZN4Menu16onClickListienerEv+0xca>
 8001c0c:	8afb      	ldrh	r3, [r7, #22]
 8001c0e:	2b81      	cmp	r3, #129	; 0x81
 8001c10:	d809      	bhi.n	8001c26 <_ZN4Menu16onClickListienerEv+0xca>
				&& ((strDisplayCoordinate.x > 20)
 8001c12:	8abb      	ldrh	r3, [r7, #20]
 8001c14:	2b14      	cmp	r3, #20
 8001c16:	d906      	bls.n	8001c26 <_ZN4Menu16onClickListienerEv+0xca>
						&& (strDisplayCoordinate.x < 220))) {
 8001c18:	8abb      	ldrh	r3, [r7, #20]
 8001c1a:	2bdb      	cmp	r3, #219	; 0xdb
 8001c1c:	d803      	bhi.n	8001c26 <_ZN4Menu16onClickListienerEv+0xca>
			setCurrentMenu(vsBotGame);
 8001c1e:	2103      	movs	r1, #3
 8001c20:	6878      	ldr	r0, [r7, #4]
 8001c22:	f7ff ff8b 	bl	8001b3c <_ZN4Menu14setCurrentMenuEi>
		}
		if (((strDisplayCoordinate.y > 160) && (strDisplayCoordinate.y < 210))
 8001c26:	8afb      	ldrh	r3, [r7, #22]
 8001c28:	2ba0      	cmp	r3, #160	; 0xa0
 8001c2a:	d90c      	bls.n	8001c46 <_ZN4Menu16onClickListienerEv+0xea>
 8001c2c:	8afb      	ldrh	r3, [r7, #22]
 8001c2e:	2bd1      	cmp	r3, #209	; 0xd1
 8001c30:	d809      	bhi.n	8001c46 <_ZN4Menu16onClickListienerEv+0xea>
				&& ((strDisplayCoordinate.x > 20)
 8001c32:	8abb      	ldrh	r3, [r7, #20]
 8001c34:	2b14      	cmp	r3, #20
 8001c36:	d906      	bls.n	8001c46 <_ZN4Menu16onClickListienerEv+0xea>
						&& (strDisplayCoordinate.x < 220))) {
 8001c38:	8abb      	ldrh	r3, [r7, #20]
 8001c3a:	2bdb      	cmp	r3, #219	; 0xdb
 8001c3c:	d803      	bhi.n	8001c46 <_ZN4Menu16onClickListienerEv+0xea>
			setCurrentMenu(vsWallGame);
 8001c3e:	2104      	movs	r1, #4
 8001c40:	6878      	ldr	r0, [r7, #4]
 8001c42:	f7ff ff7b 	bl	8001b3c <_ZN4Menu14setCurrentMenuEi>
		}
		if (((strDisplayCoordinate.y > 240) && (strDisplayCoordinate.y < 290))
 8001c46:	8afb      	ldrh	r3, [r7, #22]
 8001c48:	2bf0      	cmp	r3, #240	; 0xf0
 8001c4a:	f240 80a3 	bls.w	8001d94 <_ZN4Menu16onClickListienerEv+0x238>
 8001c4e:	8afb      	ldrh	r3, [r7, #22]
 8001c50:	f5b3 7f91 	cmp.w	r3, #290	; 0x122
 8001c54:	f080 809e 	bcs.w	8001d94 <_ZN4Menu16onClickListienerEv+0x238>
				&& ((strDisplayCoordinate.x > 20)
 8001c58:	8abb      	ldrh	r3, [r7, #20]
 8001c5a:	2b14      	cmp	r3, #20
 8001c5c:	f240 809a 	bls.w	8001d94 <_ZN4Menu16onClickListienerEv+0x238>
						&& (strDisplayCoordinate.x < 220))) {
 8001c60:	8abb      	ldrh	r3, [r7, #20]
 8001c62:	2bdb      	cmp	r3, #219	; 0xdb
 8001c64:	f200 8096 	bhi.w	8001d94 <_ZN4Menu16onClickListienerEv+0x238>
			setCurrentMenu(homeScreen);
 8001c68:	2100      	movs	r1, #0
 8001c6a:	6878      	ldr	r0, [r7, #4]
 8001c6c:	f7ff ff66 	bl	8001b3c <_ZN4Menu14setCurrentMenuEi>
		}
		break;
 8001c70:	e090      	b.n	8001d94 <_ZN4Menu16onClickListienerEv+0x238>
	case settingsScreen:
		char resultsDisplay[10];

		//Victory Condition button listener
		if (((strDisplayCoordinate.y > 10) && (strDisplayCoordinate.y < 60))
 8001c72:	8afb      	ldrh	r3, [r7, #22]
 8001c74:	2b0a      	cmp	r3, #10
 8001c76:	d925      	bls.n	8001cc4 <_ZN4Menu16onClickListienerEv+0x168>
 8001c78:	8afb      	ldrh	r3, [r7, #22]
 8001c7a:	2b3b      	cmp	r3, #59	; 0x3b
 8001c7c:	d822      	bhi.n	8001cc4 <_ZN4Menu16onClickListienerEv+0x168>
				&& ((strDisplayCoordinate.x > 20)
 8001c7e:	8abb      	ldrh	r3, [r7, #20]
 8001c80:	2b14      	cmp	r3, #20
 8001c82:	d91f      	bls.n	8001cc4 <_ZN4Menu16onClickListienerEv+0x168>
						&& (strDisplayCoordinate.x < 220))) {
 8001c84:	8abb      	ldrh	r3, [r7, #20]
 8001c86:	2bdb      	cmp	r3, #219	; 0xdb
 8001c88:	d81c      	bhi.n	8001cc4 <_ZN4Menu16onClickListienerEv+0x168>
			settings.setPointsNeeded();
 8001c8a:	687b      	ldr	r3, [r7, #4]
 8001c8c:	3308      	adds	r3, #8
 8001c8e:	4618      	mov	r0, r3
 8001c90:	f000 fe2a 	bl	80028e8 <_ZN8Settings15setPointsNeededEv>
			sprintf(resultsDisplay, "%d", settings.getPointsNeeded());
 8001c94:	687b      	ldr	r3, [r7, #4]
 8001c96:	3308      	adds	r3, #8
 8001c98:	4618      	mov	r0, r3
 8001c9a:	f000 fe3b 	bl	8002914 <_ZN8Settings15getPointsNeededEv>
 8001c9e:	4602      	mov	r2, r0
 8001ca0:	f107 0308 	add.w	r3, r7, #8
 8001ca4:	493f      	ldr	r1, [pc, #252]	; (8001da4 <_ZN4Menu16onClickListienerEv+0x248>)
 8001ca6:	4618      	mov	r0, r3
 8001ca8:	f005 fc4e 	bl	8007548 <siprintf>
			LCD_DrawString(180, 30, "   ");
 8001cac:	4a3e      	ldr	r2, [pc, #248]	; (8001da8 <_ZN4Menu16onClickListienerEv+0x24c>)
 8001cae:	211e      	movs	r1, #30
 8001cb0:	20b4      	movs	r0, #180	; 0xb4
 8001cb2:	f001 f9f3 	bl	800309c <_Z14LCD_DrawStringttPKc>
			LCD_DrawString(180, 30, resultsDisplay);
 8001cb6:	f107 0308 	add.w	r3, r7, #8
 8001cba:	461a      	mov	r2, r3
 8001cbc:	211e      	movs	r1, #30
 8001cbe:	20b4      	movs	r0, #180	; 0xb4
 8001cc0:	f001 f9ec 	bl	800309c <_Z14LCD_DrawStringttPKc>
		}

		//Ball Speed Up Rate button listener
		if (((strDisplayCoordinate.y > 80) && (strDisplayCoordinate.y < 130))
 8001cc4:	8afb      	ldrh	r3, [r7, #22]
 8001cc6:	2b50      	cmp	r3, #80	; 0x50
 8001cc8:	d925      	bls.n	8001d16 <_ZN4Menu16onClickListienerEv+0x1ba>
 8001cca:	8afb      	ldrh	r3, [r7, #22]
 8001ccc:	2b81      	cmp	r3, #129	; 0x81
 8001cce:	d822      	bhi.n	8001d16 <_ZN4Menu16onClickListienerEv+0x1ba>
				&& ((strDisplayCoordinate.x > 20)
 8001cd0:	8abb      	ldrh	r3, [r7, #20]
 8001cd2:	2b14      	cmp	r3, #20
 8001cd4:	d91f      	bls.n	8001d16 <_ZN4Menu16onClickListienerEv+0x1ba>
						&& (strDisplayCoordinate.x < 220))) {
 8001cd6:	8abb      	ldrh	r3, [r7, #20]
 8001cd8:	2bdb      	cmp	r3, #219	; 0xdb
 8001cda:	d81c      	bhi.n	8001d16 <_ZN4Menu16onClickListienerEv+0x1ba>
			settings.setBallSpeedIncreaseRate();
 8001cdc:	687b      	ldr	r3, [r7, #4]
 8001cde:	3308      	adds	r3, #8
 8001ce0:	4618      	mov	r0, r3
 8001ce2:	f000 fe22 	bl	800292a <_ZN8Settings24setBallSpeedIncreaseRateEv>
			sprintf(resultsDisplay, "%d",
 8001ce6:	687b      	ldr	r3, [r7, #4]
 8001ce8:	3308      	adds	r3, #8
 8001cea:	4618      	mov	r0, r3
 8001cec:	f000 fe33 	bl	8002956 <_ZN8Settings24getBallSpeedIncreaseRateEv>
 8001cf0:	4602      	mov	r2, r0
 8001cf2:	f107 0308 	add.w	r3, r7, #8
 8001cf6:	492b      	ldr	r1, [pc, #172]	; (8001da4 <_ZN4Menu16onClickListienerEv+0x248>)
 8001cf8:	4618      	mov	r0, r3
 8001cfa:	f005 fc25 	bl	8007548 <siprintf>
					settings.getBallSpeedIncreaseRate());
			LCD_DrawString(180, 100, "    ");
 8001cfe:	4a2b      	ldr	r2, [pc, #172]	; (8001dac <_ZN4Menu16onClickListienerEv+0x250>)
 8001d00:	2164      	movs	r1, #100	; 0x64
 8001d02:	20b4      	movs	r0, #180	; 0xb4
 8001d04:	f001 f9ca 	bl	800309c <_Z14LCD_DrawStringttPKc>
			LCD_DrawString(180, 100, resultsDisplay);
 8001d08:	f107 0308 	add.w	r3, r7, #8
 8001d0c:	461a      	mov	r2, r3
 8001d0e:	2164      	movs	r1, #100	; 0x64
 8001d10:	20b4      	movs	r0, #180	; 0xb4
 8001d12:	f001 f9c3 	bl	800309c <_Z14LCD_DrawStringttPKc>
		}

		// Knockback button listener
		if (((strDisplayCoordinate.y > 160) && (strDisplayCoordinate.y < 210))
 8001d16:	8afb      	ldrh	r3, [r7, #22]
 8001d18:	2ba0      	cmp	r3, #160	; 0xa0
 8001d1a:	d925      	bls.n	8001d68 <_ZN4Menu16onClickListienerEv+0x20c>
 8001d1c:	8afb      	ldrh	r3, [r7, #22]
 8001d1e:	2bd1      	cmp	r3, #209	; 0xd1
 8001d20:	d822      	bhi.n	8001d68 <_ZN4Menu16onClickListienerEv+0x20c>
				&& ((strDisplayCoordinate.x > 20)
 8001d22:	8abb      	ldrh	r3, [r7, #20]
 8001d24:	2b14      	cmp	r3, #20
 8001d26:	d91f      	bls.n	8001d68 <_ZN4Menu16onClickListienerEv+0x20c>
						&& (strDisplayCoordinate.x < 220))) {
 8001d28:	8abb      	ldrh	r3, [r7, #20]
 8001d2a:	2bdb      	cmp	r3, #219	; 0xdb
 8001d2c:	d81c      	bhi.n	8001d68 <_ZN4Menu16onClickListienerEv+0x20c>
			settings.setKnockback();
 8001d2e:	687b      	ldr	r3, [r7, #4]
 8001d30:	3308      	adds	r3, #8
 8001d32:	4618      	mov	r0, r3
 8001d34:	f000 fe1a 	bl	800296c <_ZN8Settings12setKnockbackEv>
			LCD_DrawString(180, 180, "   ");
 8001d38:	4a1b      	ldr	r2, [pc, #108]	; (8001da8 <_ZN4Menu16onClickListienerEv+0x24c>)
 8001d3a:	21b4      	movs	r1, #180	; 0xb4
 8001d3c:	20b4      	movs	r0, #180	; 0xb4
 8001d3e:	f001 f9ad 	bl	800309c <_Z14LCD_DrawStringttPKc>
			if (settings.getKnockback()) {
 8001d42:	687b      	ldr	r3, [r7, #4]
 8001d44:	3308      	adds	r3, #8
 8001d46:	4618      	mov	r0, r3
 8001d48:	f000 fe20 	bl	800298c <_ZN8Settings12getKnockbackEv>
 8001d4c:	4603      	mov	r3, r0
 8001d4e:	2b00      	cmp	r3, #0
 8001d50:	d005      	beq.n	8001d5e <_ZN4Menu16onClickListienerEv+0x202>
				LCD_DrawString(180, 180, "ON");
 8001d52:	4a17      	ldr	r2, [pc, #92]	; (8001db0 <_ZN4Menu16onClickListienerEv+0x254>)
 8001d54:	21b4      	movs	r1, #180	; 0xb4
 8001d56:	20b4      	movs	r0, #180	; 0xb4
 8001d58:	f001 f9a0 	bl	800309c <_Z14LCD_DrawStringttPKc>
 8001d5c:	e004      	b.n	8001d68 <_ZN4Menu16onClickListienerEv+0x20c>
			} else {
				LCD_DrawString(180, 180, "OFF");
 8001d5e:	4a15      	ldr	r2, [pc, #84]	; (8001db4 <_ZN4Menu16onClickListienerEv+0x258>)
 8001d60:	21b4      	movs	r1, #180	; 0xb4
 8001d62:	20b4      	movs	r0, #180	; 0xb4
 8001d64:	f001 f99a 	bl	800309c <_Z14LCD_DrawStringttPKc>
			}
		}

		// Back button listener
		if (((strDisplayCoordinate.y > 240) && (strDisplayCoordinate.y < 290))
 8001d68:	8afb      	ldrh	r3, [r7, #22]
 8001d6a:	2bf0      	cmp	r3, #240	; 0xf0
 8001d6c:	d914      	bls.n	8001d98 <_ZN4Menu16onClickListienerEv+0x23c>
 8001d6e:	8afb      	ldrh	r3, [r7, #22]
 8001d70:	f5b3 7f91 	cmp.w	r3, #290	; 0x122
 8001d74:	d210      	bcs.n	8001d98 <_ZN4Menu16onClickListienerEv+0x23c>
				&& ((strDisplayCoordinate.x > 20)
 8001d76:	8abb      	ldrh	r3, [r7, #20]
 8001d78:	2b14      	cmp	r3, #20
 8001d7a:	d90d      	bls.n	8001d98 <_ZN4Menu16onClickListienerEv+0x23c>
						&& (strDisplayCoordinate.x < 220))) {
 8001d7c:	8abb      	ldrh	r3, [r7, #20]
 8001d7e:	2bdb      	cmp	r3, #219	; 0xdb
 8001d80:	d80a      	bhi.n	8001d98 <_ZN4Menu16onClickListienerEv+0x23c>
			setCurrentMenu(homeScreen);
 8001d82:	2100      	movs	r1, #0
 8001d84:	6878      	ldr	r0, [r7, #4]
 8001d86:	f7ff fed9 	bl	8001b3c <_ZN4Menu14setCurrentMenuEi>
		}
		break;
 8001d8a:	e005      	b.n	8001d98 <_ZN4Menu16onClickListienerEv+0x23c>
		return;
 8001d8c:	bf00      	nop
 8001d8e:	e004      	b.n	8001d9a <_ZN4Menu16onClickListienerEv+0x23e>
		break;
 8001d90:	bf00      	nop
 8001d92:	e002      	b.n	8001d9a <_ZN4Menu16onClickListienerEv+0x23e>
		break;
 8001d94:	bf00      	nop
 8001d96:	e000      	b.n	8001d9a <_ZN4Menu16onClickListienerEv+0x23e>
		break;
 8001d98:	bf00      	nop
	default:
		;
	}
}
 8001d9a:	3718      	adds	r7, #24
 8001d9c:	46bd      	mov	sp, r7
 8001d9e:	bd80      	pop	{r7, pc}
 8001da0:	20000008 	.word	0x20000008
 8001da4:	08007cfc 	.word	0x08007cfc
 8001da8:	08007d28 	.word	0x08007d28
 8001dac:	08007d2c 	.word	0x08007d2c
 8001db0:	08007d20 	.word	0x08007d20
 8001db4:	08007d24 	.word	0x08007d24

08001db8 <_ZN4MenuD1Ev>:
Menu::~Menu() {
 8001db8:	b580      	push	{r7, lr}
 8001dba:	b082      	sub	sp, #8
 8001dbc:	af00      	add	r7, sp, #0
 8001dbe:	6078      	str	r0, [r7, #4]
 8001dc0:	4a06      	ldr	r2, [pc, #24]	; (8001ddc <_ZN4MenuD1Ev+0x24>)
 8001dc2:	687b      	ldr	r3, [r7, #4]
 8001dc4:	601a      	str	r2, [r3, #0]
 8001dc6:	687b      	ldr	r3, [r7, #4]
 8001dc8:	3308      	adds	r3, #8
 8001dca:	4618      	mov	r0, r3
 8001dcc:	f000 fdea 	bl	80029a4 <_ZN8SettingsD1Ev>
}
 8001dd0:	687b      	ldr	r3, [r7, #4]
 8001dd2:	4618      	mov	r0, r3
 8001dd4:	3708      	adds	r7, #8
 8001dd6:	46bd      	mov	sp, r7
 8001dd8:	bd80      	pop	{r7, pc}
 8001dda:	bf00      	nop
 8001ddc:	08007d5c 	.word	0x08007d5c

08001de0 <_ZN4MenuD0Ev>:
Menu::~Menu() {
 8001de0:	b580      	push	{r7, lr}
 8001de2:	b082      	sub	sp, #8
 8001de4:	af00      	add	r7, sp, #0
 8001de6:	6078      	str	r0, [r7, #4]
}
 8001de8:	6878      	ldr	r0, [r7, #4]
 8001dea:	f7ff ffe5 	bl	8001db8 <_ZN4MenuD1Ev>
 8001dee:	2118      	movs	r1, #24
 8001df0:	6878      	ldr	r0, [r7, #4]
 8001df2:	f005 fa7f 	bl	80072f4 <_ZdlPvj>
 8001df6:	687b      	ldr	r3, [r7, #4]
 8001df8:	4618      	mov	r0, r3
 8001dfa:	3708      	adds	r7, #8
 8001dfc:	46bd      	mov	sp, r7
 8001dfe:	bd80      	pop	{r7, pc}

08001e00 <_ZN6PlayerC1Ei>:
#include <Player.h>
#include "lcd.h"
#include "main.h"

Player::Player(int playerNumber) :
 8001e00:	b580      	push	{r7, lr}
 8001e02:	b082      	sub	sp, #8
 8001e04:	af00      	add	r7, sp, #0
 8001e06:	6078      	str	r0, [r7, #4]
 8001e08:	6039      	str	r1, [r7, #0]
		score(playerNumber) {
 8001e0a:	4a0f      	ldr	r2, [pc, #60]	; (8001e48 <_ZN6PlayerC1Ei+0x48>)
 8001e0c:	687b      	ldr	r3, [r7, #4]
 8001e0e:	601a      	str	r2, [r3, #0]
 8001e10:	687b      	ldr	r3, [r7, #4]
 8001e12:	3314      	adds	r3, #20
 8001e14:	6839      	ldr	r1, [r7, #0]
 8001e16:	4618      	mov	r0, r3
 8001e18:	f000 f8f8 	bl	800200c <_ZN5ScoreC1Ei>
	this->playerNumber = playerNumber;
 8001e1c:	687b      	ldr	r3, [r7, #4]
 8001e1e:	683a      	ldr	r2, [r7, #0]
 8001e20:	605a      	str	r2, [r3, #4]
	resetX();
 8001e22:	6878      	ldr	r0, [r7, #4]
 8001e24:	f000 f812 	bl	8001e4c <_ZN6Player6resetXEv>
	if (playerNumber == Player::player1) {
 8001e28:	683b      	ldr	r3, [r7, #0]
 8001e2a:	2b00      	cmp	r3, #0
 8001e2c:	d104      	bne.n	8001e38 <_ZN6PlayerC1Ei+0x38>
		y = player1YAxis;
 8001e2e:	687b      	ldr	r3, [r7, #4]
 8001e30:	f44f 7296 	mov.w	r2, #300	; 0x12c
 8001e34:	60da      	str	r2, [r3, #12]
 8001e36:	e002      	b.n	8001e3e <_ZN6PlayerC1Ei+0x3e>
	} else {
		y = player2YAxis - playerHeight; // - height to get top left pixel
 8001e38:	687b      	ldr	r3, [r7, #4]
 8001e3a:	220f      	movs	r2, #15
 8001e3c:	60da      	str	r2, [r3, #12]
	}
}
 8001e3e:	687b      	ldr	r3, [r7, #4]
 8001e40:	4618      	mov	r0, r3
 8001e42:	3708      	adds	r7, #8
 8001e44:	46bd      	mov	sp, r7
 8001e46:	bd80      	pop	{r7, pc}
 8001e48:	08007d6c 	.word	0x08007d6c

08001e4c <_ZN6Player6resetXEv>:
void Player::resetX() {
 8001e4c:	b480      	push	{r7}
 8001e4e:	b083      	sub	sp, #12
 8001e50:	af00      	add	r7, sp, #0
 8001e52:	6078      	str	r0, [r7, #4]
	x = (LCD_DispWindow_COLUMN / 2) - (playerWidith / 2); // center position
 8001e54:	687b      	ldr	r3, [r7, #4]
 8001e56:	2262      	movs	r2, #98	; 0x62
 8001e58:	609a      	str	r2, [r3, #8]
}
 8001e5a:	bf00      	nop
 8001e5c:	370c      	adds	r7, #12
 8001e5e:	46bd      	mov	sp, r7
 8001e60:	bc80      	pop	{r7}
 8001e62:	4770      	bx	lr

08001e64 <_ZN6Player4setXEi>:
int Player::getPlayerNumber() {
	return playerNumber;
}
void Player::setX(int x) {
 8001e64:	b480      	push	{r7}
 8001e66:	b083      	sub	sp, #12
 8001e68:	af00      	add	r7, sp, #0
 8001e6a:	6078      	str	r0, [r7, #4]
 8001e6c:	6039      	str	r1, [r7, #0]
	this->x = x;
 8001e6e:	687b      	ldr	r3, [r7, #4]
 8001e70:	683a      	ldr	r2, [r7, #0]
 8001e72:	609a      	str	r2, [r3, #8]
}
 8001e74:	bf00      	nop
 8001e76:	370c      	adds	r7, #12
 8001e78:	46bd      	mov	sp, r7
 8001e7a:	bc80      	pop	{r7}
 8001e7c:	4770      	bx	lr

08001e7e <_ZN6Player4getXEv>:
int Player::getX() {
 8001e7e:	b480      	push	{r7}
 8001e80:	b083      	sub	sp, #12
 8001e82:	af00      	add	r7, sp, #0
 8001e84:	6078      	str	r0, [r7, #4]
	return x;
 8001e86:	687b      	ldr	r3, [r7, #4]
 8001e88:	689b      	ldr	r3, [r3, #8]
}
 8001e8a:	4618      	mov	r0, r3
 8001e8c:	370c      	adds	r7, #12
 8001e8e:	46bd      	mov	sp, r7
 8001e90:	bc80      	pop	{r7}
 8001e92:	4770      	bx	lr

08001e94 <_ZN6Player4getYEv>:
void Player::setY(int y) {
	this->y = y;
}
int Player::getY() {
 8001e94:	b480      	push	{r7}
 8001e96:	b083      	sub	sp, #12
 8001e98:	af00      	add	r7, sp, #0
 8001e9a:	6078      	str	r0, [r7, #4]
	return y;
 8001e9c:	687b      	ldr	r3, [r7, #4]
 8001e9e:	68db      	ldr	r3, [r3, #12]
}
 8001ea0:	4618      	mov	r0, r3
 8001ea2:	370c      	adds	r7, #12
 8001ea4:	46bd      	mov	sp, r7
 8001ea6:	bc80      	pop	{r7}
 8001ea8:	4770      	bx	lr

08001eaa <_ZN6Player20setADC_HandleTypeDefEP19__ADC_HandleTypeDef>:
void Player::setADC_HandleTypeDef(ADC_HandleTypeDef *hadc) {
 8001eaa:	b480      	push	{r7}
 8001eac:	b083      	sub	sp, #12
 8001eae:	af00      	add	r7, sp, #0
 8001eb0:	6078      	str	r0, [r7, #4]
 8001eb2:	6039      	str	r1, [r7, #0]
	this->hadc = hadc;
 8001eb4:	687b      	ldr	r3, [r7, #4]
 8001eb6:	683a      	ldr	r2, [r7, #0]
 8001eb8:	611a      	str	r2, [r3, #16]
}
 8001eba:	bf00      	nop
 8001ebc:	370c      	adds	r7, #12
 8001ebe:	46bd      	mov	sp, r7
 8001ec0:	bc80      	pop	{r7}
 8001ec2:	4770      	bx	lr

08001ec4 <_ZN6Player11playerTouchEv>:
bool Player::playerTouch() {
 8001ec4:	b580      	push	{r7, lr}
 8001ec6:	b084      	sub	sp, #16
 8001ec8:	af00      	add	r7, sp, #0
 8001eca:	6078      	str	r0, [r7, #4]
	int inputPin;
	if (playerNumber == player1) { // check if player is touching the rheostat
 8001ecc:	687b      	ldr	r3, [r7, #4]
 8001ece:	685b      	ldr	r3, [r3, #4]
 8001ed0:	2b00      	cmp	r3, #0
 8001ed2:	d107      	bne.n	8001ee4 <_ZN6Player11playerTouchEv+0x20>
		inputPin = HAL_GPIO_ReadPin(player1Touch_GPIO_Port, player1Touch_Pin);
 8001ed4:	f44f 6100 	mov.w	r1, #2048	; 0x800
 8001ed8:	480d      	ldr	r0, [pc, #52]	; (8001f10 <_ZN6Player11playerTouchEv+0x4c>)
 8001eda:	f003 fc65 	bl	80057a8 <HAL_GPIO_ReadPin>
 8001ede:	4603      	mov	r3, r0
 8001ee0:	60fb      	str	r3, [r7, #12]
 8001ee2:	e006      	b.n	8001ef2 <_ZN6Player11playerTouchEv+0x2e>
	} else {
		inputPin = HAL_GPIO_ReadPin(player2Touch_GPIO_Port, player2Touch_Pin);
 8001ee4:	f44f 7180 	mov.w	r1, #256	; 0x100
 8001ee8:	4809      	ldr	r0, [pc, #36]	; (8001f10 <_ZN6Player11playerTouchEv+0x4c>)
 8001eea:	f003 fc5d 	bl	80057a8 <HAL_GPIO_ReadPin>
 8001eee:	4603      	mov	r3, r0
 8001ef0:	60fb      	str	r3, [r7, #12]
	}
	if (inputPin == 0) {
 8001ef2:	68fb      	ldr	r3, [r7, #12]
 8001ef4:	2b00      	cmp	r3, #0
 8001ef6:	d105      	bne.n	8001f04 <_ZN6Player11playerTouchEv+0x40>
		this->x = playerNotTouching;
 8001ef8:	687b      	ldr	r3, [r7, #4]
 8001efa:	f44f 52fa 	mov.w	r2, #8000	; 0x1f40
 8001efe:	609a      	str	r2, [r3, #8]
		return false;
 8001f00:	2300      	movs	r3, #0
 8001f02:	e000      	b.n	8001f06 <_ZN6Player11playerTouchEv+0x42>
	}
	return true;
 8001f04:	2301      	movs	r3, #1
}
 8001f06:	4618      	mov	r0, r3
 8001f08:	3710      	adds	r7, #16
 8001f0a:	46bd      	mov	sp, r7
 8001f0c:	bd80      	pop	{r7, pc}
 8001f0e:	bf00      	nop
 8001f10:	40010800 	.word	0x40010800

08001f14 <_ZN6Player11findAndSetXEv>:
void Player::findAndSetX() {
 8001f14:	b580      	push	{r7, lr}
 8001f16:	b086      	sub	sp, #24
 8001f18:	af00      	add	r7, sp, #0
 8001f1a:	6078      	str	r0, [r7, #4]
	int ADCValueInt, inputPin, x;
	if (playerNumber == player1) { // check if player is touching the rheostat
 8001f1c:	687b      	ldr	r3, [r7, #4]
 8001f1e:	685b      	ldr	r3, [r3, #4]
 8001f20:	2b00      	cmp	r3, #0
 8001f22:	d107      	bne.n	8001f34 <_ZN6Player11findAndSetXEv+0x20>
		inputPin = HAL_GPIO_ReadPin(player1Touch_GPIO_Port, player1Touch_Pin);
 8001f24:	f44f 6100 	mov.w	r1, #2048	; 0x800
 8001f28:	4824      	ldr	r0, [pc, #144]	; (8001fbc <_ZN6Player11findAndSetXEv+0xa8>)
 8001f2a:	f003 fc3d 	bl	80057a8 <HAL_GPIO_ReadPin>
 8001f2e:	4603      	mov	r3, r0
 8001f30:	617b      	str	r3, [r7, #20]
 8001f32:	e006      	b.n	8001f42 <_ZN6Player11findAndSetXEv+0x2e>
	} else {
		inputPin = HAL_GPIO_ReadPin(player2Touch_GPIO_Port, player2Touch_Pin);
 8001f34:	f44f 7180 	mov.w	r1, #256	; 0x100
 8001f38:	4820      	ldr	r0, [pc, #128]	; (8001fbc <_ZN6Player11findAndSetXEv+0xa8>)
 8001f3a:	f003 fc35 	bl	80057a8 <HAL_GPIO_ReadPin>
 8001f3e:	4603      	mov	r3, r0
 8001f40:	617b      	str	r3, [r7, #20]
	}
	if (inputPin == 0) {
 8001f42:	697b      	ldr	r3, [r7, #20]
 8001f44:	2b00      	cmp	r3, #0
 8001f46:	d104      	bne.n	8001f52 <_ZN6Player11findAndSetXEv+0x3e>
		this->x = playerNotTouching;
 8001f48:	687b      	ldr	r3, [r7, #4]
 8001f4a:	f44f 52fa 	mov.w	r2, #8000	; 0x1f40
 8001f4e:	609a      	str	r2, [r3, #8]
		return;
 8001f50:	e030      	b.n	8001fb4 <_ZN6Player11findAndSetXEv+0xa0>
	}

	// ask ADC to get value
	HAL_ADC_Start(hadc);
 8001f52:	687b      	ldr	r3, [r7, #4]
 8001f54:	691b      	ldr	r3, [r3, #16]
 8001f56:	4618      	mov	r0, r3
 8001f58:	f002 fd82 	bl	8004a60 <HAL_ADC_Start>
	HAL_ADC_PollForConversion(hadc, 1000);
 8001f5c:	687b      	ldr	r3, [r7, #4]
 8001f5e:	691b      	ldr	r3, [r3, #16]
 8001f60:	f44f 717a 	mov.w	r1, #1000	; 0x3e8
 8001f64:	4618      	mov	r0, r3
 8001f66:	f002 fe29 	bl	8004bbc <HAL_ADC_PollForConversion>
	ADCValueInt = HAL_ADC_GetValue(hadc);
 8001f6a:	687b      	ldr	r3, [r7, #4]
 8001f6c:	691b      	ldr	r3, [r3, #16]
 8001f6e:	4618      	mov	r0, r3
 8001f70:	f002 ff2a 	bl	8004dc8 <HAL_ADC_GetValue>
 8001f74:	4603      	mov	r3, r0
 8001f76:	613b      	str	r3, [r7, #16]

	x = (ADCValueInt * (LCD_DispWindow_COLUMN - wallWidith - playerWidith))
 8001f78:	693a      	ldr	r2, [r7, #16]
 8001f7a:	4613      	mov	r3, r2
 8001f7c:	005b      	lsls	r3, r3, #1
 8001f7e:	4413      	add	r3, r2
 8001f80:	019b      	lsls	r3, r3, #6
 8001f82:	4a0f      	ldr	r2, [pc, #60]	; (8001fc0 <_ZN6Player11findAndSetXEv+0xac>)
 8001f84:	fb82 1203 	smull	r1, r2, r2, r3
 8001f88:	441a      	add	r2, r3
 8001f8a:	12d2      	asrs	r2, r2, #11
 8001f8c:	17db      	asrs	r3, r3, #31
 8001f8e:	1ad3      	subs	r3, r2, r3
 8001f90:	60fb      	str	r3, [r7, #12]
			/ rheostatMaximumValue; // translate ADC value to x position

	// make sure x is within broad and set its value
	if (x <= wallWidith) {
 8001f92:	68fb      	ldr	r3, [r7, #12]
 8001f94:	2b03      	cmp	r3, #3
 8001f96:	dc03      	bgt.n	8001fa0 <_ZN6Player11findAndSetXEv+0x8c>
		this->x = wallWidith + 1;
 8001f98:	687b      	ldr	r3, [r7, #4]
 8001f9a:	2204      	movs	r2, #4
 8001f9c:	609a      	str	r2, [r3, #8]
		return;
 8001f9e:	e009      	b.n	8001fb4 <_ZN6Player11findAndSetXEv+0xa0>
	}
	if (x + playerWidith >= LCD_DispWindow_COLUMN - wallWidith) {
 8001fa0:	68fb      	ldr	r3, [r7, #12]
 8001fa2:	2bbf      	cmp	r3, #191	; 0xbf
 8001fa4:	dd03      	ble.n	8001fae <_ZN6Player11findAndSetXEv+0x9a>
		this->x = LCD_DispWindow_COLUMN - wallWidith - playerWidith - 1;
 8001fa6:	687b      	ldr	r3, [r7, #4]
 8001fa8:	22bf      	movs	r2, #191	; 0xbf
 8001faa:	609a      	str	r2, [r3, #8]
		return;
 8001fac:	e002      	b.n	8001fb4 <_ZN6Player11findAndSetXEv+0xa0>
	}
	this->x = x;
 8001fae:	687b      	ldr	r3, [r7, #4]
 8001fb0:	68fa      	ldr	r2, [r7, #12]
 8001fb2:	609a      	str	r2, [r3, #8]
}
 8001fb4:	3718      	adds	r7, #24
 8001fb6:	46bd      	mov	sp, r7
 8001fb8:	bd80      	pop	{r7, pc}
 8001fba:	bf00      	nop
 8001fbc:	40010800 	.word	0x40010800
 8001fc0:	81742e05 	.word	0x81742e05

08001fc4 <_ZN6PlayerD1Ev>:
Player::~Player() {
 8001fc4:	b580      	push	{r7, lr}
 8001fc6:	b082      	sub	sp, #8
 8001fc8:	af00      	add	r7, sp, #0
 8001fca:	6078      	str	r0, [r7, #4]
 8001fcc:	4a06      	ldr	r2, [pc, #24]	; (8001fe8 <_ZN6PlayerD1Ev+0x24>)
 8001fce:	687b      	ldr	r3, [r7, #4]
 8001fd0:	601a      	str	r2, [r3, #0]
 8001fd2:	687b      	ldr	r3, [r7, #4]
 8001fd4:	3314      	adds	r3, #20
 8001fd6:	4618      	mov	r0, r3
 8001fd8:	f000 fc4e 	bl	8002878 <_ZN5ScoreD1Ev>
}
 8001fdc:	687b      	ldr	r3, [r7, #4]
 8001fde:	4618      	mov	r0, r3
 8001fe0:	3708      	adds	r7, #8
 8001fe2:	46bd      	mov	sp, r7
 8001fe4:	bd80      	pop	{r7, pc}
 8001fe6:	bf00      	nop
 8001fe8:	08007d6c 	.word	0x08007d6c

08001fec <_ZN6PlayerD0Ev>:
Player::~Player() {
 8001fec:	b580      	push	{r7, lr}
 8001fee:	b082      	sub	sp, #8
 8001ff0:	af00      	add	r7, sp, #0
 8001ff2:	6078      	str	r0, [r7, #4]
}
 8001ff4:	6878      	ldr	r0, [r7, #4]
 8001ff6:	f7ff ffe5 	bl	8001fc4 <_ZN6PlayerD1Ev>
 8001ffa:	2120      	movs	r1, #32
 8001ffc:	6878      	ldr	r0, [r7, #4]
 8001ffe:	f005 f979 	bl	80072f4 <_ZdlPvj>
 8002002:	687b      	ldr	r3, [r7, #4]
 8002004:	4618      	mov	r0, r3
 8002006:	3708      	adds	r7, #8
 8002008:	46bd      	mov	sp, r7
 800200a:	bd80      	pop	{r7, pc}

0800200c <_ZN5ScoreC1Ei>:
#include <Score.h>
#include "main.h"
#include <Player.h>
Score::Score(int playerNumber) {
 800200c:	b480      	push	{r7}
 800200e:	b083      	sub	sp, #12
 8002010:	af00      	add	r7, sp, #0
 8002012:	6078      	str	r0, [r7, #4]
 8002014:	6039      	str	r1, [r7, #0]
 8002016:	4a07      	ldr	r2, [pc, #28]	; (8002034 <_ZN5ScoreC1Ei+0x28>)
 8002018:	687b      	ldr	r3, [r7, #4]
 800201a:	601a      	str	r2, [r3, #0]
	this->playerNumber = playerNumber;
 800201c:	687b      	ldr	r3, [r7, #4]
 800201e:	683a      	ldr	r2, [r7, #0]
 8002020:	609a      	str	r2, [r3, #8]
	point = 0;
 8002022:	687b      	ldr	r3, [r7, #4]
 8002024:	2200      	movs	r2, #0
 8002026:	605a      	str	r2, [r3, #4]
}
 8002028:	687b      	ldr	r3, [r7, #4]
 800202a:	4618      	mov	r0, r3
 800202c:	370c      	adds	r7, #12
 800202e:	46bd      	mov	sp, r7
 8002030:	bc80      	pop	{r7}
 8002032:	4770      	bx	lr
 8002034:	08007d7c 	.word	0x08007d7c

08002038 <_ZN5Score8getPointEv>:
int Score::getPoint() {
 8002038:	b480      	push	{r7}
 800203a:	b083      	sub	sp, #12
 800203c:	af00      	add	r7, sp, #0
 800203e:	6078      	str	r0, [r7, #4]
	return point;
 8002040:	687b      	ldr	r3, [r7, #4]
 8002042:	685b      	ldr	r3, [r3, #4]
}
 8002044:	4618      	mov	r0, r3
 8002046:	370c      	adds	r7, #12
 8002048:	46bd      	mov	sp, r7
 800204a:	bc80      	pop	{r7}
 800204c:	4770      	bx	lr
	...

08002050 <_ZN5Score12displayPointEv>:
void Score::displayPoint() {
 8002050:	b580      	push	{r7, lr}
 8002052:	b082      	sub	sp, #8
 8002054:	af00      	add	r7, sp, #0
 8002056:	6078      	str	r0, [r7, #4]
	if (playerNumber == Player::player1) {
 8002058:	687b      	ldr	r3, [r7, #4]
 800205a:	689b      	ldr	r3, [r3, #8]
 800205c:	2b00      	cmp	r3, #0
 800205e:	f040 81af 	bne.w	80023c0 <_ZN5Score12displayPointEv+0x370>
		switch (point) {
 8002062:	687b      	ldr	r3, [r7, #4]
 8002064:	685b      	ldr	r3, [r3, #4]
 8002066:	2b09      	cmp	r3, #9
 8002068:	f200 8180 	bhi.w	800236c <_ZN5Score12displayPointEv+0x31c>
 800206c:	a201      	add	r2, pc, #4	; (adr r2, 8002074 <_ZN5Score12displayPointEv+0x24>)
 800206e:	f852 f023 	ldr.w	pc, [r2, r3, lsl #2]
 8002072:	bf00      	nop
 8002074:	0800209d 	.word	0x0800209d
 8002078:	080020e5 	.word	0x080020e5
 800207c:	0800212d 	.word	0x0800212d
 8002080:	08002175 	.word	0x08002175
 8002084:	080021bd 	.word	0x080021bd
 8002088:	08002205 	.word	0x08002205
 800208c:	0800224d 	.word	0x0800224d
 8002090:	08002295 	.word	0x08002295
 8002094:	080022dd 	.word	0x080022dd
 8002098:	08002325 	.word	0x08002325
		case 0:
			HAL_GPIO_WritePin(a1_GPIO_Port, a1_Pin, GPIO_PIN_RESET);
 800209c:	2200      	movs	r2, #0
 800209e:	2120      	movs	r1, #32
 80020a0:	48c4      	ldr	r0, [pc, #784]	; (80023b4 <_ZN5Score12displayPointEv+0x364>)
 80020a2:	f003 fb98 	bl	80057d6 <HAL_GPIO_WritePin>
			HAL_GPIO_WritePin(b1_GPIO_Port, b1_Pin, GPIO_PIN_RESET);
 80020a6:	2200      	movs	r2, #0
 80020a8:	2110      	movs	r1, #16
 80020aa:	48c3      	ldr	r0, [pc, #780]	; (80023b8 <_ZN5Score12displayPointEv+0x368>)
 80020ac:	f003 fb93 	bl	80057d6 <HAL_GPIO_WritePin>
			HAL_GPIO_WritePin(c1_GPIO_Port, c1_Pin, GPIO_PIN_RESET);
 80020b0:	2200      	movs	r2, #0
 80020b2:	2110      	movs	r1, #16
 80020b4:	48c1      	ldr	r0, [pc, #772]	; (80023bc <_ZN5Score12displayPointEv+0x36c>)
 80020b6:	f003 fb8e 	bl	80057d6 <HAL_GPIO_WritePin>
			HAL_GPIO_WritePin(d1_GPIO_Port, d1_Pin, GPIO_PIN_RESET);
 80020ba:	2200      	movs	r2, #0
 80020bc:	2120      	movs	r1, #32
 80020be:	48bf      	ldr	r0, [pc, #764]	; (80023bc <_ZN5Score12displayPointEv+0x36c>)
 80020c0:	f003 fb89 	bl	80057d6 <HAL_GPIO_WritePin>
			HAL_GPIO_WritePin(e1_GPIO_Port, e1_Pin, GPIO_PIN_RESET);
 80020c4:	2200      	movs	r2, #0
 80020c6:	2180      	movs	r1, #128	; 0x80
 80020c8:	48bc      	ldr	r0, [pc, #752]	; (80023bc <_ZN5Score12displayPointEv+0x36c>)
 80020ca:	f003 fb84 	bl	80057d6 <HAL_GPIO_WritePin>
			HAL_GPIO_WritePin(f1_GPIO_Port, f1_Pin, GPIO_PIN_RESET);
 80020ce:	2200      	movs	r2, #0
 80020d0:	2140      	movs	r1, #64	; 0x40
 80020d2:	48b8      	ldr	r0, [pc, #736]	; (80023b4 <_ZN5Score12displayPointEv+0x364>)
 80020d4:	f003 fb7f 	bl	80057d6 <HAL_GPIO_WritePin>
			HAL_GPIO_WritePin(g1_GPIO_Port, g1_Pin, GPIO_PIN_SET);
 80020d8:	2201      	movs	r2, #1
 80020da:	2140      	movs	r1, #64	; 0x40
 80020dc:	48b7      	ldr	r0, [pc, #732]	; (80023bc <_ZN5Score12displayPointEv+0x36c>)
 80020de:	f003 fb7a 	bl	80057d6 <HAL_GPIO_WritePin>
			break;
 80020e2:	e350      	b.n	8002786 <_ZN5Score12displayPointEv+0x736>
		case 1:
			HAL_GPIO_WritePin(a1_GPIO_Port, a1_Pin, GPIO_PIN_SET);
 80020e4:	2201      	movs	r2, #1
 80020e6:	2120      	movs	r1, #32
 80020e8:	48b2      	ldr	r0, [pc, #712]	; (80023b4 <_ZN5Score12displayPointEv+0x364>)
 80020ea:	f003 fb74 	bl	80057d6 <HAL_GPIO_WritePin>
			HAL_GPIO_WritePin(b1_GPIO_Port, b1_Pin, GPIO_PIN_RESET);
 80020ee:	2200      	movs	r2, #0
 80020f0:	2110      	movs	r1, #16
 80020f2:	48b1      	ldr	r0, [pc, #708]	; (80023b8 <_ZN5Score12displayPointEv+0x368>)
 80020f4:	f003 fb6f 	bl	80057d6 <HAL_GPIO_WritePin>
			HAL_GPIO_WritePin(c1_GPIO_Port, c1_Pin, GPIO_PIN_RESET);
 80020f8:	2200      	movs	r2, #0
 80020fa:	2110      	movs	r1, #16
 80020fc:	48af      	ldr	r0, [pc, #700]	; (80023bc <_ZN5Score12displayPointEv+0x36c>)
 80020fe:	f003 fb6a 	bl	80057d6 <HAL_GPIO_WritePin>
			HAL_GPIO_WritePin(d1_GPIO_Port, d1_Pin, GPIO_PIN_SET);
 8002102:	2201      	movs	r2, #1
 8002104:	2120      	movs	r1, #32
 8002106:	48ad      	ldr	r0, [pc, #692]	; (80023bc <_ZN5Score12displayPointEv+0x36c>)
 8002108:	f003 fb65 	bl	80057d6 <HAL_GPIO_WritePin>
			HAL_GPIO_WritePin(e1_GPIO_Port, e1_Pin, GPIO_PIN_SET);
 800210c:	2201      	movs	r2, #1
 800210e:	2180      	movs	r1, #128	; 0x80
 8002110:	48aa      	ldr	r0, [pc, #680]	; (80023bc <_ZN5Score12displayPointEv+0x36c>)
 8002112:	f003 fb60 	bl	80057d6 <HAL_GPIO_WritePin>
			HAL_GPIO_WritePin(f1_GPIO_Port, f1_Pin, GPIO_PIN_SET);
 8002116:	2201      	movs	r2, #1
 8002118:	2140      	movs	r1, #64	; 0x40
 800211a:	48a6      	ldr	r0, [pc, #664]	; (80023b4 <_ZN5Score12displayPointEv+0x364>)
 800211c:	f003 fb5b 	bl	80057d6 <HAL_GPIO_WritePin>
			HAL_GPIO_WritePin(g1_GPIO_Port, g1_Pin, GPIO_PIN_SET);
 8002120:	2201      	movs	r2, #1
 8002122:	2140      	movs	r1, #64	; 0x40
 8002124:	48a5      	ldr	r0, [pc, #660]	; (80023bc <_ZN5Score12displayPointEv+0x36c>)
 8002126:	f003 fb56 	bl	80057d6 <HAL_GPIO_WritePin>
			break;
 800212a:	e32c      	b.n	8002786 <_ZN5Score12displayPointEv+0x736>
		case 2:
			HAL_GPIO_WritePin(a1_GPIO_Port, a1_Pin, GPIO_PIN_RESET);
 800212c:	2200      	movs	r2, #0
 800212e:	2120      	movs	r1, #32
 8002130:	48a0      	ldr	r0, [pc, #640]	; (80023b4 <_ZN5Score12displayPointEv+0x364>)
 8002132:	f003 fb50 	bl	80057d6 <HAL_GPIO_WritePin>
			HAL_GPIO_WritePin(b1_GPIO_Port, b1_Pin, GPIO_PIN_RESET);
 8002136:	2200      	movs	r2, #0
 8002138:	2110      	movs	r1, #16
 800213a:	489f      	ldr	r0, [pc, #636]	; (80023b8 <_ZN5Score12displayPointEv+0x368>)
 800213c:	f003 fb4b 	bl	80057d6 <HAL_GPIO_WritePin>
			HAL_GPIO_WritePin(c1_GPIO_Port, c1_Pin, GPIO_PIN_SET);
 8002140:	2201      	movs	r2, #1
 8002142:	2110      	movs	r1, #16
 8002144:	489d      	ldr	r0, [pc, #628]	; (80023bc <_ZN5Score12displayPointEv+0x36c>)
 8002146:	f003 fb46 	bl	80057d6 <HAL_GPIO_WritePin>
			HAL_GPIO_WritePin(d1_GPIO_Port, d1_Pin, GPIO_PIN_RESET);
 800214a:	2200      	movs	r2, #0
 800214c:	2120      	movs	r1, #32
 800214e:	489b      	ldr	r0, [pc, #620]	; (80023bc <_ZN5Score12displayPointEv+0x36c>)
 8002150:	f003 fb41 	bl	80057d6 <HAL_GPIO_WritePin>
			HAL_GPIO_WritePin(e1_GPIO_Port, e1_Pin, GPIO_PIN_RESET);
 8002154:	2200      	movs	r2, #0
 8002156:	2180      	movs	r1, #128	; 0x80
 8002158:	4898      	ldr	r0, [pc, #608]	; (80023bc <_ZN5Score12displayPointEv+0x36c>)
 800215a:	f003 fb3c 	bl	80057d6 <HAL_GPIO_WritePin>
			HAL_GPIO_WritePin(f1_GPIO_Port, f1_Pin, GPIO_PIN_SET);
 800215e:	2201      	movs	r2, #1
 8002160:	2140      	movs	r1, #64	; 0x40
 8002162:	4894      	ldr	r0, [pc, #592]	; (80023b4 <_ZN5Score12displayPointEv+0x364>)
 8002164:	f003 fb37 	bl	80057d6 <HAL_GPIO_WritePin>
			HAL_GPIO_WritePin(g1_GPIO_Port, g1_Pin, GPIO_PIN_RESET);
 8002168:	2200      	movs	r2, #0
 800216a:	2140      	movs	r1, #64	; 0x40
 800216c:	4893      	ldr	r0, [pc, #588]	; (80023bc <_ZN5Score12displayPointEv+0x36c>)
 800216e:	f003 fb32 	bl	80057d6 <HAL_GPIO_WritePin>
			break;
 8002172:	e308      	b.n	8002786 <_ZN5Score12displayPointEv+0x736>
		case 3:
			HAL_GPIO_WritePin(a1_GPIO_Port, a1_Pin, GPIO_PIN_RESET);
 8002174:	2200      	movs	r2, #0
 8002176:	2120      	movs	r1, #32
 8002178:	488e      	ldr	r0, [pc, #568]	; (80023b4 <_ZN5Score12displayPointEv+0x364>)
 800217a:	f003 fb2c 	bl	80057d6 <HAL_GPIO_WritePin>
			HAL_GPIO_WritePin(b1_GPIO_Port, b1_Pin, GPIO_PIN_RESET);
 800217e:	2200      	movs	r2, #0
 8002180:	2110      	movs	r1, #16
 8002182:	488d      	ldr	r0, [pc, #564]	; (80023b8 <_ZN5Score12displayPointEv+0x368>)
 8002184:	f003 fb27 	bl	80057d6 <HAL_GPIO_WritePin>
			HAL_GPIO_WritePin(c1_GPIO_Port, c1_Pin, GPIO_PIN_RESET);
 8002188:	2200      	movs	r2, #0
 800218a:	2110      	movs	r1, #16
 800218c:	488b      	ldr	r0, [pc, #556]	; (80023bc <_ZN5Score12displayPointEv+0x36c>)
 800218e:	f003 fb22 	bl	80057d6 <HAL_GPIO_WritePin>
			HAL_GPIO_WritePin(d1_GPIO_Port, d1_Pin, GPIO_PIN_RESET);
 8002192:	2200      	movs	r2, #0
 8002194:	2120      	movs	r1, #32
 8002196:	4889      	ldr	r0, [pc, #548]	; (80023bc <_ZN5Score12displayPointEv+0x36c>)
 8002198:	f003 fb1d 	bl	80057d6 <HAL_GPIO_WritePin>
			HAL_GPIO_WritePin(e1_GPIO_Port, e1_Pin, GPIO_PIN_SET);
 800219c:	2201      	movs	r2, #1
 800219e:	2180      	movs	r1, #128	; 0x80
 80021a0:	4886      	ldr	r0, [pc, #536]	; (80023bc <_ZN5Score12displayPointEv+0x36c>)
 80021a2:	f003 fb18 	bl	80057d6 <HAL_GPIO_WritePin>
			HAL_GPIO_WritePin(f1_GPIO_Port, f1_Pin, GPIO_PIN_SET);
 80021a6:	2201      	movs	r2, #1
 80021a8:	2140      	movs	r1, #64	; 0x40
 80021aa:	4882      	ldr	r0, [pc, #520]	; (80023b4 <_ZN5Score12displayPointEv+0x364>)
 80021ac:	f003 fb13 	bl	80057d6 <HAL_GPIO_WritePin>
			HAL_GPIO_WritePin(g1_GPIO_Port, g1_Pin, GPIO_PIN_RESET);
 80021b0:	2200      	movs	r2, #0
 80021b2:	2140      	movs	r1, #64	; 0x40
 80021b4:	4881      	ldr	r0, [pc, #516]	; (80023bc <_ZN5Score12displayPointEv+0x36c>)
 80021b6:	f003 fb0e 	bl	80057d6 <HAL_GPIO_WritePin>
			break;
 80021ba:	e2e4      	b.n	8002786 <_ZN5Score12displayPointEv+0x736>
		case 4:
			HAL_GPIO_WritePin(a1_GPIO_Port, a1_Pin, GPIO_PIN_SET);
 80021bc:	2201      	movs	r2, #1
 80021be:	2120      	movs	r1, #32
 80021c0:	487c      	ldr	r0, [pc, #496]	; (80023b4 <_ZN5Score12displayPointEv+0x364>)
 80021c2:	f003 fb08 	bl	80057d6 <HAL_GPIO_WritePin>
			HAL_GPIO_WritePin(b1_GPIO_Port, b1_Pin, GPIO_PIN_RESET);
 80021c6:	2200      	movs	r2, #0
 80021c8:	2110      	movs	r1, #16
 80021ca:	487b      	ldr	r0, [pc, #492]	; (80023b8 <_ZN5Score12displayPointEv+0x368>)
 80021cc:	f003 fb03 	bl	80057d6 <HAL_GPIO_WritePin>
			HAL_GPIO_WritePin(c1_GPIO_Port, c1_Pin, GPIO_PIN_RESET);
 80021d0:	2200      	movs	r2, #0
 80021d2:	2110      	movs	r1, #16
 80021d4:	4879      	ldr	r0, [pc, #484]	; (80023bc <_ZN5Score12displayPointEv+0x36c>)
 80021d6:	f003 fafe 	bl	80057d6 <HAL_GPIO_WritePin>
			HAL_GPIO_WritePin(d1_GPIO_Port, d1_Pin, GPIO_PIN_SET);
 80021da:	2201      	movs	r2, #1
 80021dc:	2120      	movs	r1, #32
 80021de:	4877      	ldr	r0, [pc, #476]	; (80023bc <_ZN5Score12displayPointEv+0x36c>)
 80021e0:	f003 faf9 	bl	80057d6 <HAL_GPIO_WritePin>
			HAL_GPIO_WritePin(e1_GPIO_Port, e1_Pin, GPIO_PIN_SET);
 80021e4:	2201      	movs	r2, #1
 80021e6:	2180      	movs	r1, #128	; 0x80
 80021e8:	4874      	ldr	r0, [pc, #464]	; (80023bc <_ZN5Score12displayPointEv+0x36c>)
 80021ea:	f003 faf4 	bl	80057d6 <HAL_GPIO_WritePin>
			HAL_GPIO_WritePin(f1_GPIO_Port, f1_Pin, GPIO_PIN_RESET);
 80021ee:	2200      	movs	r2, #0
 80021f0:	2140      	movs	r1, #64	; 0x40
 80021f2:	4870      	ldr	r0, [pc, #448]	; (80023b4 <_ZN5Score12displayPointEv+0x364>)
 80021f4:	f003 faef 	bl	80057d6 <HAL_GPIO_WritePin>
			HAL_GPIO_WritePin(g1_GPIO_Port, g1_Pin, GPIO_PIN_RESET);
 80021f8:	2200      	movs	r2, #0
 80021fa:	2140      	movs	r1, #64	; 0x40
 80021fc:	486f      	ldr	r0, [pc, #444]	; (80023bc <_ZN5Score12displayPointEv+0x36c>)
 80021fe:	f003 faea 	bl	80057d6 <HAL_GPIO_WritePin>
			break;
 8002202:	e2c0      	b.n	8002786 <_ZN5Score12displayPointEv+0x736>
		case 5:
			HAL_GPIO_WritePin(a1_GPIO_Port, a1_Pin, GPIO_PIN_RESET);
 8002204:	2200      	movs	r2, #0
 8002206:	2120      	movs	r1, #32
 8002208:	486a      	ldr	r0, [pc, #424]	; (80023b4 <_ZN5Score12displayPointEv+0x364>)
 800220a:	f003 fae4 	bl	80057d6 <HAL_GPIO_WritePin>
			HAL_GPIO_WritePin(b1_GPIO_Port, b1_Pin, GPIO_PIN_SET);
 800220e:	2201      	movs	r2, #1
 8002210:	2110      	movs	r1, #16
 8002212:	4869      	ldr	r0, [pc, #420]	; (80023b8 <_ZN5Score12displayPointEv+0x368>)
 8002214:	f003 fadf 	bl	80057d6 <HAL_GPIO_WritePin>
			HAL_GPIO_WritePin(c1_GPIO_Port, c1_Pin, GPIO_PIN_RESET);
 8002218:	2200      	movs	r2, #0
 800221a:	2110      	movs	r1, #16
 800221c:	4867      	ldr	r0, [pc, #412]	; (80023bc <_ZN5Score12displayPointEv+0x36c>)
 800221e:	f003 fada 	bl	80057d6 <HAL_GPIO_WritePin>
			HAL_GPIO_WritePin(d1_GPIO_Port, d1_Pin, GPIO_PIN_RESET);
 8002222:	2200      	movs	r2, #0
 8002224:	2120      	movs	r1, #32
 8002226:	4865      	ldr	r0, [pc, #404]	; (80023bc <_ZN5Score12displayPointEv+0x36c>)
 8002228:	f003 fad5 	bl	80057d6 <HAL_GPIO_WritePin>
			HAL_GPIO_WritePin(e1_GPIO_Port, e1_Pin, GPIO_PIN_SET);
 800222c:	2201      	movs	r2, #1
 800222e:	2180      	movs	r1, #128	; 0x80
 8002230:	4862      	ldr	r0, [pc, #392]	; (80023bc <_ZN5Score12displayPointEv+0x36c>)
 8002232:	f003 fad0 	bl	80057d6 <HAL_GPIO_WritePin>
			HAL_GPIO_WritePin(f1_GPIO_Port, f1_Pin, GPIO_PIN_RESET);
 8002236:	2200      	movs	r2, #0
 8002238:	2140      	movs	r1, #64	; 0x40
 800223a:	485e      	ldr	r0, [pc, #376]	; (80023b4 <_ZN5Score12displayPointEv+0x364>)
 800223c:	f003 facb 	bl	80057d6 <HAL_GPIO_WritePin>
			HAL_GPIO_WritePin(g1_GPIO_Port, g1_Pin, GPIO_PIN_RESET);
 8002240:	2200      	movs	r2, #0
 8002242:	2140      	movs	r1, #64	; 0x40
 8002244:	485d      	ldr	r0, [pc, #372]	; (80023bc <_ZN5Score12displayPointEv+0x36c>)
 8002246:	f003 fac6 	bl	80057d6 <HAL_GPIO_WritePin>
			break;
 800224a:	e29c      	b.n	8002786 <_ZN5Score12displayPointEv+0x736>
		case 6:
			HAL_GPIO_WritePin(a1_GPIO_Port, a1_Pin, GPIO_PIN_RESET);
 800224c:	2200      	movs	r2, #0
 800224e:	2120      	movs	r1, #32
 8002250:	4858      	ldr	r0, [pc, #352]	; (80023b4 <_ZN5Score12displayPointEv+0x364>)
 8002252:	f003 fac0 	bl	80057d6 <HAL_GPIO_WritePin>
			HAL_GPIO_WritePin(b1_GPIO_Port, b1_Pin, GPIO_PIN_SET);
 8002256:	2201      	movs	r2, #1
 8002258:	2110      	movs	r1, #16
 800225a:	4857      	ldr	r0, [pc, #348]	; (80023b8 <_ZN5Score12displayPointEv+0x368>)
 800225c:	f003 fabb 	bl	80057d6 <HAL_GPIO_WritePin>
			HAL_GPIO_WritePin(c1_GPIO_Port, c1_Pin, GPIO_PIN_RESET);
 8002260:	2200      	movs	r2, #0
 8002262:	2110      	movs	r1, #16
 8002264:	4855      	ldr	r0, [pc, #340]	; (80023bc <_ZN5Score12displayPointEv+0x36c>)
 8002266:	f003 fab6 	bl	80057d6 <HAL_GPIO_WritePin>
			HAL_GPIO_WritePin(d1_GPIO_Port, d1_Pin, GPIO_PIN_RESET);
 800226a:	2200      	movs	r2, #0
 800226c:	2120      	movs	r1, #32
 800226e:	4853      	ldr	r0, [pc, #332]	; (80023bc <_ZN5Score12displayPointEv+0x36c>)
 8002270:	f003 fab1 	bl	80057d6 <HAL_GPIO_WritePin>
			HAL_GPIO_WritePin(e1_GPIO_Port, e1_Pin, GPIO_PIN_RESET);
 8002274:	2200      	movs	r2, #0
 8002276:	2180      	movs	r1, #128	; 0x80
 8002278:	4850      	ldr	r0, [pc, #320]	; (80023bc <_ZN5Score12displayPointEv+0x36c>)
 800227a:	f003 faac 	bl	80057d6 <HAL_GPIO_WritePin>
			HAL_GPIO_WritePin(f1_GPIO_Port, f1_Pin, GPIO_PIN_RESET);
 800227e:	2200      	movs	r2, #0
 8002280:	2140      	movs	r1, #64	; 0x40
 8002282:	484c      	ldr	r0, [pc, #304]	; (80023b4 <_ZN5Score12displayPointEv+0x364>)
 8002284:	f003 faa7 	bl	80057d6 <HAL_GPIO_WritePin>
			HAL_GPIO_WritePin(g1_GPIO_Port, g1_Pin, GPIO_PIN_RESET);
 8002288:	2200      	movs	r2, #0
 800228a:	2140      	movs	r1, #64	; 0x40
 800228c:	484b      	ldr	r0, [pc, #300]	; (80023bc <_ZN5Score12displayPointEv+0x36c>)
 800228e:	f003 faa2 	bl	80057d6 <HAL_GPIO_WritePin>
			break;
 8002292:	e278      	b.n	8002786 <_ZN5Score12displayPointEv+0x736>
		case 7:
			HAL_GPIO_WritePin(a1_GPIO_Port, a1_Pin, GPIO_PIN_RESET);
 8002294:	2200      	movs	r2, #0
 8002296:	2120      	movs	r1, #32
 8002298:	4846      	ldr	r0, [pc, #280]	; (80023b4 <_ZN5Score12displayPointEv+0x364>)
 800229a:	f003 fa9c 	bl	80057d6 <HAL_GPIO_WritePin>
			HAL_GPIO_WritePin(b1_GPIO_Port, b1_Pin, GPIO_PIN_RESET);
 800229e:	2200      	movs	r2, #0
 80022a0:	2110      	movs	r1, #16
 80022a2:	4845      	ldr	r0, [pc, #276]	; (80023b8 <_ZN5Score12displayPointEv+0x368>)
 80022a4:	f003 fa97 	bl	80057d6 <HAL_GPIO_WritePin>
			HAL_GPIO_WritePin(c1_GPIO_Port, c1_Pin, GPIO_PIN_RESET);
 80022a8:	2200      	movs	r2, #0
 80022aa:	2110      	movs	r1, #16
 80022ac:	4843      	ldr	r0, [pc, #268]	; (80023bc <_ZN5Score12displayPointEv+0x36c>)
 80022ae:	f003 fa92 	bl	80057d6 <HAL_GPIO_WritePin>
			HAL_GPIO_WritePin(d1_GPIO_Port, d1_Pin, GPIO_PIN_SET);
 80022b2:	2201      	movs	r2, #1
 80022b4:	2120      	movs	r1, #32
 80022b6:	4841      	ldr	r0, [pc, #260]	; (80023bc <_ZN5Score12displayPointEv+0x36c>)
 80022b8:	f003 fa8d 	bl	80057d6 <HAL_GPIO_WritePin>
			HAL_GPIO_WritePin(e1_GPIO_Port, e1_Pin, GPIO_PIN_SET);
 80022bc:	2201      	movs	r2, #1
 80022be:	2180      	movs	r1, #128	; 0x80
 80022c0:	483e      	ldr	r0, [pc, #248]	; (80023bc <_ZN5Score12displayPointEv+0x36c>)
 80022c2:	f003 fa88 	bl	80057d6 <HAL_GPIO_WritePin>
			HAL_GPIO_WritePin(f1_GPIO_Port, f1_Pin, GPIO_PIN_SET);
 80022c6:	2201      	movs	r2, #1
 80022c8:	2140      	movs	r1, #64	; 0x40
 80022ca:	483a      	ldr	r0, [pc, #232]	; (80023b4 <_ZN5Score12displayPointEv+0x364>)
 80022cc:	f003 fa83 	bl	80057d6 <HAL_GPIO_WritePin>
			HAL_GPIO_WritePin(g1_GPIO_Port, g1_Pin, GPIO_PIN_SET);
 80022d0:	2201      	movs	r2, #1
 80022d2:	2140      	movs	r1, #64	; 0x40
 80022d4:	4839      	ldr	r0, [pc, #228]	; (80023bc <_ZN5Score12displayPointEv+0x36c>)
 80022d6:	f003 fa7e 	bl	80057d6 <HAL_GPIO_WritePin>
			break;
 80022da:	e254      	b.n	8002786 <_ZN5Score12displayPointEv+0x736>
		case 8:
			HAL_GPIO_WritePin(a1_GPIO_Port, a1_Pin, GPIO_PIN_RESET);
 80022dc:	2200      	movs	r2, #0
 80022de:	2120      	movs	r1, #32
 80022e0:	4834      	ldr	r0, [pc, #208]	; (80023b4 <_ZN5Score12displayPointEv+0x364>)
 80022e2:	f003 fa78 	bl	80057d6 <HAL_GPIO_WritePin>
			HAL_GPIO_WritePin(b1_GPIO_Port, b1_Pin, GPIO_PIN_RESET);
 80022e6:	2200      	movs	r2, #0
 80022e8:	2110      	movs	r1, #16
 80022ea:	4833      	ldr	r0, [pc, #204]	; (80023b8 <_ZN5Score12displayPointEv+0x368>)
 80022ec:	f003 fa73 	bl	80057d6 <HAL_GPIO_WritePin>
			HAL_GPIO_WritePin(c1_GPIO_Port, c1_Pin, GPIO_PIN_RESET);
 80022f0:	2200      	movs	r2, #0
 80022f2:	2110      	movs	r1, #16
 80022f4:	4831      	ldr	r0, [pc, #196]	; (80023bc <_ZN5Score12displayPointEv+0x36c>)
 80022f6:	f003 fa6e 	bl	80057d6 <HAL_GPIO_WritePin>
			HAL_GPIO_WritePin(d1_GPIO_Port, d1_Pin, GPIO_PIN_RESET);
 80022fa:	2200      	movs	r2, #0
 80022fc:	2120      	movs	r1, #32
 80022fe:	482f      	ldr	r0, [pc, #188]	; (80023bc <_ZN5Score12displayPointEv+0x36c>)
 8002300:	f003 fa69 	bl	80057d6 <HAL_GPIO_WritePin>
			HAL_GPIO_WritePin(e1_GPIO_Port, e1_Pin, GPIO_PIN_RESET);
 8002304:	2200      	movs	r2, #0
 8002306:	2180      	movs	r1, #128	; 0x80
 8002308:	482c      	ldr	r0, [pc, #176]	; (80023bc <_ZN5Score12displayPointEv+0x36c>)
 800230a:	f003 fa64 	bl	80057d6 <HAL_GPIO_WritePin>
			HAL_GPIO_WritePin(f1_GPIO_Port, f1_Pin, GPIO_PIN_RESET);
 800230e:	2200      	movs	r2, #0
 8002310:	2140      	movs	r1, #64	; 0x40
 8002312:	4828      	ldr	r0, [pc, #160]	; (80023b4 <_ZN5Score12displayPointEv+0x364>)
 8002314:	f003 fa5f 	bl	80057d6 <HAL_GPIO_WritePin>
			HAL_GPIO_WritePin(g1_GPIO_Port, g1_Pin, GPIO_PIN_RESET);
 8002318:	2200      	movs	r2, #0
 800231a:	2140      	movs	r1, #64	; 0x40
 800231c:	4827      	ldr	r0, [pc, #156]	; (80023bc <_ZN5Score12displayPointEv+0x36c>)
 800231e:	f003 fa5a 	bl	80057d6 <HAL_GPIO_WritePin>
			break;
 8002322:	e230      	b.n	8002786 <_ZN5Score12displayPointEv+0x736>
		case 9:
			HAL_GPIO_WritePin(a1_GPIO_Port, a1_Pin, GPIO_PIN_RESET);
 8002324:	2200      	movs	r2, #0
 8002326:	2120      	movs	r1, #32
 8002328:	4822      	ldr	r0, [pc, #136]	; (80023b4 <_ZN5Score12displayPointEv+0x364>)
 800232a:	f003 fa54 	bl	80057d6 <HAL_GPIO_WritePin>
			HAL_GPIO_WritePin(b1_GPIO_Port, b1_Pin, GPIO_PIN_RESET);
 800232e:	2200      	movs	r2, #0
 8002330:	2110      	movs	r1, #16
 8002332:	4821      	ldr	r0, [pc, #132]	; (80023b8 <_ZN5Score12displayPointEv+0x368>)
 8002334:	f003 fa4f 	bl	80057d6 <HAL_GPIO_WritePin>
			HAL_GPIO_WritePin(c1_GPIO_Port, c1_Pin, GPIO_PIN_RESET);
 8002338:	2200      	movs	r2, #0
 800233a:	2110      	movs	r1, #16
 800233c:	481f      	ldr	r0, [pc, #124]	; (80023bc <_ZN5Score12displayPointEv+0x36c>)
 800233e:	f003 fa4a 	bl	80057d6 <HAL_GPIO_WritePin>
			HAL_GPIO_WritePin(d1_GPIO_Port, d1_Pin, GPIO_PIN_RESET);
 8002342:	2200      	movs	r2, #0
 8002344:	2120      	movs	r1, #32
 8002346:	481d      	ldr	r0, [pc, #116]	; (80023bc <_ZN5Score12displayPointEv+0x36c>)
 8002348:	f003 fa45 	bl	80057d6 <HAL_GPIO_WritePin>
			HAL_GPIO_WritePin(e1_GPIO_Port, e1_Pin, GPIO_PIN_SET);
 800234c:	2201      	movs	r2, #1
 800234e:	2180      	movs	r1, #128	; 0x80
 8002350:	481a      	ldr	r0, [pc, #104]	; (80023bc <_ZN5Score12displayPointEv+0x36c>)
 8002352:	f003 fa40 	bl	80057d6 <HAL_GPIO_WritePin>
			HAL_GPIO_WritePin(f1_GPIO_Port, f1_Pin, GPIO_PIN_RESET);
 8002356:	2200      	movs	r2, #0
 8002358:	2140      	movs	r1, #64	; 0x40
 800235a:	4816      	ldr	r0, [pc, #88]	; (80023b4 <_ZN5Score12displayPointEv+0x364>)
 800235c:	f003 fa3b 	bl	80057d6 <HAL_GPIO_WritePin>
			HAL_GPIO_WritePin(g1_GPIO_Port, g1_Pin, GPIO_PIN_RESET);
 8002360:	2200      	movs	r2, #0
 8002362:	2140      	movs	r1, #64	; 0x40
 8002364:	4815      	ldr	r0, [pc, #84]	; (80023bc <_ZN5Score12displayPointEv+0x36c>)
 8002366:	f003 fa36 	bl	80057d6 <HAL_GPIO_WritePin>
			break;
 800236a:	e20c      	b.n	8002786 <_ZN5Score12displayPointEv+0x736>
		default:
			HAL_GPIO_WritePin(a1_GPIO_Port, a1_Pin, GPIO_PIN_SET);
 800236c:	2201      	movs	r2, #1
 800236e:	2120      	movs	r1, #32
 8002370:	4810      	ldr	r0, [pc, #64]	; (80023b4 <_ZN5Score12displayPointEv+0x364>)
 8002372:	f003 fa30 	bl	80057d6 <HAL_GPIO_WritePin>
			HAL_GPIO_WritePin(b1_GPIO_Port, b1_Pin, GPIO_PIN_SET);
 8002376:	2201      	movs	r2, #1
 8002378:	2110      	movs	r1, #16
 800237a:	480f      	ldr	r0, [pc, #60]	; (80023b8 <_ZN5Score12displayPointEv+0x368>)
 800237c:	f003 fa2b 	bl	80057d6 <HAL_GPIO_WritePin>
			HAL_GPIO_WritePin(c1_GPIO_Port, c1_Pin, GPIO_PIN_SET);
 8002380:	2201      	movs	r2, #1
 8002382:	2110      	movs	r1, #16
 8002384:	480d      	ldr	r0, [pc, #52]	; (80023bc <_ZN5Score12displayPointEv+0x36c>)
 8002386:	f003 fa26 	bl	80057d6 <HAL_GPIO_WritePin>
			HAL_GPIO_WritePin(d1_GPIO_Port, d1_Pin, GPIO_PIN_SET);
 800238a:	2201      	movs	r2, #1
 800238c:	2120      	movs	r1, #32
 800238e:	480b      	ldr	r0, [pc, #44]	; (80023bc <_ZN5Score12displayPointEv+0x36c>)
 8002390:	f003 fa21 	bl	80057d6 <HAL_GPIO_WritePin>
			HAL_GPIO_WritePin(e1_GPIO_Port, e1_Pin, GPIO_PIN_SET);
 8002394:	2201      	movs	r2, #1
 8002396:	2180      	movs	r1, #128	; 0x80
 8002398:	4808      	ldr	r0, [pc, #32]	; (80023bc <_ZN5Score12displayPointEv+0x36c>)
 800239a:	f003 fa1c 	bl	80057d6 <HAL_GPIO_WritePin>
			HAL_GPIO_WritePin(f1_GPIO_Port, f1_Pin, GPIO_PIN_SET);
 800239e:	2201      	movs	r2, #1
 80023a0:	2140      	movs	r1, #64	; 0x40
 80023a2:	4804      	ldr	r0, [pc, #16]	; (80023b4 <_ZN5Score12displayPointEv+0x364>)
 80023a4:	f003 fa17 	bl	80057d6 <HAL_GPIO_WritePin>
			HAL_GPIO_WritePin(g1_GPIO_Port, g1_Pin, GPIO_PIN_SET);
 80023a8:	2201      	movs	r2, #1
 80023aa:	2140      	movs	r1, #64	; 0x40
 80023ac:	4803      	ldr	r0, [pc, #12]	; (80023bc <_ZN5Score12displayPointEv+0x36c>)
 80023ae:	f003 fa12 	bl	80057d6 <HAL_GPIO_WritePin>
			HAL_GPIO_WritePin(e2_GPIO_Port, e2_Pin, GPIO_PIN_SET);
			HAL_GPIO_WritePin(f2_GPIO_Port, f2_Pin, GPIO_PIN_SET);
			HAL_GPIO_WritePin(g2_GPIO_Port, g2_Pin, GPIO_PIN_SET);
		}
	}
}
 80023b2:	e1e8      	b.n	8002786 <_ZN5Score12displayPointEv+0x736>
 80023b4:	40011800 	.word	0x40011800
 80023b8:	40011000 	.word	0x40011000
 80023bc:	40010800 	.word	0x40010800
		switch (point) {
 80023c0:	687b      	ldr	r3, [r7, #4]
 80023c2:	685b      	ldr	r3, [r3, #4]
 80023c4:	2b09      	cmp	r3, #9
 80023c6:	f200 81b5 	bhi.w	8002734 <_ZN5Score12displayPointEv+0x6e4>
 80023ca:	a201      	add	r2, pc, #4	; (adr r2, 80023d0 <_ZN5Score12displayPointEv+0x380>)
 80023cc:	f852 f023 	ldr.w	pc, [r2, r3, lsl #2]
 80023d0:	080023f9 	.word	0x080023f9
 80023d4:	0800244b 	.word	0x0800244b
 80023d8:	0800249d 	.word	0x0800249d
 80023dc:	080024ef 	.word	0x080024ef
 80023e0:	08002541 	.word	0x08002541
 80023e4:	08002593 	.word	0x08002593
 80023e8:	080025e5 	.word	0x080025e5
 80023ec:	08002637 	.word	0x08002637
 80023f0:	08002689 	.word	0x08002689
 80023f4:	080026db 	.word	0x080026db
			HAL_GPIO_WritePin(a2_GPIO_Port, a2_Pin, GPIO_PIN_RESET);
 80023f8:	2200      	movs	r2, #0
 80023fa:	2140      	movs	r1, #64	; 0x40
 80023fc:	48cb      	ldr	r0, [pc, #812]	; (800272c <_ZN5Score12displayPointEv+0x6dc>)
 80023fe:	f003 f9ea 	bl	80057d6 <HAL_GPIO_WritePin>
			HAL_GPIO_WritePin(b2_GPIO_Port, b2_Pin, GPIO_PIN_RESET);
 8002402:	2200      	movs	r2, #0
 8002404:	f44f 7180 	mov.w	r1, #256	; 0x100
 8002408:	48c9      	ldr	r0, [pc, #804]	; (8002730 <_ZN5Score12displayPointEv+0x6e0>)
 800240a:	f003 f9e4 	bl	80057d6 <HAL_GPIO_WritePin>
			HAL_GPIO_WritePin(c2_GPIO_Port, c2_Pin, GPIO_PIN_RESET);
 800240e:	2200      	movs	r2, #0
 8002410:	f44f 5180 	mov.w	r1, #4096	; 0x1000
 8002414:	48c6      	ldr	r0, [pc, #792]	; (8002730 <_ZN5Score12displayPointEv+0x6e0>)
 8002416:	f003 f9de 	bl	80057d6 <HAL_GPIO_WritePin>
			HAL_GPIO_WritePin(d2_GPIO_Port, d2_Pin, GPIO_PIN_RESET);
 800241a:	2200      	movs	r2, #0
 800241c:	f44f 5100 	mov.w	r1, #8192	; 0x2000
 8002420:	48c3      	ldr	r0, [pc, #780]	; (8002730 <_ZN5Score12displayPointEv+0x6e0>)
 8002422:	f003 f9d8 	bl	80057d6 <HAL_GPIO_WritePin>
			HAL_GPIO_WritePin(e2_GPIO_Port, e2_Pin, GPIO_PIN_RESET);
 8002426:	2200      	movs	r2, #0
 8002428:	f44f 4100 	mov.w	r1, #32768	; 0x8000
 800242c:	48c0      	ldr	r0, [pc, #768]	; (8002730 <_ZN5Score12displayPointEv+0x6e0>)
 800242e:	f003 f9d2 	bl	80057d6 <HAL_GPIO_WritePin>
			HAL_GPIO_WritePin(f2_GPIO_Port, f2_Pin, GPIO_PIN_RESET);
 8002432:	2200      	movs	r2, #0
 8002434:	2180      	movs	r1, #128	; 0x80
 8002436:	48bd      	ldr	r0, [pc, #756]	; (800272c <_ZN5Score12displayPointEv+0x6dc>)
 8002438:	f003 f9cd 	bl	80057d6 <HAL_GPIO_WritePin>
			HAL_GPIO_WritePin(g2_GPIO_Port, g2_Pin, GPIO_PIN_SET);
 800243c:	2201      	movs	r2, #1
 800243e:	f44f 4180 	mov.w	r1, #16384	; 0x4000
 8002442:	48bb      	ldr	r0, [pc, #748]	; (8002730 <_ZN5Score12displayPointEv+0x6e0>)
 8002444:	f003 f9c7 	bl	80057d6 <HAL_GPIO_WritePin>
			break;
 8002448:	e19d      	b.n	8002786 <_ZN5Score12displayPointEv+0x736>
			HAL_GPIO_WritePin(a2_GPIO_Port, a2_Pin, GPIO_PIN_SET);
 800244a:	2201      	movs	r2, #1
 800244c:	2140      	movs	r1, #64	; 0x40
 800244e:	48b7      	ldr	r0, [pc, #732]	; (800272c <_ZN5Score12displayPointEv+0x6dc>)
 8002450:	f003 f9c1 	bl	80057d6 <HAL_GPIO_WritePin>
			HAL_GPIO_WritePin(b2_GPIO_Port, b2_Pin, GPIO_PIN_RESET);
 8002454:	2200      	movs	r2, #0
 8002456:	f44f 7180 	mov.w	r1, #256	; 0x100
 800245a:	48b5      	ldr	r0, [pc, #724]	; (8002730 <_ZN5Score12displayPointEv+0x6e0>)
 800245c:	f003 f9bb 	bl	80057d6 <HAL_GPIO_WritePin>
			HAL_GPIO_WritePin(c2_GPIO_Port, c2_Pin, GPIO_PIN_RESET);
 8002460:	2200      	movs	r2, #0
 8002462:	f44f 5180 	mov.w	r1, #4096	; 0x1000
 8002466:	48b2      	ldr	r0, [pc, #712]	; (8002730 <_ZN5Score12displayPointEv+0x6e0>)
 8002468:	f003 f9b5 	bl	80057d6 <HAL_GPIO_WritePin>
			HAL_GPIO_WritePin(d2_GPIO_Port, d2_Pin, GPIO_PIN_SET);
 800246c:	2201      	movs	r2, #1
 800246e:	f44f 5100 	mov.w	r1, #8192	; 0x2000
 8002472:	48af      	ldr	r0, [pc, #700]	; (8002730 <_ZN5Score12displayPointEv+0x6e0>)
 8002474:	f003 f9af 	bl	80057d6 <HAL_GPIO_WritePin>
			HAL_GPIO_WritePin(e2_GPIO_Port, e2_Pin, GPIO_PIN_SET);
 8002478:	2201      	movs	r2, #1
 800247a:	f44f 4100 	mov.w	r1, #32768	; 0x8000
 800247e:	48ac      	ldr	r0, [pc, #688]	; (8002730 <_ZN5Score12displayPointEv+0x6e0>)
 8002480:	f003 f9a9 	bl	80057d6 <HAL_GPIO_WritePin>
			HAL_GPIO_WritePin(f2_GPIO_Port, f2_Pin, GPIO_PIN_SET);
 8002484:	2201      	movs	r2, #1
 8002486:	2180      	movs	r1, #128	; 0x80
 8002488:	48a8      	ldr	r0, [pc, #672]	; (800272c <_ZN5Score12displayPointEv+0x6dc>)
 800248a:	f003 f9a4 	bl	80057d6 <HAL_GPIO_WritePin>
			HAL_GPIO_WritePin(g2_GPIO_Port, g2_Pin, GPIO_PIN_SET);
 800248e:	2201      	movs	r2, #1
 8002490:	f44f 4180 	mov.w	r1, #16384	; 0x4000
 8002494:	48a6      	ldr	r0, [pc, #664]	; (8002730 <_ZN5Score12displayPointEv+0x6e0>)
 8002496:	f003 f99e 	bl	80057d6 <HAL_GPIO_WritePin>
			break;
 800249a:	e174      	b.n	8002786 <_ZN5Score12displayPointEv+0x736>
			HAL_GPIO_WritePin(a2_GPIO_Port, a2_Pin, GPIO_PIN_RESET);
 800249c:	2200      	movs	r2, #0
 800249e:	2140      	movs	r1, #64	; 0x40
 80024a0:	48a2      	ldr	r0, [pc, #648]	; (800272c <_ZN5Score12displayPointEv+0x6dc>)
 80024a2:	f003 f998 	bl	80057d6 <HAL_GPIO_WritePin>
			HAL_GPIO_WritePin(b2_GPIO_Port, b2_Pin, GPIO_PIN_RESET);
 80024a6:	2200      	movs	r2, #0
 80024a8:	f44f 7180 	mov.w	r1, #256	; 0x100
 80024ac:	48a0      	ldr	r0, [pc, #640]	; (8002730 <_ZN5Score12displayPointEv+0x6e0>)
 80024ae:	f003 f992 	bl	80057d6 <HAL_GPIO_WritePin>
			HAL_GPIO_WritePin(c2_GPIO_Port, c2_Pin, GPIO_PIN_SET);
 80024b2:	2201      	movs	r2, #1
 80024b4:	f44f 5180 	mov.w	r1, #4096	; 0x1000
 80024b8:	489d      	ldr	r0, [pc, #628]	; (8002730 <_ZN5Score12displayPointEv+0x6e0>)
 80024ba:	f003 f98c 	bl	80057d6 <HAL_GPIO_WritePin>
			HAL_GPIO_WritePin(d2_GPIO_Port, d2_Pin, GPIO_PIN_RESET);
 80024be:	2200      	movs	r2, #0
 80024c0:	f44f 5100 	mov.w	r1, #8192	; 0x2000
 80024c4:	489a      	ldr	r0, [pc, #616]	; (8002730 <_ZN5Score12displayPointEv+0x6e0>)
 80024c6:	f003 f986 	bl	80057d6 <HAL_GPIO_WritePin>
			HAL_GPIO_WritePin(e2_GPIO_Port, e2_Pin, GPIO_PIN_RESET);
 80024ca:	2200      	movs	r2, #0
 80024cc:	f44f 4100 	mov.w	r1, #32768	; 0x8000
 80024d0:	4897      	ldr	r0, [pc, #604]	; (8002730 <_ZN5Score12displayPointEv+0x6e0>)
 80024d2:	f003 f980 	bl	80057d6 <HAL_GPIO_WritePin>
			HAL_GPIO_WritePin(f2_GPIO_Port, f2_Pin, GPIO_PIN_SET);
 80024d6:	2201      	movs	r2, #1
 80024d8:	2180      	movs	r1, #128	; 0x80
 80024da:	4894      	ldr	r0, [pc, #592]	; (800272c <_ZN5Score12displayPointEv+0x6dc>)
 80024dc:	f003 f97b 	bl	80057d6 <HAL_GPIO_WritePin>
			HAL_GPIO_WritePin(g2_GPIO_Port, g2_Pin, GPIO_PIN_RESET);
 80024e0:	2200      	movs	r2, #0
 80024e2:	f44f 4180 	mov.w	r1, #16384	; 0x4000
 80024e6:	4892      	ldr	r0, [pc, #584]	; (8002730 <_ZN5Score12displayPointEv+0x6e0>)
 80024e8:	f003 f975 	bl	80057d6 <HAL_GPIO_WritePin>
			break;
 80024ec:	e14b      	b.n	8002786 <_ZN5Score12displayPointEv+0x736>
			HAL_GPIO_WritePin(a2_GPIO_Port, a2_Pin, GPIO_PIN_RESET);
 80024ee:	2200      	movs	r2, #0
 80024f0:	2140      	movs	r1, #64	; 0x40
 80024f2:	488e      	ldr	r0, [pc, #568]	; (800272c <_ZN5Score12displayPointEv+0x6dc>)
 80024f4:	f003 f96f 	bl	80057d6 <HAL_GPIO_WritePin>
			HAL_GPIO_WritePin(b2_GPIO_Port, b2_Pin, GPIO_PIN_RESET);
 80024f8:	2200      	movs	r2, #0
 80024fa:	f44f 7180 	mov.w	r1, #256	; 0x100
 80024fe:	488c      	ldr	r0, [pc, #560]	; (8002730 <_ZN5Score12displayPointEv+0x6e0>)
 8002500:	f003 f969 	bl	80057d6 <HAL_GPIO_WritePin>
			HAL_GPIO_WritePin(c2_GPIO_Port, c2_Pin, GPIO_PIN_RESET);
 8002504:	2200      	movs	r2, #0
 8002506:	f44f 5180 	mov.w	r1, #4096	; 0x1000
 800250a:	4889      	ldr	r0, [pc, #548]	; (8002730 <_ZN5Score12displayPointEv+0x6e0>)
 800250c:	f003 f963 	bl	80057d6 <HAL_GPIO_WritePin>
			HAL_GPIO_WritePin(d2_GPIO_Port, d2_Pin, GPIO_PIN_RESET);
 8002510:	2200      	movs	r2, #0
 8002512:	f44f 5100 	mov.w	r1, #8192	; 0x2000
 8002516:	4886      	ldr	r0, [pc, #536]	; (8002730 <_ZN5Score12displayPointEv+0x6e0>)
 8002518:	f003 f95d 	bl	80057d6 <HAL_GPIO_WritePin>
			HAL_GPIO_WritePin(e2_GPIO_Port, e2_Pin, GPIO_PIN_SET);
 800251c:	2201      	movs	r2, #1
 800251e:	f44f 4100 	mov.w	r1, #32768	; 0x8000
 8002522:	4883      	ldr	r0, [pc, #524]	; (8002730 <_ZN5Score12displayPointEv+0x6e0>)
 8002524:	f003 f957 	bl	80057d6 <HAL_GPIO_WritePin>
			HAL_GPIO_WritePin(f2_GPIO_Port, f2_Pin, GPIO_PIN_SET);
 8002528:	2201      	movs	r2, #1
 800252a:	2180      	movs	r1, #128	; 0x80
 800252c:	487f      	ldr	r0, [pc, #508]	; (800272c <_ZN5Score12displayPointEv+0x6dc>)
 800252e:	f003 f952 	bl	80057d6 <HAL_GPIO_WritePin>
			HAL_GPIO_WritePin(g2_GPIO_Port, g2_Pin, GPIO_PIN_RESET);
 8002532:	2200      	movs	r2, #0
 8002534:	f44f 4180 	mov.w	r1, #16384	; 0x4000
 8002538:	487d      	ldr	r0, [pc, #500]	; (8002730 <_ZN5Score12displayPointEv+0x6e0>)
 800253a:	f003 f94c 	bl	80057d6 <HAL_GPIO_WritePin>
			break;
 800253e:	e122      	b.n	8002786 <_ZN5Score12displayPointEv+0x736>
			HAL_GPIO_WritePin(a2_GPIO_Port, a2_Pin, GPIO_PIN_SET);
 8002540:	2201      	movs	r2, #1
 8002542:	2140      	movs	r1, #64	; 0x40
 8002544:	4879      	ldr	r0, [pc, #484]	; (800272c <_ZN5Score12displayPointEv+0x6dc>)
 8002546:	f003 f946 	bl	80057d6 <HAL_GPIO_WritePin>
			HAL_GPIO_WritePin(b2_GPIO_Port, b2_Pin, GPIO_PIN_RESET);
 800254a:	2200      	movs	r2, #0
 800254c:	f44f 7180 	mov.w	r1, #256	; 0x100
 8002550:	4877      	ldr	r0, [pc, #476]	; (8002730 <_ZN5Score12displayPointEv+0x6e0>)
 8002552:	f003 f940 	bl	80057d6 <HAL_GPIO_WritePin>
			HAL_GPIO_WritePin(c2_GPIO_Port, c2_Pin, GPIO_PIN_RESET);
 8002556:	2200      	movs	r2, #0
 8002558:	f44f 5180 	mov.w	r1, #4096	; 0x1000
 800255c:	4874      	ldr	r0, [pc, #464]	; (8002730 <_ZN5Score12displayPointEv+0x6e0>)
 800255e:	f003 f93a 	bl	80057d6 <HAL_GPIO_WritePin>
			HAL_GPIO_WritePin(d2_GPIO_Port, d2_Pin, GPIO_PIN_SET);
 8002562:	2201      	movs	r2, #1
 8002564:	f44f 5100 	mov.w	r1, #8192	; 0x2000
 8002568:	4871      	ldr	r0, [pc, #452]	; (8002730 <_ZN5Score12displayPointEv+0x6e0>)
 800256a:	f003 f934 	bl	80057d6 <HAL_GPIO_WritePin>
			HAL_GPIO_WritePin(e2_GPIO_Port, e2_Pin, GPIO_PIN_SET);
 800256e:	2201      	movs	r2, #1
 8002570:	f44f 4100 	mov.w	r1, #32768	; 0x8000
 8002574:	486e      	ldr	r0, [pc, #440]	; (8002730 <_ZN5Score12displayPointEv+0x6e0>)
 8002576:	f003 f92e 	bl	80057d6 <HAL_GPIO_WritePin>
			HAL_GPIO_WritePin(f2_GPIO_Port, f2_Pin, GPIO_PIN_RESET);
 800257a:	2200      	movs	r2, #0
 800257c:	2180      	movs	r1, #128	; 0x80
 800257e:	486b      	ldr	r0, [pc, #428]	; (800272c <_ZN5Score12displayPointEv+0x6dc>)
 8002580:	f003 f929 	bl	80057d6 <HAL_GPIO_WritePin>
			HAL_GPIO_WritePin(g2_GPIO_Port, g2_Pin, GPIO_PIN_RESET);
 8002584:	2200      	movs	r2, #0
 8002586:	f44f 4180 	mov.w	r1, #16384	; 0x4000
 800258a:	4869      	ldr	r0, [pc, #420]	; (8002730 <_ZN5Score12displayPointEv+0x6e0>)
 800258c:	f003 f923 	bl	80057d6 <HAL_GPIO_WritePin>
			break;
 8002590:	e0f9      	b.n	8002786 <_ZN5Score12displayPointEv+0x736>
			HAL_GPIO_WritePin(a2_GPIO_Port, a2_Pin, GPIO_PIN_RESET);
 8002592:	2200      	movs	r2, #0
 8002594:	2140      	movs	r1, #64	; 0x40
 8002596:	4865      	ldr	r0, [pc, #404]	; (800272c <_ZN5Score12displayPointEv+0x6dc>)
 8002598:	f003 f91d 	bl	80057d6 <HAL_GPIO_WritePin>
			HAL_GPIO_WritePin(b2_GPIO_Port, b2_Pin, GPIO_PIN_SET);
 800259c:	2201      	movs	r2, #1
 800259e:	f44f 7180 	mov.w	r1, #256	; 0x100
 80025a2:	4863      	ldr	r0, [pc, #396]	; (8002730 <_ZN5Score12displayPointEv+0x6e0>)
 80025a4:	f003 f917 	bl	80057d6 <HAL_GPIO_WritePin>
			HAL_GPIO_WritePin(c2_GPIO_Port, c2_Pin, GPIO_PIN_RESET);
 80025a8:	2200      	movs	r2, #0
 80025aa:	f44f 5180 	mov.w	r1, #4096	; 0x1000
 80025ae:	4860      	ldr	r0, [pc, #384]	; (8002730 <_ZN5Score12displayPointEv+0x6e0>)
 80025b0:	f003 f911 	bl	80057d6 <HAL_GPIO_WritePin>
			HAL_GPIO_WritePin(d2_GPIO_Port, d2_Pin, GPIO_PIN_RESET);
 80025b4:	2200      	movs	r2, #0
 80025b6:	f44f 5100 	mov.w	r1, #8192	; 0x2000
 80025ba:	485d      	ldr	r0, [pc, #372]	; (8002730 <_ZN5Score12displayPointEv+0x6e0>)
 80025bc:	f003 f90b 	bl	80057d6 <HAL_GPIO_WritePin>
			HAL_GPIO_WritePin(e2_GPIO_Port, e2_Pin, GPIO_PIN_SET);
 80025c0:	2201      	movs	r2, #1
 80025c2:	f44f 4100 	mov.w	r1, #32768	; 0x8000
 80025c6:	485a      	ldr	r0, [pc, #360]	; (8002730 <_ZN5Score12displayPointEv+0x6e0>)
 80025c8:	f003 f905 	bl	80057d6 <HAL_GPIO_WritePin>
			HAL_GPIO_WritePin(f2_GPIO_Port, f2_Pin, GPIO_PIN_RESET);
 80025cc:	2200      	movs	r2, #0
 80025ce:	2180      	movs	r1, #128	; 0x80
 80025d0:	4856      	ldr	r0, [pc, #344]	; (800272c <_ZN5Score12displayPointEv+0x6dc>)
 80025d2:	f003 f900 	bl	80057d6 <HAL_GPIO_WritePin>
			HAL_GPIO_WritePin(g2_GPIO_Port, g2_Pin, GPIO_PIN_RESET);
 80025d6:	2200      	movs	r2, #0
 80025d8:	f44f 4180 	mov.w	r1, #16384	; 0x4000
 80025dc:	4854      	ldr	r0, [pc, #336]	; (8002730 <_ZN5Score12displayPointEv+0x6e0>)
 80025de:	f003 f8fa 	bl	80057d6 <HAL_GPIO_WritePin>
			break;
 80025e2:	e0d0      	b.n	8002786 <_ZN5Score12displayPointEv+0x736>
			HAL_GPIO_WritePin(a2_GPIO_Port, a2_Pin, GPIO_PIN_RESET);
 80025e4:	2200      	movs	r2, #0
 80025e6:	2140      	movs	r1, #64	; 0x40
 80025e8:	4850      	ldr	r0, [pc, #320]	; (800272c <_ZN5Score12displayPointEv+0x6dc>)
 80025ea:	f003 f8f4 	bl	80057d6 <HAL_GPIO_WritePin>
			HAL_GPIO_WritePin(b2_GPIO_Port, b2_Pin, GPIO_PIN_SET);
 80025ee:	2201      	movs	r2, #1
 80025f0:	f44f 7180 	mov.w	r1, #256	; 0x100
 80025f4:	484e      	ldr	r0, [pc, #312]	; (8002730 <_ZN5Score12displayPointEv+0x6e0>)
 80025f6:	f003 f8ee 	bl	80057d6 <HAL_GPIO_WritePin>
			HAL_GPIO_WritePin(c2_GPIO_Port, c2_Pin, GPIO_PIN_RESET);
 80025fa:	2200      	movs	r2, #0
 80025fc:	f44f 5180 	mov.w	r1, #4096	; 0x1000
 8002600:	484b      	ldr	r0, [pc, #300]	; (8002730 <_ZN5Score12displayPointEv+0x6e0>)
 8002602:	f003 f8e8 	bl	80057d6 <HAL_GPIO_WritePin>
			HAL_GPIO_WritePin(d2_GPIO_Port, d2_Pin, GPIO_PIN_RESET);
 8002606:	2200      	movs	r2, #0
 8002608:	f44f 5100 	mov.w	r1, #8192	; 0x2000
 800260c:	4848      	ldr	r0, [pc, #288]	; (8002730 <_ZN5Score12displayPointEv+0x6e0>)
 800260e:	f003 f8e2 	bl	80057d6 <HAL_GPIO_WritePin>
			HAL_GPIO_WritePin(e2_GPIO_Port, e2_Pin, GPIO_PIN_RESET);
 8002612:	2200      	movs	r2, #0
 8002614:	f44f 4100 	mov.w	r1, #32768	; 0x8000
 8002618:	4845      	ldr	r0, [pc, #276]	; (8002730 <_ZN5Score12displayPointEv+0x6e0>)
 800261a:	f003 f8dc 	bl	80057d6 <HAL_GPIO_WritePin>
			HAL_GPIO_WritePin(f2_GPIO_Port, f2_Pin, GPIO_PIN_RESET);
 800261e:	2200      	movs	r2, #0
 8002620:	2180      	movs	r1, #128	; 0x80
 8002622:	4842      	ldr	r0, [pc, #264]	; (800272c <_ZN5Score12displayPointEv+0x6dc>)
 8002624:	f003 f8d7 	bl	80057d6 <HAL_GPIO_WritePin>
			HAL_GPIO_WritePin(g2_GPIO_Port, g2_Pin, GPIO_PIN_RESET);
 8002628:	2200      	movs	r2, #0
 800262a:	f44f 4180 	mov.w	r1, #16384	; 0x4000
 800262e:	4840      	ldr	r0, [pc, #256]	; (8002730 <_ZN5Score12displayPointEv+0x6e0>)
 8002630:	f003 f8d1 	bl	80057d6 <HAL_GPIO_WritePin>
			break;
 8002634:	e0a7      	b.n	8002786 <_ZN5Score12displayPointEv+0x736>
			HAL_GPIO_WritePin(a2_GPIO_Port, a2_Pin, GPIO_PIN_RESET);
 8002636:	2200      	movs	r2, #0
 8002638:	2140      	movs	r1, #64	; 0x40
 800263a:	483c      	ldr	r0, [pc, #240]	; (800272c <_ZN5Score12displayPointEv+0x6dc>)
 800263c:	f003 f8cb 	bl	80057d6 <HAL_GPIO_WritePin>
			HAL_GPIO_WritePin(b2_GPIO_Port, b2_Pin, GPIO_PIN_RESET);
 8002640:	2200      	movs	r2, #0
 8002642:	f44f 7180 	mov.w	r1, #256	; 0x100
 8002646:	483a      	ldr	r0, [pc, #232]	; (8002730 <_ZN5Score12displayPointEv+0x6e0>)
 8002648:	f003 f8c5 	bl	80057d6 <HAL_GPIO_WritePin>
			HAL_GPIO_WritePin(c2_GPIO_Port, c2_Pin, GPIO_PIN_RESET);
 800264c:	2200      	movs	r2, #0
 800264e:	f44f 5180 	mov.w	r1, #4096	; 0x1000
 8002652:	4837      	ldr	r0, [pc, #220]	; (8002730 <_ZN5Score12displayPointEv+0x6e0>)
 8002654:	f003 f8bf 	bl	80057d6 <HAL_GPIO_WritePin>
			HAL_GPIO_WritePin(d2_GPIO_Port, d2_Pin, GPIO_PIN_SET);
 8002658:	2201      	movs	r2, #1
 800265a:	f44f 5100 	mov.w	r1, #8192	; 0x2000
 800265e:	4834      	ldr	r0, [pc, #208]	; (8002730 <_ZN5Score12displayPointEv+0x6e0>)
 8002660:	f003 f8b9 	bl	80057d6 <HAL_GPIO_WritePin>
			HAL_GPIO_WritePin(e2_GPIO_Port, e2_Pin, GPIO_PIN_SET);
 8002664:	2201      	movs	r2, #1
 8002666:	f44f 4100 	mov.w	r1, #32768	; 0x8000
 800266a:	4831      	ldr	r0, [pc, #196]	; (8002730 <_ZN5Score12displayPointEv+0x6e0>)
 800266c:	f003 f8b3 	bl	80057d6 <HAL_GPIO_WritePin>
			HAL_GPIO_WritePin(f2_GPIO_Port, f2_Pin, GPIO_PIN_SET);
 8002670:	2201      	movs	r2, #1
 8002672:	2180      	movs	r1, #128	; 0x80
 8002674:	482d      	ldr	r0, [pc, #180]	; (800272c <_ZN5Score12displayPointEv+0x6dc>)
 8002676:	f003 f8ae 	bl	80057d6 <HAL_GPIO_WritePin>
			HAL_GPIO_WritePin(g2_GPIO_Port, g2_Pin, GPIO_PIN_SET);
 800267a:	2201      	movs	r2, #1
 800267c:	f44f 4180 	mov.w	r1, #16384	; 0x4000
 8002680:	482b      	ldr	r0, [pc, #172]	; (8002730 <_ZN5Score12displayPointEv+0x6e0>)
 8002682:	f003 f8a8 	bl	80057d6 <HAL_GPIO_WritePin>
			break;
 8002686:	e07e      	b.n	8002786 <_ZN5Score12displayPointEv+0x736>
			HAL_GPIO_WritePin(a2_GPIO_Port, a2_Pin, GPIO_PIN_RESET);
 8002688:	2200      	movs	r2, #0
 800268a:	2140      	movs	r1, #64	; 0x40
 800268c:	4827      	ldr	r0, [pc, #156]	; (800272c <_ZN5Score12displayPointEv+0x6dc>)
 800268e:	f003 f8a2 	bl	80057d6 <HAL_GPIO_WritePin>
			HAL_GPIO_WritePin(b2_GPIO_Port, b2_Pin, GPIO_PIN_RESET);
 8002692:	2200      	movs	r2, #0
 8002694:	f44f 7180 	mov.w	r1, #256	; 0x100
 8002698:	4825      	ldr	r0, [pc, #148]	; (8002730 <_ZN5Score12displayPointEv+0x6e0>)
 800269a:	f003 f89c 	bl	80057d6 <HAL_GPIO_WritePin>
			HAL_GPIO_WritePin(c2_GPIO_Port, c2_Pin, GPIO_PIN_RESET);
 800269e:	2200      	movs	r2, #0
 80026a0:	f44f 5180 	mov.w	r1, #4096	; 0x1000
 80026a4:	4822      	ldr	r0, [pc, #136]	; (8002730 <_ZN5Score12displayPointEv+0x6e0>)
 80026a6:	f003 f896 	bl	80057d6 <HAL_GPIO_WritePin>
			HAL_GPIO_WritePin(d2_GPIO_Port, d2_Pin, GPIO_PIN_RESET);
 80026aa:	2200      	movs	r2, #0
 80026ac:	f44f 5100 	mov.w	r1, #8192	; 0x2000
 80026b0:	481f      	ldr	r0, [pc, #124]	; (8002730 <_ZN5Score12displayPointEv+0x6e0>)
 80026b2:	f003 f890 	bl	80057d6 <HAL_GPIO_WritePin>
			HAL_GPIO_WritePin(e2_GPIO_Port, e2_Pin, GPIO_PIN_RESET);
 80026b6:	2200      	movs	r2, #0
 80026b8:	f44f 4100 	mov.w	r1, #32768	; 0x8000
 80026bc:	481c      	ldr	r0, [pc, #112]	; (8002730 <_ZN5Score12displayPointEv+0x6e0>)
 80026be:	f003 f88a 	bl	80057d6 <HAL_GPIO_WritePin>
			HAL_GPIO_WritePin(f2_GPIO_Port, f2_Pin, GPIO_PIN_RESET);
 80026c2:	2200      	movs	r2, #0
 80026c4:	2180      	movs	r1, #128	; 0x80
 80026c6:	4819      	ldr	r0, [pc, #100]	; (800272c <_ZN5Score12displayPointEv+0x6dc>)
 80026c8:	f003 f885 	bl	80057d6 <HAL_GPIO_WritePin>
			HAL_GPIO_WritePin(g2_GPIO_Port, g2_Pin, GPIO_PIN_RESET);
 80026cc:	2200      	movs	r2, #0
 80026ce:	f44f 4180 	mov.w	r1, #16384	; 0x4000
 80026d2:	4817      	ldr	r0, [pc, #92]	; (8002730 <_ZN5Score12displayPointEv+0x6e0>)
 80026d4:	f003 f87f 	bl	80057d6 <HAL_GPIO_WritePin>
			break;
 80026d8:	e055      	b.n	8002786 <_ZN5Score12displayPointEv+0x736>
			HAL_GPIO_WritePin(a2_GPIO_Port, a2_Pin, GPIO_PIN_RESET);
 80026da:	2200      	movs	r2, #0
 80026dc:	2140      	movs	r1, #64	; 0x40
 80026de:	4813      	ldr	r0, [pc, #76]	; (800272c <_ZN5Score12displayPointEv+0x6dc>)
 80026e0:	f003 f879 	bl	80057d6 <HAL_GPIO_WritePin>
			HAL_GPIO_WritePin(b2_GPIO_Port, b2_Pin, GPIO_PIN_RESET);
 80026e4:	2200      	movs	r2, #0
 80026e6:	f44f 7180 	mov.w	r1, #256	; 0x100
 80026ea:	4811      	ldr	r0, [pc, #68]	; (8002730 <_ZN5Score12displayPointEv+0x6e0>)
 80026ec:	f003 f873 	bl	80057d6 <HAL_GPIO_WritePin>
			HAL_GPIO_WritePin(c2_GPIO_Port, c2_Pin, GPIO_PIN_RESET);
 80026f0:	2200      	movs	r2, #0
 80026f2:	f44f 5180 	mov.w	r1, #4096	; 0x1000
 80026f6:	480e      	ldr	r0, [pc, #56]	; (8002730 <_ZN5Score12displayPointEv+0x6e0>)
 80026f8:	f003 f86d 	bl	80057d6 <HAL_GPIO_WritePin>
			HAL_GPIO_WritePin(d2_GPIO_Port, d2_Pin, GPIO_PIN_RESET);
 80026fc:	2200      	movs	r2, #0
 80026fe:	f44f 5100 	mov.w	r1, #8192	; 0x2000
 8002702:	480b      	ldr	r0, [pc, #44]	; (8002730 <_ZN5Score12displayPointEv+0x6e0>)
 8002704:	f003 f867 	bl	80057d6 <HAL_GPIO_WritePin>
			HAL_GPIO_WritePin(e2_GPIO_Port, e2_Pin, GPIO_PIN_SET);
 8002708:	2201      	movs	r2, #1
 800270a:	f44f 4100 	mov.w	r1, #32768	; 0x8000
 800270e:	4808      	ldr	r0, [pc, #32]	; (8002730 <_ZN5Score12displayPointEv+0x6e0>)
 8002710:	f003 f861 	bl	80057d6 <HAL_GPIO_WritePin>
			HAL_GPIO_WritePin(f2_GPIO_Port, f2_Pin, GPIO_PIN_RESET);
 8002714:	2200      	movs	r2, #0
 8002716:	2180      	movs	r1, #128	; 0x80
 8002718:	4804      	ldr	r0, [pc, #16]	; (800272c <_ZN5Score12displayPointEv+0x6dc>)
 800271a:	f003 f85c 	bl	80057d6 <HAL_GPIO_WritePin>
			HAL_GPIO_WritePin(g2_GPIO_Port, g2_Pin, GPIO_PIN_RESET);
 800271e:	2200      	movs	r2, #0
 8002720:	f44f 4180 	mov.w	r1, #16384	; 0x4000
 8002724:	4802      	ldr	r0, [pc, #8]	; (8002730 <_ZN5Score12displayPointEv+0x6e0>)
 8002726:	f003 f856 	bl	80057d6 <HAL_GPIO_WritePin>
			break;
 800272a:	e02c      	b.n	8002786 <_ZN5Score12displayPointEv+0x736>
 800272c:	40011000 	.word	0x40011000
 8002730:	40010c00 	.word	0x40010c00
			HAL_GPIO_WritePin(a2_GPIO_Port, a2_Pin, GPIO_PIN_SET);
 8002734:	2201      	movs	r2, #1
 8002736:	2140      	movs	r1, #64	; 0x40
 8002738:	4815      	ldr	r0, [pc, #84]	; (8002790 <_ZN5Score12displayPointEv+0x740>)
 800273a:	f003 f84c 	bl	80057d6 <HAL_GPIO_WritePin>
			HAL_GPIO_WritePin(b2_GPIO_Port, b2_Pin, GPIO_PIN_SET);
 800273e:	2201      	movs	r2, #1
 8002740:	f44f 7180 	mov.w	r1, #256	; 0x100
 8002744:	4813      	ldr	r0, [pc, #76]	; (8002794 <_ZN5Score12displayPointEv+0x744>)
 8002746:	f003 f846 	bl	80057d6 <HAL_GPIO_WritePin>
			HAL_GPIO_WritePin(c2_GPIO_Port, c2_Pin, GPIO_PIN_SET);
 800274a:	2201      	movs	r2, #1
 800274c:	f44f 5180 	mov.w	r1, #4096	; 0x1000
 8002750:	4810      	ldr	r0, [pc, #64]	; (8002794 <_ZN5Score12displayPointEv+0x744>)
 8002752:	f003 f840 	bl	80057d6 <HAL_GPIO_WritePin>
			HAL_GPIO_WritePin(d2_GPIO_Port, d2_Pin, GPIO_PIN_SET);
 8002756:	2201      	movs	r2, #1
 8002758:	f44f 5100 	mov.w	r1, #8192	; 0x2000
 800275c:	480d      	ldr	r0, [pc, #52]	; (8002794 <_ZN5Score12displayPointEv+0x744>)
 800275e:	f003 f83a 	bl	80057d6 <HAL_GPIO_WritePin>
			HAL_GPIO_WritePin(e2_GPIO_Port, e2_Pin, GPIO_PIN_SET);
 8002762:	2201      	movs	r2, #1
 8002764:	f44f 4100 	mov.w	r1, #32768	; 0x8000
 8002768:	480a      	ldr	r0, [pc, #40]	; (8002794 <_ZN5Score12displayPointEv+0x744>)
 800276a:	f003 f834 	bl	80057d6 <HAL_GPIO_WritePin>
			HAL_GPIO_WritePin(f2_GPIO_Port, f2_Pin, GPIO_PIN_SET);
 800276e:	2201      	movs	r2, #1
 8002770:	2180      	movs	r1, #128	; 0x80
 8002772:	4807      	ldr	r0, [pc, #28]	; (8002790 <_ZN5Score12displayPointEv+0x740>)
 8002774:	f003 f82f 	bl	80057d6 <HAL_GPIO_WritePin>
			HAL_GPIO_WritePin(g2_GPIO_Port, g2_Pin, GPIO_PIN_SET);
 8002778:	2201      	movs	r2, #1
 800277a:	f44f 4180 	mov.w	r1, #16384	; 0x4000
 800277e:	4805      	ldr	r0, [pc, #20]	; (8002794 <_ZN5Score12displayPointEv+0x744>)
 8002780:	f003 f829 	bl	80057d6 <HAL_GPIO_WritePin>
}
 8002784:	e7ff      	b.n	8002786 <_ZN5Score12displayPointEv+0x736>
 8002786:	bf00      	nop
 8002788:	3708      	adds	r7, #8
 800278a:	46bd      	mov	sp, r7
 800278c:	bd80      	pop	{r7, pc}
 800278e:	bf00      	nop
 8002790:	40011000 	.word	0x40011000
 8002794:	40010c00 	.word	0x40010c00

08002798 <_ZN5Score8setPointEi>:
void Score::setPoint(int point) {
 8002798:	b580      	push	{r7, lr}
 800279a:	b082      	sub	sp, #8
 800279c:	af00      	add	r7, sp, #0
 800279e:	6078      	str	r0, [r7, #4]
 80027a0:	6039      	str	r1, [r7, #0]
	this->point = point;
 80027a2:	687b      	ldr	r3, [r7, #4]
 80027a4:	683a      	ldr	r2, [r7, #0]
 80027a6:	605a      	str	r2, [r3, #4]
	displayPoint();
 80027a8:	6878      	ldr	r0, [r7, #4]
 80027aa:	f7ff fc51 	bl	8002050 <_ZN5Score12displayPointEv>
}
 80027ae:	bf00      	nop
 80027b0:	3708      	adds	r7, #8
 80027b2:	46bd      	mov	sp, r7
 80027b4:	bd80      	pop	{r7, pc}
	...

080027b8 <_ZN5Score14turnOffDisplayEv>:

void Score::turnOffDisplay() {
 80027b8:	b580      	push	{r7, lr}
 80027ba:	b082      	sub	sp, #8
 80027bc:	af00      	add	r7, sp, #0
 80027be:	6078      	str	r0, [r7, #4]
	if (playerNumber == Player::player1) {
 80027c0:	687b      	ldr	r3, [r7, #4]
 80027c2:	689b      	ldr	r3, [r3, #8]
 80027c4:	2b00      	cmp	r3, #0
 80027c6:	d123      	bne.n	8002810 <_ZN5Score14turnOffDisplayEv+0x58>
		HAL_GPIO_WritePin(a1_GPIO_Port, a1_Pin, GPIO_PIN_SET);
 80027c8:	2201      	movs	r2, #1
 80027ca:	2120      	movs	r1, #32
 80027cc:	4826      	ldr	r0, [pc, #152]	; (8002868 <_ZN5Score14turnOffDisplayEv+0xb0>)
 80027ce:	f003 f802 	bl	80057d6 <HAL_GPIO_WritePin>
		HAL_GPIO_WritePin(b1_GPIO_Port, b1_Pin, GPIO_PIN_SET);
 80027d2:	2201      	movs	r2, #1
 80027d4:	2110      	movs	r1, #16
 80027d6:	4825      	ldr	r0, [pc, #148]	; (800286c <_ZN5Score14turnOffDisplayEv+0xb4>)
 80027d8:	f002 fffd 	bl	80057d6 <HAL_GPIO_WritePin>
		HAL_GPIO_WritePin(c1_GPIO_Port, c1_Pin, GPIO_PIN_SET);
 80027dc:	2201      	movs	r2, #1
 80027de:	2110      	movs	r1, #16
 80027e0:	4823      	ldr	r0, [pc, #140]	; (8002870 <_ZN5Score14turnOffDisplayEv+0xb8>)
 80027e2:	f002 fff8 	bl	80057d6 <HAL_GPIO_WritePin>
		HAL_GPIO_WritePin(d1_GPIO_Port, d1_Pin, GPIO_PIN_SET);
 80027e6:	2201      	movs	r2, #1
 80027e8:	2120      	movs	r1, #32
 80027ea:	4821      	ldr	r0, [pc, #132]	; (8002870 <_ZN5Score14turnOffDisplayEv+0xb8>)
 80027ec:	f002 fff3 	bl	80057d6 <HAL_GPIO_WritePin>
		HAL_GPIO_WritePin(e1_GPIO_Port, e1_Pin, GPIO_PIN_SET);
 80027f0:	2201      	movs	r2, #1
 80027f2:	2180      	movs	r1, #128	; 0x80
 80027f4:	481e      	ldr	r0, [pc, #120]	; (8002870 <_ZN5Score14turnOffDisplayEv+0xb8>)
 80027f6:	f002 ffee 	bl	80057d6 <HAL_GPIO_WritePin>
		HAL_GPIO_WritePin(f1_GPIO_Port, f1_Pin, GPIO_PIN_SET);
 80027fa:	2201      	movs	r2, #1
 80027fc:	2140      	movs	r1, #64	; 0x40
 80027fe:	481a      	ldr	r0, [pc, #104]	; (8002868 <_ZN5Score14turnOffDisplayEv+0xb0>)
 8002800:	f002 ffe9 	bl	80057d6 <HAL_GPIO_WritePin>
		HAL_GPIO_WritePin(g1_GPIO_Port, g1_Pin, GPIO_PIN_SET);
 8002804:	2201      	movs	r2, #1
 8002806:	2140      	movs	r1, #64	; 0x40
 8002808:	4819      	ldr	r0, [pc, #100]	; (8002870 <_ZN5Score14turnOffDisplayEv+0xb8>)
 800280a:	f002 ffe4 	bl	80057d6 <HAL_GPIO_WritePin>
		HAL_GPIO_WritePin(d2_GPIO_Port, d2_Pin, GPIO_PIN_SET);
		HAL_GPIO_WritePin(e2_GPIO_Port, e2_Pin, GPIO_PIN_SET);
		HAL_GPIO_WritePin(f2_GPIO_Port, f2_Pin, GPIO_PIN_SET);
		HAL_GPIO_WritePin(g2_GPIO_Port, g2_Pin, GPIO_PIN_SET);
	}
}
 800280e:	e027      	b.n	8002860 <_ZN5Score14turnOffDisplayEv+0xa8>
		HAL_GPIO_WritePin(a2_GPIO_Port, a2_Pin, GPIO_PIN_SET);
 8002810:	2201      	movs	r2, #1
 8002812:	2140      	movs	r1, #64	; 0x40
 8002814:	4815      	ldr	r0, [pc, #84]	; (800286c <_ZN5Score14turnOffDisplayEv+0xb4>)
 8002816:	f002 ffde 	bl	80057d6 <HAL_GPIO_WritePin>
		HAL_GPIO_WritePin(b2_GPIO_Port, b2_Pin, GPIO_PIN_SET);
 800281a:	2201      	movs	r2, #1
 800281c:	f44f 7180 	mov.w	r1, #256	; 0x100
 8002820:	4814      	ldr	r0, [pc, #80]	; (8002874 <_ZN5Score14turnOffDisplayEv+0xbc>)
 8002822:	f002 ffd8 	bl	80057d6 <HAL_GPIO_WritePin>
		HAL_GPIO_WritePin(c2_GPIO_Port, c2_Pin, GPIO_PIN_SET);
 8002826:	2201      	movs	r2, #1
 8002828:	f44f 5180 	mov.w	r1, #4096	; 0x1000
 800282c:	4811      	ldr	r0, [pc, #68]	; (8002874 <_ZN5Score14turnOffDisplayEv+0xbc>)
 800282e:	f002 ffd2 	bl	80057d6 <HAL_GPIO_WritePin>
		HAL_GPIO_WritePin(d2_GPIO_Port, d2_Pin, GPIO_PIN_SET);
 8002832:	2201      	movs	r2, #1
 8002834:	f44f 5100 	mov.w	r1, #8192	; 0x2000
 8002838:	480e      	ldr	r0, [pc, #56]	; (8002874 <_ZN5Score14turnOffDisplayEv+0xbc>)
 800283a:	f002 ffcc 	bl	80057d6 <HAL_GPIO_WritePin>
		HAL_GPIO_WritePin(e2_GPIO_Port, e2_Pin, GPIO_PIN_SET);
 800283e:	2201      	movs	r2, #1
 8002840:	f44f 4100 	mov.w	r1, #32768	; 0x8000
 8002844:	480b      	ldr	r0, [pc, #44]	; (8002874 <_ZN5Score14turnOffDisplayEv+0xbc>)
 8002846:	f002 ffc6 	bl	80057d6 <HAL_GPIO_WritePin>
		HAL_GPIO_WritePin(f2_GPIO_Port, f2_Pin, GPIO_PIN_SET);
 800284a:	2201      	movs	r2, #1
 800284c:	2180      	movs	r1, #128	; 0x80
 800284e:	4807      	ldr	r0, [pc, #28]	; (800286c <_ZN5Score14turnOffDisplayEv+0xb4>)
 8002850:	f002 ffc1 	bl	80057d6 <HAL_GPIO_WritePin>
		HAL_GPIO_WritePin(g2_GPIO_Port, g2_Pin, GPIO_PIN_SET);
 8002854:	2201      	movs	r2, #1
 8002856:	f44f 4180 	mov.w	r1, #16384	; 0x4000
 800285a:	4806      	ldr	r0, [pc, #24]	; (8002874 <_ZN5Score14turnOffDisplayEv+0xbc>)
 800285c:	f002 ffbb 	bl	80057d6 <HAL_GPIO_WritePin>
}
 8002860:	bf00      	nop
 8002862:	3708      	adds	r7, #8
 8002864:	46bd      	mov	sp, r7
 8002866:	bd80      	pop	{r7, pc}
 8002868:	40011800 	.word	0x40011800
 800286c:	40011000 	.word	0x40011000
 8002870:	40010800 	.word	0x40010800
 8002874:	40010c00 	.word	0x40010c00

08002878 <_ZN5ScoreD1Ev>:
Score::~Score() {
 8002878:	b480      	push	{r7}
 800287a:	b083      	sub	sp, #12
 800287c:	af00      	add	r7, sp, #0
 800287e:	6078      	str	r0, [r7, #4]
 8002880:	4a04      	ldr	r2, [pc, #16]	; (8002894 <_ZN5ScoreD1Ev+0x1c>)
 8002882:	687b      	ldr	r3, [r7, #4]
 8002884:	601a      	str	r2, [r3, #0]
}
 8002886:	687b      	ldr	r3, [r7, #4]
 8002888:	4618      	mov	r0, r3
 800288a:	370c      	adds	r7, #12
 800288c:	46bd      	mov	sp, r7
 800288e:	bc80      	pop	{r7}
 8002890:	4770      	bx	lr
 8002892:	bf00      	nop
 8002894:	08007d7c 	.word	0x08007d7c

08002898 <_ZN5ScoreD0Ev>:
Score::~Score() {
 8002898:	b580      	push	{r7, lr}
 800289a:	b082      	sub	sp, #8
 800289c:	af00      	add	r7, sp, #0
 800289e:	6078      	str	r0, [r7, #4]
}
 80028a0:	6878      	ldr	r0, [r7, #4]
 80028a2:	f7ff ffe9 	bl	8002878 <_ZN5ScoreD1Ev>
 80028a6:	210c      	movs	r1, #12
 80028a8:	6878      	ldr	r0, [r7, #4]
 80028aa:	f004 fd23 	bl	80072f4 <_ZdlPvj>
 80028ae:	687b      	ldr	r3, [r7, #4]
 80028b0:	4618      	mov	r0, r3
 80028b2:	3708      	adds	r7, #8
 80028b4:	46bd      	mov	sp, r7
 80028b6:	bd80      	pop	{r7, pc}

080028b8 <_ZN8SettingsC1Ev>:
#include <Settings.h>

Settings::Settings() {
 80028b8:	b480      	push	{r7}
 80028ba:	b083      	sub	sp, #12
 80028bc:	af00      	add	r7, sp, #0
 80028be:	6078      	str	r0, [r7, #4]
 80028c0:	4a08      	ldr	r2, [pc, #32]	; (80028e4 <_ZN8SettingsC1Ev+0x2c>)
 80028c2:	687b      	ldr	r3, [r7, #4]
 80028c4:	601a      	str	r2, [r3, #0]
	pointsNeeded = 2;
 80028c6:	687b      	ldr	r3, [r7, #4]
 80028c8:	2202      	movs	r2, #2
 80028ca:	605a      	str	r2, [r3, #4]
	ballSpeedIncreaseRate = 1;
 80028cc:	687b      	ldr	r3, [r7, #4]
 80028ce:	2201      	movs	r2, #1
 80028d0:	609a      	str	r2, [r3, #8]
	knockback = true;
 80028d2:	687b      	ldr	r3, [r7, #4]
 80028d4:	2201      	movs	r2, #1
 80028d6:	731a      	strb	r2, [r3, #12]
}
 80028d8:	687b      	ldr	r3, [r7, #4]
 80028da:	4618      	mov	r0, r3
 80028dc:	370c      	adds	r7, #12
 80028de:	46bd      	mov	sp, r7
 80028e0:	bc80      	pop	{r7}
 80028e2:	4770      	bx	lr
 80028e4:	08007d8c 	.word	0x08007d8c

080028e8 <_ZN8Settings15setPointsNeededEv>:

void Settings::setPointsNeeded(){
 80028e8:	b480      	push	{r7}
 80028ea:	b083      	sub	sp, #12
 80028ec:	af00      	add	r7, sp, #0
 80028ee:	6078      	str	r0, [r7, #4]
	if(pointsNeeded<9){
 80028f0:	687b      	ldr	r3, [r7, #4]
 80028f2:	685b      	ldr	r3, [r3, #4]
 80028f4:	2b08      	cmp	r3, #8
 80028f6:	dc05      	bgt.n	8002904 <_ZN8Settings15setPointsNeededEv+0x1c>
		pointsNeeded++;
 80028f8:	687b      	ldr	r3, [r7, #4]
 80028fa:	685b      	ldr	r3, [r3, #4]
 80028fc:	1c5a      	adds	r2, r3, #1
 80028fe:	687b      	ldr	r3, [r7, #4]
 8002900:	605a      	str	r2, [r3, #4]
	}else{
		pointsNeeded = 2;
	}
}
 8002902:	e002      	b.n	800290a <_ZN8Settings15setPointsNeededEv+0x22>
		pointsNeeded = 2;
 8002904:	687b      	ldr	r3, [r7, #4]
 8002906:	2202      	movs	r2, #2
 8002908:	605a      	str	r2, [r3, #4]
}
 800290a:	bf00      	nop
 800290c:	370c      	adds	r7, #12
 800290e:	46bd      	mov	sp, r7
 8002910:	bc80      	pop	{r7}
 8002912:	4770      	bx	lr

08002914 <_ZN8Settings15getPointsNeededEv>:
int Settings::getPointsNeeded(){
 8002914:	b480      	push	{r7}
 8002916:	b083      	sub	sp, #12
 8002918:	af00      	add	r7, sp, #0
 800291a:	6078      	str	r0, [r7, #4]
	return pointsNeeded;
 800291c:	687b      	ldr	r3, [r7, #4]
 800291e:	685b      	ldr	r3, [r3, #4]
}
 8002920:	4618      	mov	r0, r3
 8002922:	370c      	adds	r7, #12
 8002924:	46bd      	mov	sp, r7
 8002926:	bc80      	pop	{r7}
 8002928:	4770      	bx	lr

0800292a <_ZN8Settings24setBallSpeedIncreaseRateEv>:
void Settings::setBallSpeedIncreaseRate(){
 800292a:	b480      	push	{r7}
 800292c:	b083      	sub	sp, #12
 800292e:	af00      	add	r7, sp, #0
 8002930:	6078      	str	r0, [r7, #4]
	if(ballSpeedIncreaseRate < 10){
 8002932:	687b      	ldr	r3, [r7, #4]
 8002934:	689b      	ldr	r3, [r3, #8]
 8002936:	2b09      	cmp	r3, #9
 8002938:	dc05      	bgt.n	8002946 <_ZN8Settings24setBallSpeedIncreaseRateEv+0x1c>
		ballSpeedIncreaseRate++;
 800293a:	687b      	ldr	r3, [r7, #4]
 800293c:	689b      	ldr	r3, [r3, #8]
 800293e:	1c5a      	adds	r2, r3, #1
 8002940:	687b      	ldr	r3, [r7, #4]
 8002942:	609a      	str	r2, [r3, #8]
	}else{
		ballSpeedIncreaseRate =1;
	}
}
 8002944:	e002      	b.n	800294c <_ZN8Settings24setBallSpeedIncreaseRateEv+0x22>
		ballSpeedIncreaseRate =1;
 8002946:	687b      	ldr	r3, [r7, #4]
 8002948:	2201      	movs	r2, #1
 800294a:	609a      	str	r2, [r3, #8]
}
 800294c:	bf00      	nop
 800294e:	370c      	adds	r7, #12
 8002950:	46bd      	mov	sp, r7
 8002952:	bc80      	pop	{r7}
 8002954:	4770      	bx	lr

08002956 <_ZN8Settings24getBallSpeedIncreaseRateEv>:
int Settings::getBallSpeedIncreaseRate(){
 8002956:	b480      	push	{r7}
 8002958:	b083      	sub	sp, #12
 800295a:	af00      	add	r7, sp, #0
 800295c:	6078      	str	r0, [r7, #4]
	return ballSpeedIncreaseRate;
 800295e:	687b      	ldr	r3, [r7, #4]
 8002960:	689b      	ldr	r3, [r3, #8]
}
 8002962:	4618      	mov	r0, r3
 8002964:	370c      	adds	r7, #12
 8002966:	46bd      	mov	sp, r7
 8002968:	bc80      	pop	{r7}
 800296a:	4770      	bx	lr

0800296c <_ZN8Settings12setKnockbackEv>:
void Settings::setKnockback(){
 800296c:	b480      	push	{r7}
 800296e:	b083      	sub	sp, #12
 8002970:	af00      	add	r7, sp, #0
 8002972:	6078      	str	r0, [r7, #4]
	knockback = !knockback;
 8002974:	687b      	ldr	r3, [r7, #4]
 8002976:	7b1b      	ldrb	r3, [r3, #12]
 8002978:	f083 0301 	eor.w	r3, r3, #1
 800297c:	b2da      	uxtb	r2, r3
 800297e:	687b      	ldr	r3, [r7, #4]
 8002980:	731a      	strb	r2, [r3, #12]
}
 8002982:	bf00      	nop
 8002984:	370c      	adds	r7, #12
 8002986:	46bd      	mov	sp, r7
 8002988:	bc80      	pop	{r7}
 800298a:	4770      	bx	lr

0800298c <_ZN8Settings12getKnockbackEv>:
bool Settings::getKnockback(){
 800298c:	b480      	push	{r7}
 800298e:	b083      	sub	sp, #12
 8002990:	af00      	add	r7, sp, #0
 8002992:	6078      	str	r0, [r7, #4]
	return knockback;
 8002994:	687b      	ldr	r3, [r7, #4]
 8002996:	7b1b      	ldrb	r3, [r3, #12]
}
 8002998:	4618      	mov	r0, r3
 800299a:	370c      	adds	r7, #12
 800299c:	46bd      	mov	sp, r7
 800299e:	bc80      	pop	{r7}
 80029a0:	4770      	bx	lr
	...

080029a4 <_ZN8SettingsD1Ev>:
Settings::~Settings() {}
 80029a4:	b480      	push	{r7}
 80029a6:	b083      	sub	sp, #12
 80029a8:	af00      	add	r7, sp, #0
 80029aa:	6078      	str	r0, [r7, #4]
 80029ac:	4a04      	ldr	r2, [pc, #16]	; (80029c0 <_ZN8SettingsD1Ev+0x1c>)
 80029ae:	687b      	ldr	r3, [r7, #4]
 80029b0:	601a      	str	r2, [r3, #0]
 80029b2:	687b      	ldr	r3, [r7, #4]
 80029b4:	4618      	mov	r0, r3
 80029b6:	370c      	adds	r7, #12
 80029b8:	46bd      	mov	sp, r7
 80029ba:	bc80      	pop	{r7}
 80029bc:	4770      	bx	lr
 80029be:	bf00      	nop
 80029c0:	08007d8c 	.word	0x08007d8c

080029c4 <_ZN8SettingsD0Ev>:
 80029c4:	b580      	push	{r7, lr}
 80029c6:	b082      	sub	sp, #8
 80029c8:	af00      	add	r7, sp, #0
 80029ca:	6078      	str	r0, [r7, #4]
 80029cc:	6878      	ldr	r0, [r7, #4]
 80029ce:	f7ff ffe9 	bl	80029a4 <_ZN8SettingsD1Ev>
 80029d2:	2110      	movs	r1, #16
 80029d4:	6878      	ldr	r0, [r7, #4]
 80029d6:	f004 fc8d 	bl	80072f4 <_ZdlPvj>
 80029da:	687b      	ldr	r3, [r7, #4]
 80029dc:	4618      	mov	r0, r3
 80029de:	3708      	adds	r7, #8
 80029e0:	46bd      	mov	sp, r7
 80029e2:	bd80      	pop	{r7, pc}

080029e4 <_Z5Delaym>:

void LCD_REG_Config(void);
void LCD_FillColor(uint32_t ulAmout_Point, uint16_t usColor);
uint16_t LCD_Read_PixelData(void);

void Delay( __IO uint32_t nCount) {
 80029e4:	b480      	push	{r7}
 80029e6:	b083      	sub	sp, #12
 80029e8:	af00      	add	r7, sp, #0
 80029ea:	6078      	str	r0, [r7, #4]
	for (; nCount != 0; nCount--)
 80029ec:	687b      	ldr	r3, [r7, #4]
 80029ee:	2b00      	cmp	r3, #0
 80029f0:	bf14      	ite	ne
 80029f2:	2301      	movne	r3, #1
 80029f4:	2300      	moveq	r3, #0
 80029f6:	b2db      	uxtb	r3, r3
 80029f8:	2b00      	cmp	r3, #0
 80029fa:	d003      	beq.n	8002a04 <_Z5Delaym+0x20>
 80029fc:	687b      	ldr	r3, [r7, #4]
 80029fe:	3b01      	subs	r3, #1
 8002a00:	607b      	str	r3, [r7, #4]
 8002a02:	e7f3      	b.n	80029ec <_Z5Delaym+0x8>
		;
}
 8002a04:	bf00      	nop
 8002a06:	370c      	adds	r7, #12
 8002a08:	46bd      	mov	sp, r7
 8002a0a:	bc80      	pop	{r7}
 8002a0c:	4770      	bx	lr

08002a0e <_Z8LCD_INITv>:

void LCD_INIT(void) {
 8002a0e:	b580      	push	{r7, lr}
 8002a10:	b082      	sub	sp, #8
 8002a12:	af02      	add	r7, sp, #8
	LCD_BackLed_Control(ENABLE);
 8002a14:	2001      	movs	r0, #1
 8002a16:	f000 f829 	bl	8002a6c <_Z19LCD_BackLed_Control15FunctionalState>
	LCD_Rst();
 8002a1a:	f000 f80f 	bl	8002a3c <_Z7LCD_Rstv>
	LCD_REG_Config();
 8002a1e:	f000 f85f 	bl	8002ae0 <_Z14LCD_REG_Configv>
	LCD_Clear(0, 0, 240, 320, BACKGROUND);
 8002a22:	2300      	movs	r3, #0
 8002a24:	9300      	str	r3, [sp, #0]
 8002a26:	f44f 73a0 	mov.w	r3, #320	; 0x140
 8002a2a:	22f0      	movs	r2, #240	; 0xf0
 8002a2c:	2100      	movs	r1, #0
 8002a2e:	2000      	movs	r0, #0
 8002a30:	f000 f9e6 	bl	8002e00 <_Z9LCD_Clearttttt>
}
 8002a34:	bf00      	nop
 8002a36:	46bd      	mov	sp, r7
 8002a38:	bd80      	pop	{r7, pc}
	...

08002a3c <_Z7LCD_Rstv>:

void LCD_Rst(void) {
 8002a3c:	b580      	push	{r7, lr}
 8002a3e:	af00      	add	r7, sp, #0
	HAL_GPIO_WritePin(LCD_RST_PORT, LCD_RST_PIN, GPIO_PIN_RESET);
 8002a40:	2200      	movs	r2, #0
 8002a42:	2102      	movs	r1, #2
 8002a44:	4807      	ldr	r0, [pc, #28]	; (8002a64 <_Z7LCD_Rstv+0x28>)
 8002a46:	f002 fec6 	bl	80057d6 <HAL_GPIO_WritePin>
	Delay(0xAFFf << 2);
 8002a4a:	4807      	ldr	r0, [pc, #28]	; (8002a68 <_Z7LCD_Rstv+0x2c>)
 8002a4c:	f7ff ffca 	bl	80029e4 <_Z5Delaym>
	HAL_GPIO_WritePin(LCD_RST_PORT, LCD_RST_PIN, GPIO_PIN_SET);
 8002a50:	2201      	movs	r2, #1
 8002a52:	2102      	movs	r1, #2
 8002a54:	4803      	ldr	r0, [pc, #12]	; (8002a64 <_Z7LCD_Rstv+0x28>)
 8002a56:	f002 febe 	bl	80057d6 <HAL_GPIO_WritePin>
	Delay(0xAFFf << 2);
 8002a5a:	4803      	ldr	r0, [pc, #12]	; (8002a68 <_Z7LCD_Rstv+0x2c>)
 8002a5c:	f7ff ffc2 	bl	80029e4 <_Z5Delaym>
}
 8002a60:	bf00      	nop
 8002a62:	bd80      	pop	{r7, pc}
 8002a64:	40011800 	.word	0x40011800
 8002a68:	0002bffc 	.word	0x0002bffc

08002a6c <_Z19LCD_BackLed_Control15FunctionalState>:

void LCD_BackLed_Control(FunctionalState enumState) {
 8002a6c:	b580      	push	{r7, lr}
 8002a6e:	b082      	sub	sp, #8
 8002a70:	af00      	add	r7, sp, #0
 8002a72:	4603      	mov	r3, r0
 8002a74:	71fb      	strb	r3, [r7, #7]
	if (enumState)
 8002a76:	79fb      	ldrb	r3, [r7, #7]
 8002a78:	2b00      	cmp	r3, #0
 8002a7a:	d006      	beq.n	8002a8a <_Z19LCD_BackLed_Control15FunctionalState+0x1e>
		HAL_GPIO_WritePin(LCD_BK_PORT, LCD_BK_PIN, GPIO_PIN_RESET);
 8002a7c:	2200      	movs	r2, #0
 8002a7e:	f44f 5180 	mov.w	r1, #4096	; 0x1000
 8002a82:	4807      	ldr	r0, [pc, #28]	; (8002aa0 <_Z19LCD_BackLed_Control15FunctionalState+0x34>)
 8002a84:	f002 fea7 	bl	80057d6 <HAL_GPIO_WritePin>
	else
		HAL_GPIO_WritePin(LCD_BK_PORT, LCD_BK_PIN, GPIO_PIN_SET);
}
 8002a88:	e005      	b.n	8002a96 <_Z19LCD_BackLed_Control15FunctionalState+0x2a>
		HAL_GPIO_WritePin(LCD_BK_PORT, LCD_BK_PIN, GPIO_PIN_SET);
 8002a8a:	2201      	movs	r2, #1
 8002a8c:	f44f 5180 	mov.w	r1, #4096	; 0x1000
 8002a90:	4803      	ldr	r0, [pc, #12]	; (8002aa0 <_Z19LCD_BackLed_Control15FunctionalState+0x34>)
 8002a92:	f002 fea0 	bl	80057d6 <HAL_GPIO_WritePin>
}
 8002a96:	bf00      	nop
 8002a98:	3708      	adds	r7, #8
 8002a9a:	46bd      	mov	sp, r7
 8002a9c:	bd80      	pop	{r7, pc}
 8002a9e:	bf00      	nop
 8002aa0:	40011400 	.word	0x40011400

08002aa4 <_Z13LCD_Write_Cmdt>:

void LCD_Write_Cmd(uint16_t usCmd) {
 8002aa4:	b480      	push	{r7}
 8002aa6:	b083      	sub	sp, #12
 8002aa8:	af00      	add	r7, sp, #0
 8002aaa:	4603      	mov	r3, r0
 8002aac:	80fb      	strh	r3, [r7, #6]
	*( __IO uint16_t*) ( FSMC_Addr_LCD_CMD) = usCmd;
 8002aae:	f04f 42c0 	mov.w	r2, #1610612736	; 0x60000000
 8002ab2:	88fb      	ldrh	r3, [r7, #6]
 8002ab4:	8013      	strh	r3, [r2, #0]
}
 8002ab6:	bf00      	nop
 8002ab8:	370c      	adds	r7, #12
 8002aba:	46bd      	mov	sp, r7
 8002abc:	bc80      	pop	{r7}
 8002abe:	4770      	bx	lr

08002ac0 <_Z14LCD_Write_Datat>:

void LCD_Write_Data(uint16_t usData) {
 8002ac0:	b480      	push	{r7}
 8002ac2:	b083      	sub	sp, #12
 8002ac4:	af00      	add	r7, sp, #0
 8002ac6:	4603      	mov	r3, r0
 8002ac8:	80fb      	strh	r3, [r7, #6]
	*( __IO uint16_t*) ( FSMC_Addr_LCD_DATA) = usData;
 8002aca:	4a04      	ldr	r2, [pc, #16]	; (8002adc <_Z14LCD_Write_Datat+0x1c>)
 8002acc:	88fb      	ldrh	r3, [r7, #6]
 8002ace:	8013      	strh	r3, [r2, #0]
}
 8002ad0:	bf00      	nop
 8002ad2:	370c      	adds	r7, #12
 8002ad4:	46bd      	mov	sp, r7
 8002ad6:	bc80      	pop	{r7}
 8002ad8:	4770      	bx	lr
 8002ada:	bf00      	nop
 8002adc:	60020000 	.word	0x60020000

08002ae0 <_Z14LCD_REG_Configv>:

uint16_t LCD_Read_Data(void) {
	return (*( __IO uint16_t*) ( FSMC_Addr_LCD_DATA));
}

void LCD_REG_Config(void) {
 8002ae0:	b580      	push	{r7, lr}
 8002ae2:	af00      	add	r7, sp, #0
	/*  Power control B (CFh)  */
	DEBUG_DELAY ();
	LCD_Write_Cmd(0xCF);
 8002ae4:	20cf      	movs	r0, #207	; 0xcf
 8002ae6:	f7ff ffdd 	bl	8002aa4 <_Z13LCD_Write_Cmdt>
	LCD_Write_Data(0x00);
 8002aea:	2000      	movs	r0, #0
 8002aec:	f7ff ffe8 	bl	8002ac0 <_Z14LCD_Write_Datat>
	LCD_Write_Data(0x81);
 8002af0:	2081      	movs	r0, #129	; 0x81
 8002af2:	f7ff ffe5 	bl	8002ac0 <_Z14LCD_Write_Datat>
	LCD_Write_Data(0x30);
 8002af6:	2030      	movs	r0, #48	; 0x30
 8002af8:	f7ff ffe2 	bl	8002ac0 <_Z14LCD_Write_Datat>

	/*  Power on sequence control (EDh) */
	DEBUG_DELAY ();
	LCD_Write_Cmd(0xED);
 8002afc:	20ed      	movs	r0, #237	; 0xed
 8002afe:	f7ff ffd1 	bl	8002aa4 <_Z13LCD_Write_Cmdt>
	LCD_Write_Data(0x64);
 8002b02:	2064      	movs	r0, #100	; 0x64
 8002b04:	f7ff ffdc 	bl	8002ac0 <_Z14LCD_Write_Datat>
	LCD_Write_Data(0x03);
 8002b08:	2003      	movs	r0, #3
 8002b0a:	f7ff ffd9 	bl	8002ac0 <_Z14LCD_Write_Datat>
	LCD_Write_Data(0x12);
 8002b0e:	2012      	movs	r0, #18
 8002b10:	f7ff ffd6 	bl	8002ac0 <_Z14LCD_Write_Datat>
	LCD_Write_Data(0x81);
 8002b14:	2081      	movs	r0, #129	; 0x81
 8002b16:	f7ff ffd3 	bl	8002ac0 <_Z14LCD_Write_Datat>

	/*  Driver timing control A (E8h) */
	DEBUG_DELAY ();
	LCD_Write_Cmd(0xE8);
 8002b1a:	20e8      	movs	r0, #232	; 0xe8
 8002b1c:	f7ff ffc2 	bl	8002aa4 <_Z13LCD_Write_Cmdt>
	LCD_Write_Data(0x85);
 8002b20:	2085      	movs	r0, #133	; 0x85
 8002b22:	f7ff ffcd 	bl	8002ac0 <_Z14LCD_Write_Datat>
	LCD_Write_Data(0x10);
 8002b26:	2010      	movs	r0, #16
 8002b28:	f7ff ffca 	bl	8002ac0 <_Z14LCD_Write_Datat>
	LCD_Write_Data(0x78);
 8002b2c:	2078      	movs	r0, #120	; 0x78
 8002b2e:	f7ff ffc7 	bl	8002ac0 <_Z14LCD_Write_Datat>

	/*  Power control A (CBh) */
	DEBUG_DELAY ();
	LCD_Write_Cmd(0xCB);
 8002b32:	20cb      	movs	r0, #203	; 0xcb
 8002b34:	f7ff ffb6 	bl	8002aa4 <_Z13LCD_Write_Cmdt>
	LCD_Write_Data(0x39);
 8002b38:	2039      	movs	r0, #57	; 0x39
 8002b3a:	f7ff ffc1 	bl	8002ac0 <_Z14LCD_Write_Datat>
	LCD_Write_Data(0x2C);
 8002b3e:	202c      	movs	r0, #44	; 0x2c
 8002b40:	f7ff ffbe 	bl	8002ac0 <_Z14LCD_Write_Datat>
	LCD_Write_Data(0x00);
 8002b44:	2000      	movs	r0, #0
 8002b46:	f7ff ffbb 	bl	8002ac0 <_Z14LCD_Write_Datat>
	LCD_Write_Data(0x34);
 8002b4a:	2034      	movs	r0, #52	; 0x34
 8002b4c:	f7ff ffb8 	bl	8002ac0 <_Z14LCD_Write_Datat>
	LCD_Write_Data(0x02);
 8002b50:	2002      	movs	r0, #2
 8002b52:	f7ff ffb5 	bl	8002ac0 <_Z14LCD_Write_Datat>

	/* Pump ratio control (F7h) */
	DEBUG_DELAY ();
	LCD_Write_Cmd(0xF7);
 8002b56:	20f7      	movs	r0, #247	; 0xf7
 8002b58:	f7ff ffa4 	bl	8002aa4 <_Z13LCD_Write_Cmdt>
	LCD_Write_Data(0x20);
 8002b5c:	2020      	movs	r0, #32
 8002b5e:	f7ff ffaf 	bl	8002ac0 <_Z14LCD_Write_Datat>

	/* Driver timing control B */
	DEBUG_DELAY ();
	LCD_Write_Cmd(0xEA);
 8002b62:	20ea      	movs	r0, #234	; 0xea
 8002b64:	f7ff ff9e 	bl	8002aa4 <_Z13LCD_Write_Cmdt>
	LCD_Write_Data(0x00);
 8002b68:	2000      	movs	r0, #0
 8002b6a:	f7ff ffa9 	bl	8002ac0 <_Z14LCD_Write_Datat>
	LCD_Write_Data(0x00);
 8002b6e:	2000      	movs	r0, #0
 8002b70:	f7ff ffa6 	bl	8002ac0 <_Z14LCD_Write_Datat>

	/* Frame Rate Control (In Normal Mode/Full Colors) (B1h) */
	DEBUG_DELAY ();
	LCD_Write_Cmd(0xB1);
 8002b74:	20b1      	movs	r0, #177	; 0xb1
 8002b76:	f7ff ff95 	bl	8002aa4 <_Z13LCD_Write_Cmdt>
	LCD_Write_Data(0x00);
 8002b7a:	2000      	movs	r0, #0
 8002b7c:	f7ff ffa0 	bl	8002ac0 <_Z14LCD_Write_Datat>
	LCD_Write_Data(0x1B);
 8002b80:	201b      	movs	r0, #27
 8002b82:	f7ff ff9d 	bl	8002ac0 <_Z14LCD_Write_Datat>

	/*  Display Function Control (B6h) */
	DEBUG_DELAY ();
	LCD_Write_Cmd(0xB6);
 8002b86:	20b6      	movs	r0, #182	; 0xb6
 8002b88:	f7ff ff8c 	bl	8002aa4 <_Z13LCD_Write_Cmdt>
	LCD_Write_Data(0x0A);
 8002b8c:	200a      	movs	r0, #10
 8002b8e:	f7ff ff97 	bl	8002ac0 <_Z14LCD_Write_Datat>
	LCD_Write_Data(0xA2);
 8002b92:	20a2      	movs	r0, #162	; 0xa2
 8002b94:	f7ff ff94 	bl	8002ac0 <_Z14LCD_Write_Datat>

	/* Power Control 1 (C0h) */
	DEBUG_DELAY ();
	LCD_Write_Cmd(0xC0);
 8002b98:	20c0      	movs	r0, #192	; 0xc0
 8002b9a:	f7ff ff83 	bl	8002aa4 <_Z13LCD_Write_Cmdt>
	LCD_Write_Data(0x35);
 8002b9e:	2035      	movs	r0, #53	; 0x35
 8002ba0:	f7ff ff8e 	bl	8002ac0 <_Z14LCD_Write_Datat>

	/* Power Control 2 (C1h) */
	DEBUG_DELAY ();
	LCD_Write_Cmd(0xC1);
 8002ba4:	20c1      	movs	r0, #193	; 0xc1
 8002ba6:	f7ff ff7d 	bl	8002aa4 <_Z13LCD_Write_Cmdt>
	LCD_Write_Data(0x11);
 8002baa:	2011      	movs	r0, #17
 8002bac:	f7ff ff88 	bl	8002ac0 <_Z14LCD_Write_Datat>

	/* VCOM Control 1 (C5h) */
	LCD_Write_Cmd(0xC5);
 8002bb0:	20c5      	movs	r0, #197	; 0xc5
 8002bb2:	f7ff ff77 	bl	8002aa4 <_Z13LCD_Write_Cmdt>
	LCD_Write_Data(0x45);
 8002bb6:	2045      	movs	r0, #69	; 0x45
 8002bb8:	f7ff ff82 	bl	8002ac0 <_Z14LCD_Write_Datat>
	LCD_Write_Data(0x45);
 8002bbc:	2045      	movs	r0, #69	; 0x45
 8002bbe:	f7ff ff7f 	bl	8002ac0 <_Z14LCD_Write_Datat>

	/*  VCOM Control 2 (C7h)  */
	LCD_Write_Cmd(0xC7);
 8002bc2:	20c7      	movs	r0, #199	; 0xc7
 8002bc4:	f7ff ff6e 	bl	8002aa4 <_Z13LCD_Write_Cmdt>
	LCD_Write_Data(0xA2);
 8002bc8:	20a2      	movs	r0, #162	; 0xa2
 8002bca:	f7ff ff79 	bl	8002ac0 <_Z14LCD_Write_Datat>

	/* Enable 3G (F2h) */
	LCD_Write_Cmd(0xF2);
 8002bce:	20f2      	movs	r0, #242	; 0xf2
 8002bd0:	f7ff ff68 	bl	8002aa4 <_Z13LCD_Write_Cmdt>
	LCD_Write_Data(0x00);
 8002bd4:	2000      	movs	r0, #0
 8002bd6:	f7ff ff73 	bl	8002ac0 <_Z14LCD_Write_Datat>

	/* Gamma Set (26h) */
	LCD_Write_Cmd(0x26);
 8002bda:	2026      	movs	r0, #38	; 0x26
 8002bdc:	f7ff ff62 	bl	8002aa4 <_Z13LCD_Write_Cmdt>
	LCD_Write_Data(0x01);
 8002be0:	2001      	movs	r0, #1
 8002be2:	f7ff ff6d 	bl	8002ac0 <_Z14LCD_Write_Datat>
	DEBUG_DELAY ();

	/* Positive Gamma Correction */
	LCD_Write_Cmd(0xE0); //Set Gamma
 8002be6:	20e0      	movs	r0, #224	; 0xe0
 8002be8:	f7ff ff5c 	bl	8002aa4 <_Z13LCD_Write_Cmdt>
	LCD_Write_Data(0x0F);
 8002bec:	200f      	movs	r0, #15
 8002bee:	f7ff ff67 	bl	8002ac0 <_Z14LCD_Write_Datat>
	LCD_Write_Data(0x26);
 8002bf2:	2026      	movs	r0, #38	; 0x26
 8002bf4:	f7ff ff64 	bl	8002ac0 <_Z14LCD_Write_Datat>
	LCD_Write_Data(0x24);
 8002bf8:	2024      	movs	r0, #36	; 0x24
 8002bfa:	f7ff ff61 	bl	8002ac0 <_Z14LCD_Write_Datat>
	LCD_Write_Data(0x0B);
 8002bfe:	200b      	movs	r0, #11
 8002c00:	f7ff ff5e 	bl	8002ac0 <_Z14LCD_Write_Datat>
	LCD_Write_Data(0x0E);
 8002c04:	200e      	movs	r0, #14
 8002c06:	f7ff ff5b 	bl	8002ac0 <_Z14LCD_Write_Datat>
	LCD_Write_Data(0x09);
 8002c0a:	2009      	movs	r0, #9
 8002c0c:	f7ff ff58 	bl	8002ac0 <_Z14LCD_Write_Datat>
	LCD_Write_Data(0x54);
 8002c10:	2054      	movs	r0, #84	; 0x54
 8002c12:	f7ff ff55 	bl	8002ac0 <_Z14LCD_Write_Datat>
	LCD_Write_Data(0xA8);
 8002c16:	20a8      	movs	r0, #168	; 0xa8
 8002c18:	f7ff ff52 	bl	8002ac0 <_Z14LCD_Write_Datat>
	LCD_Write_Data(0x46);
 8002c1c:	2046      	movs	r0, #70	; 0x46
 8002c1e:	f7ff ff4f 	bl	8002ac0 <_Z14LCD_Write_Datat>
	LCD_Write_Data(0x0C);
 8002c22:	200c      	movs	r0, #12
 8002c24:	f7ff ff4c 	bl	8002ac0 <_Z14LCD_Write_Datat>
	LCD_Write_Data(0x17);
 8002c28:	2017      	movs	r0, #23
 8002c2a:	f7ff ff49 	bl	8002ac0 <_Z14LCD_Write_Datat>
	LCD_Write_Data(0x09);
 8002c2e:	2009      	movs	r0, #9
 8002c30:	f7ff ff46 	bl	8002ac0 <_Z14LCD_Write_Datat>
	LCD_Write_Data(0x0F);
 8002c34:	200f      	movs	r0, #15
 8002c36:	f7ff ff43 	bl	8002ac0 <_Z14LCD_Write_Datat>
	LCD_Write_Data(0x07);
 8002c3a:	2007      	movs	r0, #7
 8002c3c:	f7ff ff40 	bl	8002ac0 <_Z14LCD_Write_Datat>
	LCD_Write_Data(0x00);
 8002c40:	2000      	movs	r0, #0
 8002c42:	f7ff ff3d 	bl	8002ac0 <_Z14LCD_Write_Datat>

	/* Negative Gamma Correction (E1h) */
	LCD_Write_Cmd(0XE1); //Set Gamma
 8002c46:	20e1      	movs	r0, #225	; 0xe1
 8002c48:	f7ff ff2c 	bl	8002aa4 <_Z13LCD_Write_Cmdt>
	LCD_Write_Data(0x00);
 8002c4c:	2000      	movs	r0, #0
 8002c4e:	f7ff ff37 	bl	8002ac0 <_Z14LCD_Write_Datat>
	LCD_Write_Data(0x19);
 8002c52:	2019      	movs	r0, #25
 8002c54:	f7ff ff34 	bl	8002ac0 <_Z14LCD_Write_Datat>
	LCD_Write_Data(0x1B);
 8002c58:	201b      	movs	r0, #27
 8002c5a:	f7ff ff31 	bl	8002ac0 <_Z14LCD_Write_Datat>
	LCD_Write_Data(0x04);
 8002c5e:	2004      	movs	r0, #4
 8002c60:	f7ff ff2e 	bl	8002ac0 <_Z14LCD_Write_Datat>
	LCD_Write_Data(0x10);
 8002c64:	2010      	movs	r0, #16
 8002c66:	f7ff ff2b 	bl	8002ac0 <_Z14LCD_Write_Datat>
	LCD_Write_Data(0x07);
 8002c6a:	2007      	movs	r0, #7
 8002c6c:	f7ff ff28 	bl	8002ac0 <_Z14LCD_Write_Datat>
	LCD_Write_Data(0x2A);
 8002c70:	202a      	movs	r0, #42	; 0x2a
 8002c72:	f7ff ff25 	bl	8002ac0 <_Z14LCD_Write_Datat>
	LCD_Write_Data(0x47);
 8002c76:	2047      	movs	r0, #71	; 0x47
 8002c78:	f7ff ff22 	bl	8002ac0 <_Z14LCD_Write_Datat>
	LCD_Write_Data(0x39);
 8002c7c:	2039      	movs	r0, #57	; 0x39
 8002c7e:	f7ff ff1f 	bl	8002ac0 <_Z14LCD_Write_Datat>
	LCD_Write_Data(0x03);
 8002c82:	2003      	movs	r0, #3
 8002c84:	f7ff ff1c 	bl	8002ac0 <_Z14LCD_Write_Datat>
	LCD_Write_Data(0x06);
 8002c88:	2006      	movs	r0, #6
 8002c8a:	f7ff ff19 	bl	8002ac0 <_Z14LCD_Write_Datat>
	LCD_Write_Data(0x06);
 8002c8e:	2006      	movs	r0, #6
 8002c90:	f7ff ff16 	bl	8002ac0 <_Z14LCD_Write_Datat>
	LCD_Write_Data(0x30);
 8002c94:	2030      	movs	r0, #48	; 0x30
 8002c96:	f7ff ff13 	bl	8002ac0 <_Z14LCD_Write_Datat>
	LCD_Write_Data(0x38);
 8002c9a:	2038      	movs	r0, #56	; 0x38
 8002c9c:	f7ff ff10 	bl	8002ac0 <_Z14LCD_Write_Datat>
	LCD_Write_Data(0x0F);
 8002ca0:	200f      	movs	r0, #15
 8002ca2:	f7ff ff0d 	bl	8002ac0 <_Z14LCD_Write_Datat>

	/* memory access control set */
	DEBUG_DELAY ();
	LCD_Write_Cmd(0x36);
 8002ca6:	2036      	movs	r0, #54	; 0x36
 8002ca8:	f7ff fefc 	bl	8002aa4 <_Z13LCD_Write_Cmdt>
	LCD_Write_Data(0xC8);  // Version 1
 8002cac:	20c8      	movs	r0, #200	; 0xc8
 8002cae:	f7ff ff07 	bl	8002ac0 <_Z14LCD_Write_Datat>
	/* display inversion */
//	LCD_Write_Cmd ( 0x21 );   // Version 2
	DEBUG_DELAY ();

	/* column address control set */
	LCD_Write_Cmd( CMD_Set_COLUMN);
 8002cb2:	202a      	movs	r0, #42	; 0x2a
 8002cb4:	f7ff fef6 	bl	8002aa4 <_Z13LCD_Write_Cmdt>
	LCD_Write_Data(0x00);
 8002cb8:	2000      	movs	r0, #0
 8002cba:	f7ff ff01 	bl	8002ac0 <_Z14LCD_Write_Datat>
	LCD_Write_Data(0x00);
 8002cbe:	2000      	movs	r0, #0
 8002cc0:	f7ff fefe 	bl	8002ac0 <_Z14LCD_Write_Datat>
	LCD_Write_Data(0x00);
 8002cc4:	2000      	movs	r0, #0
 8002cc6:	f7ff fefb 	bl	8002ac0 <_Z14LCD_Write_Datat>
	LCD_Write_Data(0xEF);
 8002cca:	20ef      	movs	r0, #239	; 0xef
 8002ccc:	f7ff fef8 	bl	8002ac0 <_Z14LCD_Write_Datat>

	/* page address control set */
	DEBUG_DELAY ();
	LCD_Write_Cmd( CMD_Set_PAGE);
 8002cd0:	202b      	movs	r0, #43	; 0x2b
 8002cd2:	f7ff fee7 	bl	8002aa4 <_Z13LCD_Write_Cmdt>
	LCD_Write_Data(0x00);
 8002cd6:	2000      	movs	r0, #0
 8002cd8:	f7ff fef2 	bl	8002ac0 <_Z14LCD_Write_Datat>
	LCD_Write_Data(0x00);
 8002cdc:	2000      	movs	r0, #0
 8002cde:	f7ff feef 	bl	8002ac0 <_Z14LCD_Write_Datat>
	LCD_Write_Data(0x01);
 8002ce2:	2001      	movs	r0, #1
 8002ce4:	f7ff feec 	bl	8002ac0 <_Z14LCD_Write_Datat>
	LCD_Write_Data(0x3F);
 8002ce8:	203f      	movs	r0, #63	; 0x3f
 8002cea:	f7ff fee9 	bl	8002ac0 <_Z14LCD_Write_Datat>

	/*  Pixel Format Set (3Ah)  */
	DEBUG_DELAY ();
	LCD_Write_Cmd(0x3a);
 8002cee:	203a      	movs	r0, #58	; 0x3a
 8002cf0:	f7ff fed8 	bl	8002aa4 <_Z13LCD_Write_Cmdt>
	LCD_Write_Data(0x55);
 8002cf4:	2055      	movs	r0, #85	; 0x55
 8002cf6:	f7ff fee3 	bl	8002ac0 <_Z14LCD_Write_Datat>

	/* Sleep Out (11h)  */
	LCD_Write_Cmd(0x11);
 8002cfa:	2011      	movs	r0, #17
 8002cfc:	f7ff fed2 	bl	8002aa4 <_Z13LCD_Write_Cmdt>
	Delay(0xAFFf << 2);
 8002d00:	4803      	ldr	r0, [pc, #12]	; (8002d10 <_Z14LCD_REG_Configv+0x230>)
 8002d02:	f7ff fe6f 	bl	80029e4 <_Z5Delaym>
	DEBUG_DELAY ();

	/* Display ON (29h) */
	LCD_Write_Cmd(0x29);
 8002d06:	2029      	movs	r0, #41	; 0x29
 8002d08:	f7ff fecc 	bl	8002aa4 <_Z13LCD_Write_Cmdt>

}
 8002d0c:	bf00      	nop
 8002d0e:	bd80      	pop	{r7, pc}
 8002d10:	0002bffc 	.word	0x0002bffc

08002d14 <_Z14LCD_OpenWindowtttt>:

void LCD_OpenWindow(uint16_t usCOLUMN, uint16_t usPAGE, uint16_t usWidth,
		uint16_t usHeight) {
 8002d14:	b590      	push	{r4, r7, lr}
 8002d16:	b083      	sub	sp, #12
 8002d18:	af00      	add	r7, sp, #0
 8002d1a:	4604      	mov	r4, r0
 8002d1c:	4608      	mov	r0, r1
 8002d1e:	4611      	mov	r1, r2
 8002d20:	461a      	mov	r2, r3
 8002d22:	4623      	mov	r3, r4
 8002d24:	80fb      	strh	r3, [r7, #6]
 8002d26:	4603      	mov	r3, r0
 8002d28:	80bb      	strh	r3, [r7, #4]
 8002d2a:	460b      	mov	r3, r1
 8002d2c:	807b      	strh	r3, [r7, #2]
 8002d2e:	4613      	mov	r3, r2
 8002d30:	803b      	strh	r3, [r7, #0]
	LCD_Write_Cmd( CMD_Set_COLUMN);
 8002d32:	202a      	movs	r0, #42	; 0x2a
 8002d34:	f7ff feb6 	bl	8002aa4 <_Z13LCD_Write_Cmdt>
	LCD_Write_Data(usCOLUMN >> 8);
 8002d38:	88fb      	ldrh	r3, [r7, #6]
 8002d3a:	0a1b      	lsrs	r3, r3, #8
 8002d3c:	b29b      	uxth	r3, r3
 8002d3e:	4618      	mov	r0, r3
 8002d40:	f7ff febe 	bl	8002ac0 <_Z14LCD_Write_Datat>
	LCD_Write_Data(usCOLUMN & 0xff);
 8002d44:	88fb      	ldrh	r3, [r7, #6]
 8002d46:	b2db      	uxtb	r3, r3
 8002d48:	b29b      	uxth	r3, r3
 8002d4a:	4618      	mov	r0, r3
 8002d4c:	f7ff feb8 	bl	8002ac0 <_Z14LCD_Write_Datat>
	LCD_Write_Data((usCOLUMN + usWidth - 1) >> 8);
 8002d50:	88fa      	ldrh	r2, [r7, #6]
 8002d52:	887b      	ldrh	r3, [r7, #2]
 8002d54:	4413      	add	r3, r2
 8002d56:	3b01      	subs	r3, #1
 8002d58:	121b      	asrs	r3, r3, #8
 8002d5a:	b29b      	uxth	r3, r3
 8002d5c:	4618      	mov	r0, r3
 8002d5e:	f7ff feaf 	bl	8002ac0 <_Z14LCD_Write_Datat>
	LCD_Write_Data((usCOLUMN + usWidth - 1) & 0xff);
 8002d62:	88fa      	ldrh	r2, [r7, #6]
 8002d64:	887b      	ldrh	r3, [r7, #2]
 8002d66:	4413      	add	r3, r2
 8002d68:	b29b      	uxth	r3, r3
 8002d6a:	3b01      	subs	r3, #1
 8002d6c:	b29b      	uxth	r3, r3
 8002d6e:	b2db      	uxtb	r3, r3
 8002d70:	b29b      	uxth	r3, r3
 8002d72:	4618      	mov	r0, r3
 8002d74:	f7ff fea4 	bl	8002ac0 <_Z14LCD_Write_Datat>

	LCD_Write_Cmd( CMD_Set_PAGE);
 8002d78:	202b      	movs	r0, #43	; 0x2b
 8002d7a:	f7ff fe93 	bl	8002aa4 <_Z13LCD_Write_Cmdt>
	LCD_Write_Data(usPAGE >> 8);
 8002d7e:	88bb      	ldrh	r3, [r7, #4]
 8002d80:	0a1b      	lsrs	r3, r3, #8
 8002d82:	b29b      	uxth	r3, r3
 8002d84:	4618      	mov	r0, r3
 8002d86:	f7ff fe9b 	bl	8002ac0 <_Z14LCD_Write_Datat>
	LCD_Write_Data(usPAGE & 0xff);
 8002d8a:	88bb      	ldrh	r3, [r7, #4]
 8002d8c:	b2db      	uxtb	r3, r3
 8002d8e:	b29b      	uxth	r3, r3
 8002d90:	4618      	mov	r0, r3
 8002d92:	f7ff fe95 	bl	8002ac0 <_Z14LCD_Write_Datat>
	LCD_Write_Data((usPAGE + usHeight - 1) >> 8);
 8002d96:	88ba      	ldrh	r2, [r7, #4]
 8002d98:	883b      	ldrh	r3, [r7, #0]
 8002d9a:	4413      	add	r3, r2
 8002d9c:	3b01      	subs	r3, #1
 8002d9e:	121b      	asrs	r3, r3, #8
 8002da0:	b29b      	uxth	r3, r3
 8002da2:	4618      	mov	r0, r3
 8002da4:	f7ff fe8c 	bl	8002ac0 <_Z14LCD_Write_Datat>
	LCD_Write_Data((usPAGE + usHeight - 1) & 0xff);
 8002da8:	88ba      	ldrh	r2, [r7, #4]
 8002daa:	883b      	ldrh	r3, [r7, #0]
 8002dac:	4413      	add	r3, r2
 8002dae:	b29b      	uxth	r3, r3
 8002db0:	3b01      	subs	r3, #1
 8002db2:	b29b      	uxth	r3, r3
 8002db4:	b2db      	uxtb	r3, r3
 8002db6:	b29b      	uxth	r3, r3
 8002db8:	4618      	mov	r0, r3
 8002dba:	f7ff fe81 	bl	8002ac0 <_Z14LCD_Write_Datat>

}
 8002dbe:	bf00      	nop
 8002dc0:	370c      	adds	r7, #12
 8002dc2:	46bd      	mov	sp, r7
 8002dc4:	bd90      	pop	{r4, r7, pc}

08002dc6 <_Z13LCD_FillColormt>:

void LCD_FillColor(uint32_t usPoint, uint16_t usColor) {
 8002dc6:	b580      	push	{r7, lr}
 8002dc8:	b084      	sub	sp, #16
 8002dca:	af00      	add	r7, sp, #0
 8002dcc:	6078      	str	r0, [r7, #4]
 8002dce:	460b      	mov	r3, r1
 8002dd0:	807b      	strh	r3, [r7, #2]
	uint32_t i = 0;
 8002dd2:	2300      	movs	r3, #0
 8002dd4:	60fb      	str	r3, [r7, #12]

	/* memory write */
	LCD_Write_Cmd( CMD_SetPixel);
 8002dd6:	202c      	movs	r0, #44	; 0x2c
 8002dd8:	f7ff fe64 	bl	8002aa4 <_Z13LCD_Write_Cmdt>

	for (i = 0; i < usPoint; i++)
 8002ddc:	2300      	movs	r3, #0
 8002dde:	60fb      	str	r3, [r7, #12]
 8002de0:	68fa      	ldr	r2, [r7, #12]
 8002de2:	687b      	ldr	r3, [r7, #4]
 8002de4:	429a      	cmp	r2, r3
 8002de6:	d207      	bcs.n	8002df8 <_Z13LCD_FillColormt+0x32>
		LCD_Write_Data(usColor);
 8002de8:	887b      	ldrh	r3, [r7, #2]
 8002dea:	4618      	mov	r0, r3
 8002dec:	f7ff fe68 	bl	8002ac0 <_Z14LCD_Write_Datat>
	for (i = 0; i < usPoint; i++)
 8002df0:	68fb      	ldr	r3, [r7, #12]
 8002df2:	3301      	adds	r3, #1
 8002df4:	60fb      	str	r3, [r7, #12]
 8002df6:	e7f3      	b.n	8002de0 <_Z13LCD_FillColormt+0x1a>

}
 8002df8:	bf00      	nop
 8002dfa:	3710      	adds	r7, #16
 8002dfc:	46bd      	mov	sp, r7
 8002dfe:	bd80      	pop	{r7, pc}

08002e00 <_Z9LCD_Clearttttt>:

void LCD_Clear(uint16_t usCOLUMN, uint16_t usPAGE, uint16_t usWidth,
		uint16_t usHeight, uint16_t usColor) {
 8002e00:	b590      	push	{r4, r7, lr}
 8002e02:	b083      	sub	sp, #12
 8002e04:	af00      	add	r7, sp, #0
 8002e06:	4604      	mov	r4, r0
 8002e08:	4608      	mov	r0, r1
 8002e0a:	4611      	mov	r1, r2
 8002e0c:	461a      	mov	r2, r3
 8002e0e:	4623      	mov	r3, r4
 8002e10:	80fb      	strh	r3, [r7, #6]
 8002e12:	4603      	mov	r3, r0
 8002e14:	80bb      	strh	r3, [r7, #4]
 8002e16:	460b      	mov	r3, r1
 8002e18:	807b      	strh	r3, [r7, #2]
 8002e1a:	4613      	mov	r3, r2
 8002e1c:	803b      	strh	r3, [r7, #0]
	LCD_OpenWindow(usCOLUMN, usPAGE, usWidth, usHeight);
 8002e1e:	883b      	ldrh	r3, [r7, #0]
 8002e20:	887a      	ldrh	r2, [r7, #2]
 8002e22:	88b9      	ldrh	r1, [r7, #4]
 8002e24:	88f8      	ldrh	r0, [r7, #6]
 8002e26:	f7ff ff75 	bl	8002d14 <_Z14LCD_OpenWindowtttt>
	LCD_FillColor(usWidth * usHeight, usColor);
 8002e2a:	887b      	ldrh	r3, [r7, #2]
 8002e2c:	883a      	ldrh	r2, [r7, #0]
 8002e2e:	fb02 f303 	mul.w	r3, r2, r3
 8002e32:	461a      	mov	r2, r3
 8002e34:	8b3b      	ldrh	r3, [r7, #24]
 8002e36:	4619      	mov	r1, r3
 8002e38:	4610      	mov	r0, r2
 8002e3a:	f7ff ffc4 	bl	8002dc6 <_Z13LCD_FillColormt>

}
 8002e3e:	bf00      	nop
 8002e40:	370c      	adds	r7, #12
 8002e42:	46bd      	mov	sp, r7
 8002e44:	bd90      	pop	{r4, r7, pc}

08002e46 <_Z12LCD_DrawLinettttt>:
	return usPixelData;

}

void LCD_DrawLine(uint16_t usC1, uint16_t usP1, uint16_t usC2, uint16_t usP2,
		uint16_t usColor) {
 8002e46:	b590      	push	{r4, r7, lr}
 8002e48:	b08d      	sub	sp, #52	; 0x34
 8002e4a:	af00      	add	r7, sp, #0
 8002e4c:	4604      	mov	r4, r0
 8002e4e:	4608      	mov	r0, r1
 8002e50:	4611      	mov	r1, r2
 8002e52:	461a      	mov	r2, r3
 8002e54:	4623      	mov	r3, r4
 8002e56:	80fb      	strh	r3, [r7, #6]
 8002e58:	4603      	mov	r3, r0
 8002e5a:	80bb      	strh	r3, [r7, #4]
 8002e5c:	460b      	mov	r3, r1
 8002e5e:	807b      	strh	r3, [r7, #2]
 8002e60:	4613      	mov	r3, r2
 8002e62:	803b      	strh	r3, [r7, #0]
	uint16_t us;
	uint16_t usC_Current, usP_Current;

	int32_t lError_C = 0, lError_P = 0, lDelta_C, lDelta_P, lDistance;
 8002e64:	2300      	movs	r3, #0
 8002e66:	627b      	str	r3, [r7, #36]	; 0x24
 8002e68:	2300      	movs	r3, #0
 8002e6a:	623b      	str	r3, [r7, #32]
	int32_t lIncrease_C, lIncrease_P;

	lDelta_C = usC2 - usC1;
 8002e6c:	887a      	ldrh	r2, [r7, #2]
 8002e6e:	88fb      	ldrh	r3, [r7, #6]
 8002e70:	1ad3      	subs	r3, r2, r3
 8002e72:	61fb      	str	r3, [r7, #28]
	lDelta_P = usP2 - usP1;
 8002e74:	883a      	ldrh	r2, [r7, #0]
 8002e76:	88bb      	ldrh	r3, [r7, #4]
 8002e78:	1ad3      	subs	r3, r2, r3
 8002e7a:	61bb      	str	r3, [r7, #24]

	usC_Current = usC1;
 8002e7c:	88fb      	ldrh	r3, [r7, #6]
 8002e7e:	85bb      	strh	r3, [r7, #44]	; 0x2c
	usP_Current = usP1;
 8002e80:	88bb      	ldrh	r3, [r7, #4]
 8002e82:	857b      	strh	r3, [r7, #42]	; 0x2a

	if (lDelta_C > 0)
 8002e84:	69fb      	ldr	r3, [r7, #28]
 8002e86:	2b00      	cmp	r3, #0
 8002e88:	dd02      	ble.n	8002e90 <_Z12LCD_DrawLinettttt+0x4a>
		lIncrease_C = 1;
 8002e8a:	2301      	movs	r3, #1
 8002e8c:	613b      	str	r3, [r7, #16]
 8002e8e:	e00b      	b.n	8002ea8 <_Z12LCD_DrawLinettttt+0x62>

	else if (lDelta_C == 0)
 8002e90:	69fb      	ldr	r3, [r7, #28]
 8002e92:	2b00      	cmp	r3, #0
 8002e94:	d102      	bne.n	8002e9c <_Z12LCD_DrawLinettttt+0x56>
		lIncrease_C = 0;
 8002e96:	2300      	movs	r3, #0
 8002e98:	613b      	str	r3, [r7, #16]
 8002e9a:	e005      	b.n	8002ea8 <_Z12LCD_DrawLinettttt+0x62>

	else {
		lIncrease_C = -1;
 8002e9c:	f04f 33ff 	mov.w	r3, #4294967295
 8002ea0:	613b      	str	r3, [r7, #16]
		lDelta_C = -lDelta_C;
 8002ea2:	69fb      	ldr	r3, [r7, #28]
 8002ea4:	425b      	negs	r3, r3
 8002ea6:	61fb      	str	r3, [r7, #28]
	}

	if (lDelta_P > 0)
 8002ea8:	69bb      	ldr	r3, [r7, #24]
 8002eaa:	2b00      	cmp	r3, #0
 8002eac:	dd02      	ble.n	8002eb4 <_Z12LCD_DrawLinettttt+0x6e>
		lIncrease_P = 1;
 8002eae:	2301      	movs	r3, #1
 8002eb0:	60fb      	str	r3, [r7, #12]
 8002eb2:	e00b      	b.n	8002ecc <_Z12LCD_DrawLinettttt+0x86>

	else if (lDelta_P == 0)
 8002eb4:	69bb      	ldr	r3, [r7, #24]
 8002eb6:	2b00      	cmp	r3, #0
 8002eb8:	d102      	bne.n	8002ec0 <_Z12LCD_DrawLinettttt+0x7a>
		lIncrease_P = 0;
 8002eba:	2300      	movs	r3, #0
 8002ebc:	60fb      	str	r3, [r7, #12]
 8002ebe:	e005      	b.n	8002ecc <_Z12LCD_DrawLinettttt+0x86>
	else {
		lIncrease_P = -1;
 8002ec0:	f04f 33ff 	mov.w	r3, #4294967295
 8002ec4:	60fb      	str	r3, [r7, #12]
		lDelta_P = -lDelta_P;
 8002ec6:	69bb      	ldr	r3, [r7, #24]
 8002ec8:	425b      	negs	r3, r3
 8002eca:	61bb      	str	r3, [r7, #24]
	}

	if (lDelta_C > lDelta_P)
 8002ecc:	69fa      	ldr	r2, [r7, #28]
 8002ece:	69bb      	ldr	r3, [r7, #24]
 8002ed0:	429a      	cmp	r2, r3
 8002ed2:	dd02      	ble.n	8002eda <_Z12LCD_DrawLinettttt+0x94>
		lDistance = lDelta_C;
 8002ed4:	69fb      	ldr	r3, [r7, #28]
 8002ed6:	617b      	str	r3, [r7, #20]
 8002ed8:	e001      	b.n	8002ede <_Z12LCD_DrawLinettttt+0x98>

	else
		lDistance = lDelta_P;
 8002eda:	69bb      	ldr	r3, [r7, #24]
 8002edc:	617b      	str	r3, [r7, #20]

	for (us = 0; us <= lDistance + 1; us++) {
 8002ede:	2300      	movs	r3, #0
 8002ee0:	85fb      	strh	r3, [r7, #46]	; 0x2e
 8002ee2:	8dfa      	ldrh	r2, [r7, #46]	; 0x2e
 8002ee4:	697b      	ldr	r3, [r7, #20]
 8002ee6:	3301      	adds	r3, #1
 8002ee8:	429a      	cmp	r2, r3
 8002eea:	dc2c      	bgt.n	8002f46 <_Z12LCD_DrawLinettttt+0x100>
		LCD_DrawDot(usC_Current, usP_Current, usColor);
 8002eec:	f8b7 2040 	ldrh.w	r2, [r7, #64]	; 0x40
 8002ef0:	8d79      	ldrh	r1, [r7, #42]	; 0x2a
 8002ef2:	8dbb      	ldrh	r3, [r7, #44]	; 0x2c
 8002ef4:	4618      	mov	r0, r3
 8002ef6:	f000 f8ff 	bl	80030f8 <_Z11LCD_DrawDotttt>

		lError_C += lDelta_C;
 8002efa:	6a7a      	ldr	r2, [r7, #36]	; 0x24
 8002efc:	69fb      	ldr	r3, [r7, #28]
 8002efe:	4413      	add	r3, r2
 8002f00:	627b      	str	r3, [r7, #36]	; 0x24
		lError_P += lDelta_P;
 8002f02:	6a3a      	ldr	r2, [r7, #32]
 8002f04:	69bb      	ldr	r3, [r7, #24]
 8002f06:	4413      	add	r3, r2
 8002f08:	623b      	str	r3, [r7, #32]

		if (lError_C > lDistance) {
 8002f0a:	6a7a      	ldr	r2, [r7, #36]	; 0x24
 8002f0c:	697b      	ldr	r3, [r7, #20]
 8002f0e:	429a      	cmp	r2, r3
 8002f10:	dd08      	ble.n	8002f24 <_Z12LCD_DrawLinettttt+0xde>
			lError_C -= lDistance;
 8002f12:	6a7a      	ldr	r2, [r7, #36]	; 0x24
 8002f14:	697b      	ldr	r3, [r7, #20]
 8002f16:	1ad3      	subs	r3, r2, r3
 8002f18:	627b      	str	r3, [r7, #36]	; 0x24
			usC_Current += lIncrease_C;
 8002f1a:	693b      	ldr	r3, [r7, #16]
 8002f1c:	b29a      	uxth	r2, r3
 8002f1e:	8dbb      	ldrh	r3, [r7, #44]	; 0x2c
 8002f20:	4413      	add	r3, r2
 8002f22:	85bb      	strh	r3, [r7, #44]	; 0x2c
		}

		if (lError_P > lDistance) {
 8002f24:	6a3a      	ldr	r2, [r7, #32]
 8002f26:	697b      	ldr	r3, [r7, #20]
 8002f28:	429a      	cmp	r2, r3
 8002f2a:	dd08      	ble.n	8002f3e <_Z12LCD_DrawLinettttt+0xf8>
			lError_P -= lDistance;
 8002f2c:	6a3a      	ldr	r2, [r7, #32]
 8002f2e:	697b      	ldr	r3, [r7, #20]
 8002f30:	1ad3      	subs	r3, r2, r3
 8002f32:	623b      	str	r3, [r7, #32]
			usP_Current += lIncrease_P;
 8002f34:	68fb      	ldr	r3, [r7, #12]
 8002f36:	b29a      	uxth	r2, r3
 8002f38:	8d7b      	ldrh	r3, [r7, #42]	; 0x2a
 8002f3a:	4413      	add	r3, r2
 8002f3c:	857b      	strh	r3, [r7, #42]	; 0x2a
	for (us = 0; us <= lDistance + 1; us++) {
 8002f3e:	8dfb      	ldrh	r3, [r7, #46]	; 0x2e
 8002f40:	3301      	adds	r3, #1
 8002f42:	85fb      	strh	r3, [r7, #46]	; 0x2e
 8002f44:	e7cd      	b.n	8002ee2 <_Z12LCD_DrawLinettttt+0x9c>
		}

	}

}
 8002f46:	bf00      	nop
 8002f48:	3734      	adds	r7, #52	; 0x34
 8002f4a:	46bd      	mov	sp, r7
 8002f4c:	bd90      	pop	{r4, r7, pc}

08002f4e <_Z22LCD_DrawEmptyRectanglettttt>:
void LCD_DrawEmptyRectangle(uint16_t usC1, uint16_t usP1, uint16_t usC2,
		uint16_t usP2, uint16_t usColor) {
 8002f4e:	b590      	push	{r4, r7, lr}
 8002f50:	b087      	sub	sp, #28
 8002f52:	af02      	add	r7, sp, #8
 8002f54:	4604      	mov	r4, r0
 8002f56:	4608      	mov	r0, r1
 8002f58:	4611      	mov	r1, r2
 8002f5a:	461a      	mov	r2, r3
 8002f5c:	4623      	mov	r3, r4
 8002f5e:	80fb      	strh	r3, [r7, #6]
 8002f60:	4603      	mov	r3, r0
 8002f62:	80bb      	strh	r3, [r7, #4]
 8002f64:	460b      	mov	r3, r1
 8002f66:	807b      	strh	r3, [r7, #2]
 8002f68:	4613      	mov	r3, r2
 8002f6a:	803b      	strh	r3, [r7, #0]
	for (int i = 0; i <= 3; i++) {
 8002f6c:	2300      	movs	r3, #0
 8002f6e:	60fb      	str	r3, [r7, #12]
 8002f70:	68fb      	ldr	r3, [r7, #12]
 8002f72:	2b03      	cmp	r3, #3
 8002f74:	dc47      	bgt.n	8003006 <_Z22LCD_DrawEmptyRectanglettttt+0xb8>
		LCD_DrawLine(usC1, usP1 + i, usC2, usP1 + i, usColor);
 8002f76:	68fb      	ldr	r3, [r7, #12]
 8002f78:	b29a      	uxth	r2, r3
 8002f7a:	88bb      	ldrh	r3, [r7, #4]
 8002f7c:	4413      	add	r3, r2
 8002f7e:	b299      	uxth	r1, r3
 8002f80:	68fb      	ldr	r3, [r7, #12]
 8002f82:	b29a      	uxth	r2, r3
 8002f84:	88bb      	ldrh	r3, [r7, #4]
 8002f86:	4413      	add	r3, r2
 8002f88:	b29c      	uxth	r4, r3
 8002f8a:	887a      	ldrh	r2, [r7, #2]
 8002f8c:	88f8      	ldrh	r0, [r7, #6]
 8002f8e:	8c3b      	ldrh	r3, [r7, #32]
 8002f90:	9300      	str	r3, [sp, #0]
 8002f92:	4623      	mov	r3, r4
 8002f94:	f7ff ff57 	bl	8002e46 <_Z12LCD_DrawLinettttt>
		LCD_DrawLine(usC1, usP2 + i, usC2, usP2 + i, usColor);
 8002f98:	68fb      	ldr	r3, [r7, #12]
 8002f9a:	b29a      	uxth	r2, r3
 8002f9c:	883b      	ldrh	r3, [r7, #0]
 8002f9e:	4413      	add	r3, r2
 8002fa0:	b299      	uxth	r1, r3
 8002fa2:	68fb      	ldr	r3, [r7, #12]
 8002fa4:	b29a      	uxth	r2, r3
 8002fa6:	883b      	ldrh	r3, [r7, #0]
 8002fa8:	4413      	add	r3, r2
 8002faa:	b29c      	uxth	r4, r3
 8002fac:	887a      	ldrh	r2, [r7, #2]
 8002fae:	88f8      	ldrh	r0, [r7, #6]
 8002fb0:	8c3b      	ldrh	r3, [r7, #32]
 8002fb2:	9300      	str	r3, [sp, #0]
 8002fb4:	4623      	mov	r3, r4
 8002fb6:	f7ff ff46 	bl	8002e46 <_Z12LCD_DrawLinettttt>
		LCD_DrawLine(usC1 + i, usP1, usC1 + i, usP2, usColor);
 8002fba:	68fb      	ldr	r3, [r7, #12]
 8002fbc:	b29a      	uxth	r2, r3
 8002fbe:	88fb      	ldrh	r3, [r7, #6]
 8002fc0:	4413      	add	r3, r2
 8002fc2:	b298      	uxth	r0, r3
 8002fc4:	68fb      	ldr	r3, [r7, #12]
 8002fc6:	b29a      	uxth	r2, r3
 8002fc8:	88fb      	ldrh	r3, [r7, #6]
 8002fca:	4413      	add	r3, r2
 8002fcc:	b29a      	uxth	r2, r3
 8002fce:	883c      	ldrh	r4, [r7, #0]
 8002fd0:	88b9      	ldrh	r1, [r7, #4]
 8002fd2:	8c3b      	ldrh	r3, [r7, #32]
 8002fd4:	9300      	str	r3, [sp, #0]
 8002fd6:	4623      	mov	r3, r4
 8002fd8:	f7ff ff35 	bl	8002e46 <_Z12LCD_DrawLinettttt>
		LCD_DrawLine(usC2 - i, usP1, usC2 - i, usP2, usColor);
 8002fdc:	68fb      	ldr	r3, [r7, #12]
 8002fde:	b29b      	uxth	r3, r3
 8002fe0:	887a      	ldrh	r2, [r7, #2]
 8002fe2:	1ad3      	subs	r3, r2, r3
 8002fe4:	b298      	uxth	r0, r3
 8002fe6:	68fb      	ldr	r3, [r7, #12]
 8002fe8:	b29b      	uxth	r3, r3
 8002fea:	887a      	ldrh	r2, [r7, #2]
 8002fec:	1ad3      	subs	r3, r2, r3
 8002fee:	b29a      	uxth	r2, r3
 8002ff0:	883c      	ldrh	r4, [r7, #0]
 8002ff2:	88b9      	ldrh	r1, [r7, #4]
 8002ff4:	8c3b      	ldrh	r3, [r7, #32]
 8002ff6:	9300      	str	r3, [sp, #0]
 8002ff8:	4623      	mov	r3, r4
 8002ffa:	f7ff ff24 	bl	8002e46 <_Z12LCD_DrawLinettttt>
	for (int i = 0; i <= 3; i++) {
 8002ffe:	68fb      	ldr	r3, [r7, #12]
 8003000:	3301      	adds	r3, #1
 8003002:	60fb      	str	r3, [r7, #12]
 8003004:	e7b4      	b.n	8002f70 <_Z22LCD_DrawEmptyRectanglettttt+0x22>
	}
}
 8003006:	bf00      	nop
 8003008:	3714      	adds	r7, #20
 800300a:	46bd      	mov	sp, r7
 800300c:	bd90      	pop	{r4, r7, pc}
	...

08003010 <_Z12LCD_DrawCharttc>:

void LCD_DrawChar(uint16_t usC, uint16_t usP, const char cChar) {
 8003010:	b580      	push	{r7, lr}
 8003012:	b084      	sub	sp, #16
 8003014:	af00      	add	r7, sp, #0
 8003016:	4603      	mov	r3, r0
 8003018:	80fb      	strh	r3, [r7, #6]
 800301a:	460b      	mov	r3, r1
 800301c:	80bb      	strh	r3, [r7, #4]
 800301e:	4613      	mov	r3, r2
 8003020:	70fb      	strb	r3, [r7, #3]
	uint8_t ucTemp, ucRelativePositon, ucPage, ucColumn;

	ucRelativePositon = cChar - ' ';
 8003022:	78fb      	ldrb	r3, [r7, #3]
 8003024:	3b20      	subs	r3, #32
 8003026:	733b      	strb	r3, [r7, #12]

	LCD_OpenWindow(usC, usP, WIDTH_EN_CHAR, HEIGHT_EN_CHAR);
 8003028:	88b9      	ldrh	r1, [r7, #4]
 800302a:	88f8      	ldrh	r0, [r7, #6]
 800302c:	2310      	movs	r3, #16
 800302e:	2208      	movs	r2, #8
 8003030:	f7ff fe70 	bl	8002d14 <_Z14LCD_OpenWindowtttt>

	LCD_Write_Cmd( CMD_SetPixel);
 8003034:	202c      	movs	r0, #44	; 0x2c
 8003036:	f7ff fd35 	bl	8002aa4 <_Z13LCD_Write_Cmdt>

	for (ucPage = 0; ucPage < HEIGHT_EN_CHAR; ucPage++) {
 800303a:	2300      	movs	r3, #0
 800303c:	73bb      	strb	r3, [r7, #14]
 800303e:	7bbb      	ldrb	r3, [r7, #14]
 8003040:	2b0f      	cmp	r3, #15
 8003042:	d824      	bhi.n	800308e <_Z12LCD_DrawCharttc+0x7e>
		ucTemp = ucAscii_1608[ucRelativePositon][ucPage];
 8003044:	7b3a      	ldrb	r2, [r7, #12]
 8003046:	7bbb      	ldrb	r3, [r7, #14]
 8003048:	4913      	ldr	r1, [pc, #76]	; (8003098 <_Z12LCD_DrawCharttc+0x88>)
 800304a:	0112      	lsls	r2, r2, #4
 800304c:	440a      	add	r2, r1
 800304e:	4413      	add	r3, r2
 8003050:	781b      	ldrb	r3, [r3, #0]
 8003052:	73fb      	strb	r3, [r7, #15]

		for (ucColumn = 0; ucColumn < WIDTH_EN_CHAR; ucColumn++) {
 8003054:	2300      	movs	r3, #0
 8003056:	737b      	strb	r3, [r7, #13]
 8003058:	7b7b      	ldrb	r3, [r7, #13]
 800305a:	2b07      	cmp	r3, #7
 800305c:	d813      	bhi.n	8003086 <_Z12LCD_DrawCharttc+0x76>
			if (ucTemp & 0x01)
 800305e:	7bfb      	ldrb	r3, [r7, #15]
 8003060:	f003 0301 	and.w	r3, r3, #1
 8003064:	2b00      	cmp	r3, #0
 8003066:	d004      	beq.n	8003072 <_Z12LCD_DrawCharttc+0x62>
				LCD_Write_Data( WHITE);
 8003068:	f64f 70ff 	movw	r0, #65535	; 0xffff
 800306c:	f7ff fd28 	bl	8002ac0 <_Z14LCD_Write_Datat>
 8003070:	e002      	b.n	8003078 <_Z12LCD_DrawCharttc+0x68>

			else
				LCD_Write_Data( BLACK);
 8003072:	2000      	movs	r0, #0
 8003074:	f7ff fd24 	bl	8002ac0 <_Z14LCD_Write_Datat>

			ucTemp >>= 1;
 8003078:	7bfb      	ldrb	r3, [r7, #15]
 800307a:	085b      	lsrs	r3, r3, #1
 800307c:	73fb      	strb	r3, [r7, #15]
		for (ucColumn = 0; ucColumn < WIDTH_EN_CHAR; ucColumn++) {
 800307e:	7b7b      	ldrb	r3, [r7, #13]
 8003080:	3301      	adds	r3, #1
 8003082:	737b      	strb	r3, [r7, #13]
 8003084:	e7e8      	b.n	8003058 <_Z12LCD_DrawCharttc+0x48>
	for (ucPage = 0; ucPage < HEIGHT_EN_CHAR; ucPage++) {
 8003086:	7bbb      	ldrb	r3, [r7, #14]
 8003088:	3301      	adds	r3, #1
 800308a:	73bb      	strb	r3, [r7, #14]
 800308c:	e7d7      	b.n	800303e <_Z12LCD_DrawCharttc+0x2e>

		}

	}

}
 800308e:	bf00      	nop
 8003090:	3710      	adds	r7, #16
 8003092:	46bd      	mov	sp, r7
 8003094:	bd80      	pop	{r7, pc}
 8003096:	bf00      	nop
 8003098:	08007d94 	.word	0x08007d94

0800309c <_Z14LCD_DrawStringttPKc>:

void LCD_DrawString(uint16_t usC, uint16_t usP, const char *pStr) {
 800309c:	b580      	push	{r7, lr}
 800309e:	b082      	sub	sp, #8
 80030a0:	af00      	add	r7, sp, #0
 80030a2:	4603      	mov	r3, r0
 80030a4:	603a      	str	r2, [r7, #0]
 80030a6:	80fb      	strh	r3, [r7, #6]
 80030a8:	460b      	mov	r3, r1
 80030aa:	80bb      	strh	r3, [r7, #4]
	while (*pStr != '\0') {
 80030ac:	683b      	ldr	r3, [r7, #0]
 80030ae:	781b      	ldrb	r3, [r3, #0]
 80030b0:	2b00      	cmp	r3, #0
 80030b2:	d01d      	beq.n	80030f0 <_Z14LCD_DrawStringttPKc+0x54>
		if ((usC - LCD_DispWindow_Start_COLUMN + WIDTH_EN_CHAR)
 80030b4:	88fb      	ldrh	r3, [r7, #6]
 80030b6:	2be8      	cmp	r3, #232	; 0xe8
 80030b8:	d904      	bls.n	80030c4 <_Z14LCD_DrawStringttPKc+0x28>
				> LCD_DispWindow_COLUMN) {
			usC = LCD_DispWindow_Start_COLUMN;
 80030ba:	2300      	movs	r3, #0
 80030bc:	80fb      	strh	r3, [r7, #6]
			usP += HEIGHT_EN_CHAR;
 80030be:	88bb      	ldrh	r3, [r7, #4]
 80030c0:	3310      	adds	r3, #16
 80030c2:	80bb      	strh	r3, [r7, #4]
		}

		if ((usP - LCD_DispWindow_Start_PAGE + HEIGHT_EN_CHAR)
 80030c4:	88bb      	ldrh	r3, [r7, #4]
 80030c6:	f5b3 7f98 	cmp.w	r3, #304	; 0x130
 80030ca:	d903      	bls.n	80030d4 <_Z14LCD_DrawStringttPKc+0x38>
				> LCD_DispWindow_PAGE) {
			usC = LCD_DispWindow_Start_COLUMN;
 80030cc:	2300      	movs	r3, #0
 80030ce:	80fb      	strh	r3, [r7, #6]
			usP = LCD_DispWindow_Start_PAGE;
 80030d0:	2300      	movs	r3, #0
 80030d2:	80bb      	strh	r3, [r7, #4]
		}

		LCD_DrawChar(usC, usP, *pStr);
 80030d4:	683b      	ldr	r3, [r7, #0]
 80030d6:	781a      	ldrb	r2, [r3, #0]
 80030d8:	88b9      	ldrh	r1, [r7, #4]
 80030da:	88fb      	ldrh	r3, [r7, #6]
 80030dc:	4618      	mov	r0, r3
 80030de:	f7ff ff97 	bl	8003010 <_Z12LCD_DrawCharttc>

		pStr++;
 80030e2:	683b      	ldr	r3, [r7, #0]
 80030e4:	3301      	adds	r3, #1
 80030e6:	603b      	str	r3, [r7, #0]

		usC += WIDTH_EN_CHAR;
 80030e8:	88fb      	ldrh	r3, [r7, #6]
 80030ea:	3308      	adds	r3, #8
 80030ec:	80fb      	strh	r3, [r7, #6]
	while (*pStr != '\0') {
 80030ee:	e7dd      	b.n	80030ac <_Z14LCD_DrawStringttPKc+0x10>

	}

}
 80030f0:	bf00      	nop
 80030f2:	3708      	adds	r7, #8
 80030f4:	46bd      	mov	sp, r7
 80030f6:	bd80      	pop	{r7, pc}

080030f8 <_Z11LCD_DrawDotttt>:

//Task 2
void LCD_DrawDot(uint16_t usCOLUMN, uint16_t usPAGE, uint16_t usColor) {
 80030f8:	b580      	push	{r7, lr}
 80030fa:	b082      	sub	sp, #8
 80030fc:	af00      	add	r7, sp, #0
 80030fe:	4603      	mov	r3, r0
 8003100:	80fb      	strh	r3, [r7, #6]
 8003102:	460b      	mov	r3, r1
 8003104:	80bb      	strh	r3, [r7, #4]
 8003106:	4613      	mov	r3, r2
 8003108:	807b      	strh	r3, [r7, #2]
	/*
	 *  Task 2 : Implement the LCD_DrawDot to turn on a particular dot on the LCD.
	 */
	LCD_OpenWindow(usCOLUMN, usPAGE, 1, 1);
 800310a:	88b9      	ldrh	r1, [r7, #4]
 800310c:	88f8      	ldrh	r0, [r7, #6]
 800310e:	2301      	movs	r3, #1
 8003110:	2201      	movs	r2, #1
 8003112:	f7ff fdff 	bl	8002d14 <_Z14LCD_OpenWindowtttt>
	LCD_Write_Cmd( CMD_SetPixel);
 8003116:	202c      	movs	r0, #44	; 0x2c
 8003118:	f7ff fcc4 	bl	8002aa4 <_Z13LCD_Write_Cmdt>
	LCD_Write_Data(usColor);
 800311c:	887b      	ldrh	r3, [r7, #2]
 800311e:	4618      	mov	r0, r3
 8003120:	f7ff fcce 	bl	8002ac0 <_Z14LCD_Write_Datat>
}
 8003124:	bf00      	nop
 8003126:	3708      	adds	r7, #8
 8003128:	46bd      	mov	sp, r7
 800312a:	bd80      	pop	{r7, pc}

0800312c <_Z12LCD_DrawBallttt>:
		LCD_DrawDot(usC + SR * cos(i), usP + LR * sin(i), usColor);
	}
}

// Input location of the top left pixel of the ball
void LCD_DrawBall(uint16_t usC, uint16_t usP, uint16_t usColor) {
 800312c:	b590      	push	{r4, r7, lr}
 800312e:	b087      	sub	sp, #28
 8003130:	af02      	add	r7, sp, #8
 8003132:	4603      	mov	r3, r0
 8003134:	80fb      	strh	r3, [r7, #6]
 8003136:	460b      	mov	r3, r1
 8003138:	80bb      	strh	r3, [r7, #4]
 800313a:	4613      	mov	r3, r2
 800313c:	807b      	strh	r3, [r7, #2]
	for (int i = 0; i <= ballWidith; i++) {
 800313e:	2300      	movs	r3, #0
 8003140:	60fb      	str	r3, [r7, #12]
 8003142:	68fb      	ldr	r3, [r7, #12]
 8003144:	2b05      	cmp	r3, #5
 8003146:	dc17      	bgt.n	8003178 <_Z12LCD_DrawBallttt+0x4c>
		LCD_DrawLine(usC, usP + i, usC + ballWidith, usP + i, usColor);
 8003148:	68fb      	ldr	r3, [r7, #12]
 800314a:	b29a      	uxth	r2, r3
 800314c:	88bb      	ldrh	r3, [r7, #4]
 800314e:	4413      	add	r3, r2
 8003150:	b299      	uxth	r1, r3
 8003152:	88fb      	ldrh	r3, [r7, #6]
 8003154:	3305      	adds	r3, #5
 8003156:	b29c      	uxth	r4, r3
 8003158:	68fb      	ldr	r3, [r7, #12]
 800315a:	b29a      	uxth	r2, r3
 800315c:	88bb      	ldrh	r3, [r7, #4]
 800315e:	4413      	add	r3, r2
 8003160:	b29a      	uxth	r2, r3
 8003162:	88f8      	ldrh	r0, [r7, #6]
 8003164:	887b      	ldrh	r3, [r7, #2]
 8003166:	9300      	str	r3, [sp, #0]
 8003168:	4613      	mov	r3, r2
 800316a:	4622      	mov	r2, r4
 800316c:	f7ff fe6b 	bl	8002e46 <_Z12LCD_DrawLinettttt>
	for (int i = 0; i <= ballWidith; i++) {
 8003170:	68fb      	ldr	r3, [r7, #12]
 8003172:	3301      	adds	r3, #1
 8003174:	60fb      	str	r3, [r7, #12]
 8003176:	e7e4      	b.n	8003142 <_Z12LCD_DrawBallttt+0x16>
	}
}
 8003178:	bf00      	nop
 800317a:	3714      	adds	r7, #20
 800317c:	46bd      	mov	sp, r7
 800317e:	bd90      	pop	{r4, r7, pc}

08003180 <_Z16LCD_TeleportBallttttiii>:
// Move ball without in-between animation
void LCD_TeleportBall(uint16_t usC1, uint16_t usP1, uint16_t usC2,
		uint16_t usP2, int player1x, int player2x, int ballDy) {
 8003180:	b590      	push	{r4, r7, lr}
 8003182:	b08f      	sub	sp, #60	; 0x3c
 8003184:	af02      	add	r7, sp, #8
 8003186:	4604      	mov	r4, r0
 8003188:	4608      	mov	r0, r1
 800318a:	4611      	mov	r1, r2
 800318c:	461a      	mov	r2, r3
 800318e:	4623      	mov	r3, r4
 8003190:	80fb      	strh	r3, [r7, #6]
 8003192:	4603      	mov	r3, r0
 8003194:	80bb      	strh	r3, [r7, #4]
 8003196:	460b      	mov	r3, r1
 8003198:	807b      	strh	r3, [r7, #2]
 800319a:	4613      	mov	r3, r2
 800319c:	803b      	strh	r3, [r7, #0]
//	LCD_DrawBall(usC1,usP1,BLACK);
	int xDisplacement, yDisplacement;
	if (ballDy > 0) { // going to player 1
 800319e:	6cbb      	ldr	r3, [r7, #72]	; 0x48
 80031a0:	2b00      	cmp	r3, #0
 80031a2:	f340 80b9 	ble.w	8003318 <_Z16LCD_TeleportBallttttiii+0x198>
		if (usP1 + ballWidith < player1YAxis
 80031a6:	88bb      	ldrh	r3, [r7, #4]
 80031a8:	f5b3 7f93 	cmp.w	r3, #294	; 0x126
 80031ac:	d903      	bls.n	80031b6 <_Z16LCD_TeleportBallttttiii+0x36>
				|| usP1 > player1YAxis + playerHeight) { // safe to remove whole ball
 80031ae:	88bb      	ldrh	r3, [r7, #4]
 80031b0:	f5b3 7f99 	cmp.w	r3, #306	; 0x132
 80031b4:	d30d      	bcc.n	80031d2 <_Z16LCD_TeleportBallttttiii+0x52>
			LCD_DrawBall(usC1, usP1, BLACK);
 80031b6:	88b9      	ldrh	r1, [r7, #4]
 80031b8:	88fb      	ldrh	r3, [r7, #6]
 80031ba:	2200      	movs	r2, #0
 80031bc:	4618      	mov	r0, r3
 80031be:	f7ff ffb5 	bl	800312c <_Z12LCD_DrawBallttt>
			LCD_DrawBall(usC2, usP2, WHITE);
 80031c2:	8839      	ldrh	r1, [r7, #0]
 80031c4:	887b      	ldrh	r3, [r7, #2]
 80031c6:	f64f 72ff 	movw	r2, #65535	; 0xffff
 80031ca:	4618      	mov	r0, r3
 80031cc:	f7ff ffae 	bl	800312c <_Z12LCD_DrawBallttt>
			return;
 80031d0:	e16c      	b.n	80034ac <_Z16LCD_TeleportBallttttiii+0x32c>
		}

		yDisplacement = player1YAxis - usP1; // negative means ball is below and positive means ball is above
 80031d2:	88bb      	ldrh	r3, [r7, #4]
 80031d4:	f5c3 7396 	rsb	r3, r3, #300	; 0x12c
 80031d8:	613b      	str	r3, [r7, #16]
		for (int y = 0; y < abs(yDisplacement); y++) { // middle
 80031da:	2300      	movs	r3, #0
 80031dc:	62fb      	str	r3, [r7, #44]	; 0x2c
 80031de:	693b      	ldr	r3, [r7, #16]
 80031e0:	2b00      	cmp	r3, #0
 80031e2:	bfb8      	it	lt
 80031e4:	425b      	neglt	r3, r3
 80031e6:	6afa      	ldr	r2, [r7, #44]	; 0x2c
 80031e8:	429a      	cmp	r2, r3
 80031ea:	da2d      	bge.n	8003248 <_Z16LCD_TeleportBallttttiii+0xc8>
			if (yDisplacement > 0) { // above
 80031ec:	693b      	ldr	r3, [r7, #16]
 80031ee:	2b00      	cmp	r3, #0
 80031f0:	dd14      	ble.n	800321c <_Z16LCD_TeleportBallttttiii+0x9c>
				LCD_DrawLine(usC1, player1YAxis - 1 - y, usC1 + ballWidith,
 80031f2:	6afb      	ldr	r3, [r7, #44]	; 0x2c
 80031f4:	b29b      	uxth	r3, r3
 80031f6:	f5c3 7395 	rsb	r3, r3, #298	; 0x12a
 80031fa:	3301      	adds	r3, #1
 80031fc:	b299      	uxth	r1, r3
 80031fe:	88fb      	ldrh	r3, [r7, #6]
 8003200:	3305      	adds	r3, #5
 8003202:	b29a      	uxth	r2, r3
 8003204:	6afb      	ldr	r3, [r7, #44]	; 0x2c
 8003206:	b29b      	uxth	r3, r3
 8003208:	f5c3 7395 	rsb	r3, r3, #298	; 0x12a
 800320c:	3301      	adds	r3, #1
 800320e:	b29b      	uxth	r3, r3
 8003210:	88f8      	ldrh	r0, [r7, #6]
 8003212:	2400      	movs	r4, #0
 8003214:	9400      	str	r4, [sp, #0]
 8003216:	f7ff fe16 	bl	8002e46 <_Z12LCD_DrawLinettttt>
 800321a:	e011      	b.n	8003240 <_Z16LCD_TeleportBallttttiii+0xc0>
				player1YAxis - 1 - y, BLACK);
			} else { // below
				LCD_DrawLine(usC1, player1YAxis + playerHeight + 1 + y,
 800321c:	6afb      	ldr	r3, [r7, #44]	; 0x2c
 800321e:	b29b      	uxth	r3, r3
 8003220:	f503 7399 	add.w	r3, r3, #306	; 0x132
 8003224:	b299      	uxth	r1, r3
 8003226:	88fb      	ldrh	r3, [r7, #6]
 8003228:	3305      	adds	r3, #5
 800322a:	b29a      	uxth	r2, r3
 800322c:	6afb      	ldr	r3, [r7, #44]	; 0x2c
 800322e:	b29b      	uxth	r3, r3
 8003230:	f503 7399 	add.w	r3, r3, #306	; 0x132
 8003234:	b29b      	uxth	r3, r3
 8003236:	88f8      	ldrh	r0, [r7, #6]
 8003238:	2400      	movs	r4, #0
 800323a:	9400      	str	r4, [sp, #0]
 800323c:	f7ff fe03 	bl	8002e46 <_Z12LCD_DrawLinettttt>
		for (int y = 0; y < abs(yDisplacement); y++) { // middle
 8003240:	6afb      	ldr	r3, [r7, #44]	; 0x2c
 8003242:	3301      	adds	r3, #1
 8003244:	62fb      	str	r3, [r7, #44]	; 0x2c
 8003246:	e7ca      	b.n	80031de <_Z16LCD_TeleportBallttttiii+0x5e>
						usC1 + ballWidith, player1YAxis + playerHeight + 1 + y,
						BLACK);
			}
		}
		xDisplacement = player1x - usC1; // negative means ball is right and positive means ball is left
 8003248:	88fb      	ldrh	r3, [r7, #6]
 800324a:	6c3a      	ldr	r2, [r7, #64]	; 0x40
 800324c:	1ad3      	subs	r3, r2, r3
 800324e:	60fb      	str	r3, [r7, #12]
		if (xDisplacement < 0) {
 8003250:	68fb      	ldr	r3, [r7, #12]
 8003252:	2b00      	cmp	r3, #0
 8003254:	da3a      	bge.n	80032cc <_Z16LCD_TeleportBallttttiii+0x14c>
			if (player1x + playerWidith > usC1 + ballWidith) { // middle
 8003256:	6c3b      	ldr	r3, [r7, #64]	; 0x40
 8003258:	f103 0227 	add.w	r2, r3, #39	; 0x27
 800325c:	88fb      	ldrh	r3, [r7, #6]
 800325e:	429a      	cmp	r2, r3
 8003260:	db07      	blt.n	8003272 <_Z16LCD_TeleportBallttttiii+0xf2>
				LCD_DrawBall(usC2, usP2, WHITE);
 8003262:	8839      	ldrh	r1, [r7, #0]
 8003264:	887b      	ldrh	r3, [r7, #2]
 8003266:	f64f 72ff 	movw	r2, #65535	; 0xffff
 800326a:	4618      	mov	r0, r3
 800326c:	f7ff ff5e 	bl	800312c <_Z12LCD_DrawBallttt>
				return;
 8003270:	e11c      	b.n	80034ac <_Z16LCD_TeleportBallttttiii+0x32c>
			}
			xDisplacement = player1x + playerWidith - usC1 - ballWidith;
 8003272:	6c3b      	ldr	r3, [r7, #64]	; 0x40
 8003274:	f103 022d 	add.w	r2, r3, #45	; 0x2d
 8003278:	88fb      	ldrh	r3, [r7, #6]
 800327a:	1ad3      	subs	r3, r2, r3
 800327c:	3b05      	subs	r3, #5
 800327e:	60fb      	str	r3, [r7, #12]
			for (int x = 0; x < abs(xDisplacement); x++) { // left
 8003280:	2300      	movs	r3, #0
 8003282:	62bb      	str	r3, [r7, #40]	; 0x28
 8003284:	68fb      	ldr	r3, [r7, #12]
 8003286:	2b00      	cmp	r3, #0
 8003288:	bfb8      	it	lt
 800328a:	425b      	neglt	r3, r3
 800328c:	6aba      	ldr	r2, [r7, #40]	; 0x28
 800328e:	429a      	cmp	r2, r3
 8003290:	f280 8105 	bge.w	800349e <_Z16LCD_TeleportBallttttiii+0x31e>
				LCD_DrawLine(player1x + 1 + x, usP1, player1x + 1 + x,
 8003294:	6c3b      	ldr	r3, [r7, #64]	; 0x40
 8003296:	b29a      	uxth	r2, r3
 8003298:	6abb      	ldr	r3, [r7, #40]	; 0x28
 800329a:	b29b      	uxth	r3, r3
 800329c:	4413      	add	r3, r2
 800329e:	b29b      	uxth	r3, r3
 80032a0:	3301      	adds	r3, #1
 80032a2:	b298      	uxth	r0, r3
 80032a4:	6c3b      	ldr	r3, [r7, #64]	; 0x40
 80032a6:	b29a      	uxth	r2, r3
 80032a8:	6abb      	ldr	r3, [r7, #40]	; 0x28
 80032aa:	b29b      	uxth	r3, r3
 80032ac:	4413      	add	r3, r2
 80032ae:	b29b      	uxth	r3, r3
 80032b0:	3301      	adds	r3, #1
 80032b2:	b29a      	uxth	r2, r3
 80032b4:	88bb      	ldrh	r3, [r7, #4]
 80032b6:	3305      	adds	r3, #5
 80032b8:	b29b      	uxth	r3, r3
 80032ba:	88b9      	ldrh	r1, [r7, #4]
 80032bc:	2400      	movs	r4, #0
 80032be:	9400      	str	r4, [sp, #0]
 80032c0:	f7ff fdc1 	bl	8002e46 <_Z12LCD_DrawLinettttt>
			for (int x = 0; x < abs(xDisplacement); x++) { // left
 80032c4:	6abb      	ldr	r3, [r7, #40]	; 0x28
 80032c6:	3301      	adds	r3, #1
 80032c8:	62bb      	str	r3, [r7, #40]	; 0x28
 80032ca:	e7db      	b.n	8003284 <_Z16LCD_TeleportBallttttiii+0x104>
						usP1 + ballWidith, BLACK);
			}
		} else {
			for (int x = 0; x < abs(xDisplacement); x++) { // left
 80032cc:	2300      	movs	r3, #0
 80032ce:	627b      	str	r3, [r7, #36]	; 0x24
 80032d0:	68fb      	ldr	r3, [r7, #12]
 80032d2:	2b00      	cmp	r3, #0
 80032d4:	bfb8      	it	lt
 80032d6:	425b      	neglt	r3, r3
 80032d8:	6a7a      	ldr	r2, [r7, #36]	; 0x24
 80032da:	429a      	cmp	r2, r3
 80032dc:	f280 80df 	bge.w	800349e <_Z16LCD_TeleportBallttttiii+0x31e>
				LCD_DrawLine(player1x - 1 - x, usP1, player1x - 1 - x,
 80032e0:	6c3b      	ldr	r3, [r7, #64]	; 0x40
 80032e2:	b29a      	uxth	r2, r3
 80032e4:	6a7b      	ldr	r3, [r7, #36]	; 0x24
 80032e6:	b29b      	uxth	r3, r3
 80032e8:	1ad3      	subs	r3, r2, r3
 80032ea:	b29b      	uxth	r3, r3
 80032ec:	3b01      	subs	r3, #1
 80032ee:	b298      	uxth	r0, r3
 80032f0:	6c3b      	ldr	r3, [r7, #64]	; 0x40
 80032f2:	b29a      	uxth	r2, r3
 80032f4:	6a7b      	ldr	r3, [r7, #36]	; 0x24
 80032f6:	b29b      	uxth	r3, r3
 80032f8:	1ad3      	subs	r3, r2, r3
 80032fa:	b29b      	uxth	r3, r3
 80032fc:	3b01      	subs	r3, #1
 80032fe:	b29a      	uxth	r2, r3
 8003300:	88bb      	ldrh	r3, [r7, #4]
 8003302:	3305      	adds	r3, #5
 8003304:	b29b      	uxth	r3, r3
 8003306:	88b9      	ldrh	r1, [r7, #4]
 8003308:	2400      	movs	r4, #0
 800330a:	9400      	str	r4, [sp, #0]
 800330c:	f7ff fd9b 	bl	8002e46 <_Z12LCD_DrawLinettttt>
			for (int x = 0; x < abs(xDisplacement); x++) { // left
 8003310:	6a7b      	ldr	r3, [r7, #36]	; 0x24
 8003312:	3301      	adds	r3, #1
 8003314:	627b      	str	r3, [r7, #36]	; 0x24
 8003316:	e7db      	b.n	80032d0 <_Z16LCD_TeleportBallttttiii+0x150>
						usP1 + ballWidith, BLACK);
			}
		}

	} else { // going to player 2
		if (usP1 > player2YAxis || usP1 < player2YAxis - playerHeight) { // safe to remove whole ball
 8003318:	88bb      	ldrh	r3, [r7, #4]
 800331a:	2b14      	cmp	r3, #20
 800331c:	d802      	bhi.n	8003324 <_Z16LCD_TeleportBallttttiii+0x1a4>
 800331e:	88bb      	ldrh	r3, [r7, #4]
 8003320:	2b0e      	cmp	r3, #14
 8003322:	d80d      	bhi.n	8003340 <_Z16LCD_TeleportBallttttiii+0x1c0>
			LCD_DrawBall(usC1, usP1, BLACK);
 8003324:	88b9      	ldrh	r1, [r7, #4]
 8003326:	88fb      	ldrh	r3, [r7, #6]
 8003328:	2200      	movs	r2, #0
 800332a:	4618      	mov	r0, r3
 800332c:	f7ff fefe 	bl	800312c <_Z12LCD_DrawBallttt>
			LCD_DrawBall(usC2, usP2, WHITE);
 8003330:	8839      	ldrh	r1, [r7, #0]
 8003332:	887b      	ldrh	r3, [r7, #2]
 8003334:	f64f 72ff 	movw	r2, #65535	; 0xffff
 8003338:	4618      	mov	r0, r3
 800333a:	f7ff fef7 	bl	800312c <_Z12LCD_DrawBallttt>
			return;
 800333e:	e0b5      	b.n	80034ac <_Z16LCD_TeleportBallttttiii+0x32c>
		}
		int player2TopLeftYAxis = player2YAxis - playerHeight;
 8003340:	230f      	movs	r3, #15
 8003342:	617b      	str	r3, [r7, #20]
		yDisplacement = player2TopLeftYAxis - usP1; // negative means ball is below and positive means ball is above
 8003344:	88bb      	ldrh	r3, [r7, #4]
 8003346:	697a      	ldr	r2, [r7, #20]
 8003348:	1ad3      	subs	r3, r2, r3
 800334a:	613b      	str	r3, [r7, #16]
		for (int y = 0; y < abs(yDisplacement); y++) { // middle
 800334c:	2300      	movs	r3, #0
 800334e:	623b      	str	r3, [r7, #32]
 8003350:	693b      	ldr	r3, [r7, #16]
 8003352:	2b00      	cmp	r3, #0
 8003354:	bfb8      	it	lt
 8003356:	425b      	neglt	r3, r3
 8003358:	6a3a      	ldr	r2, [r7, #32]
 800335a:	429a      	cmp	r2, r3
 800335c:	da39      	bge.n	80033d2 <_Z16LCD_TeleportBallttttiii+0x252>
			if (yDisplacement > 0) { // above
 800335e:	693b      	ldr	r3, [r7, #16]
 8003360:	2b00      	cmp	r3, #0
 8003362:	dd19      	ble.n	8003398 <_Z16LCD_TeleportBallttttiii+0x218>
				LCD_DrawLine(usC1, player2TopLeftYAxis - 1 - y,
 8003364:	697b      	ldr	r3, [r7, #20]
 8003366:	b29a      	uxth	r2, r3
 8003368:	6a3b      	ldr	r3, [r7, #32]
 800336a:	b29b      	uxth	r3, r3
 800336c:	1ad3      	subs	r3, r2, r3
 800336e:	b29b      	uxth	r3, r3
 8003370:	3b01      	subs	r3, #1
 8003372:	b299      	uxth	r1, r3
 8003374:	88fb      	ldrh	r3, [r7, #6]
 8003376:	3305      	adds	r3, #5
 8003378:	b29c      	uxth	r4, r3
						usC1 + ballWidith, player2TopLeftYAxis - 1 - y, BLACK);
 800337a:	697b      	ldr	r3, [r7, #20]
 800337c:	b29a      	uxth	r2, r3
 800337e:	6a3b      	ldr	r3, [r7, #32]
 8003380:	b29b      	uxth	r3, r3
 8003382:	1ad3      	subs	r3, r2, r3
 8003384:	b29b      	uxth	r3, r3
				LCD_DrawLine(usC1, player2TopLeftYAxis - 1 - y,
 8003386:	3b01      	subs	r3, #1
 8003388:	b29b      	uxth	r3, r3
 800338a:	88f8      	ldrh	r0, [r7, #6]
 800338c:	2200      	movs	r2, #0
 800338e:	9200      	str	r2, [sp, #0]
 8003390:	4622      	mov	r2, r4
 8003392:	f7ff fd58 	bl	8002e46 <_Z12LCD_DrawLinettttt>
 8003396:	e018      	b.n	80033ca <_Z16LCD_TeleportBallttttiii+0x24a>
			} else { // below
				LCD_DrawLine(usC1, player2TopLeftYAxis + playerHeight + 1 + y,
 8003398:	697b      	ldr	r3, [r7, #20]
 800339a:	b29a      	uxth	r2, r3
 800339c:	6a3b      	ldr	r3, [r7, #32]
 800339e:	b29b      	uxth	r3, r3
 80033a0:	4413      	add	r3, r2
 80033a2:	b29b      	uxth	r3, r3
 80033a4:	3306      	adds	r3, #6
 80033a6:	b299      	uxth	r1, r3
 80033a8:	88fb      	ldrh	r3, [r7, #6]
 80033aa:	3305      	adds	r3, #5
 80033ac:	b29c      	uxth	r4, r3
						usC1 + ballWidith,
						player2TopLeftYAxis + playerHeight + 1 + y,
 80033ae:	697b      	ldr	r3, [r7, #20]
 80033b0:	b29a      	uxth	r2, r3
 80033b2:	6a3b      	ldr	r3, [r7, #32]
 80033b4:	b29b      	uxth	r3, r3
 80033b6:	4413      	add	r3, r2
 80033b8:	b29b      	uxth	r3, r3
				LCD_DrawLine(usC1, player2TopLeftYAxis + playerHeight + 1 + y,
 80033ba:	3306      	adds	r3, #6
 80033bc:	b29b      	uxth	r3, r3
 80033be:	88f8      	ldrh	r0, [r7, #6]
 80033c0:	2200      	movs	r2, #0
 80033c2:	9200      	str	r2, [sp, #0]
 80033c4:	4622      	mov	r2, r4
 80033c6:	f7ff fd3e 	bl	8002e46 <_Z12LCD_DrawLinettttt>
		for (int y = 0; y < abs(yDisplacement); y++) { // middle
 80033ca:	6a3b      	ldr	r3, [r7, #32]
 80033cc:	3301      	adds	r3, #1
 80033ce:	623b      	str	r3, [r7, #32]
 80033d0:	e7be      	b.n	8003350 <_Z16LCD_TeleportBallttttiii+0x1d0>
						BLACK);
			}
		}
		xDisplacement = player2x - usC1; // negative means ball is right and positive means ball is left
 80033d2:	88fb      	ldrh	r3, [r7, #6]
 80033d4:	6c7a      	ldr	r2, [r7, #68]	; 0x44
 80033d6:	1ad3      	subs	r3, r2, r3
 80033d8:	60fb      	str	r3, [r7, #12]
		if (xDisplacement < 0) {
 80033da:	68fb      	ldr	r3, [r7, #12]
 80033dc:	2b00      	cmp	r3, #0
 80033de:	da39      	bge.n	8003454 <_Z16LCD_TeleportBallttttiii+0x2d4>
			if (player2x + playerWidith > usC1 + ballWidith) { // middle
 80033e0:	6c7b      	ldr	r3, [r7, #68]	; 0x44
 80033e2:	f103 0227 	add.w	r2, r3, #39	; 0x27
 80033e6:	88fb      	ldrh	r3, [r7, #6]
 80033e8:	429a      	cmp	r2, r3
 80033ea:	db07      	blt.n	80033fc <_Z16LCD_TeleportBallttttiii+0x27c>
				LCD_DrawBall(usC2, usP2, WHITE);
 80033ec:	8839      	ldrh	r1, [r7, #0]
 80033ee:	887b      	ldrh	r3, [r7, #2]
 80033f0:	f64f 72ff 	movw	r2, #65535	; 0xffff
 80033f4:	4618      	mov	r0, r3
 80033f6:	f7ff fe99 	bl	800312c <_Z12LCD_DrawBallttt>
				return;
 80033fa:	e057      	b.n	80034ac <_Z16LCD_TeleportBallttttiii+0x32c>
			}
			xDisplacement = player2x + playerWidith - usC1 - ballWidith;
 80033fc:	6c7b      	ldr	r3, [r7, #68]	; 0x44
 80033fe:	f103 022d 	add.w	r2, r3, #45	; 0x2d
 8003402:	88fb      	ldrh	r3, [r7, #6]
 8003404:	1ad3      	subs	r3, r2, r3
 8003406:	3b05      	subs	r3, #5
 8003408:	60fb      	str	r3, [r7, #12]
			for (int x = 0; x < abs(xDisplacement); x++) { // left
 800340a:	2300      	movs	r3, #0
 800340c:	61fb      	str	r3, [r7, #28]
 800340e:	68fb      	ldr	r3, [r7, #12]
 8003410:	2b00      	cmp	r3, #0
 8003412:	bfb8      	it	lt
 8003414:	425b      	neglt	r3, r3
 8003416:	69fa      	ldr	r2, [r7, #28]
 8003418:	429a      	cmp	r2, r3
 800341a:	da40      	bge.n	800349e <_Z16LCD_TeleportBallttttiii+0x31e>
				LCD_DrawLine(player2x + 1 + x, usP1, player2x + 1 + x,
 800341c:	6c7b      	ldr	r3, [r7, #68]	; 0x44
 800341e:	b29a      	uxth	r2, r3
 8003420:	69fb      	ldr	r3, [r7, #28]
 8003422:	b29b      	uxth	r3, r3
 8003424:	4413      	add	r3, r2
 8003426:	b29b      	uxth	r3, r3
 8003428:	3301      	adds	r3, #1
 800342a:	b298      	uxth	r0, r3
 800342c:	6c7b      	ldr	r3, [r7, #68]	; 0x44
 800342e:	b29a      	uxth	r2, r3
 8003430:	69fb      	ldr	r3, [r7, #28]
 8003432:	b29b      	uxth	r3, r3
 8003434:	4413      	add	r3, r2
 8003436:	b29b      	uxth	r3, r3
 8003438:	3301      	adds	r3, #1
 800343a:	b29a      	uxth	r2, r3
 800343c:	88bb      	ldrh	r3, [r7, #4]
 800343e:	3305      	adds	r3, #5
 8003440:	b29b      	uxth	r3, r3
 8003442:	88b9      	ldrh	r1, [r7, #4]
 8003444:	2400      	movs	r4, #0
 8003446:	9400      	str	r4, [sp, #0]
 8003448:	f7ff fcfd 	bl	8002e46 <_Z12LCD_DrawLinettttt>
			for (int x = 0; x < abs(xDisplacement); x++) { // left
 800344c:	69fb      	ldr	r3, [r7, #28]
 800344e:	3301      	adds	r3, #1
 8003450:	61fb      	str	r3, [r7, #28]
 8003452:	e7dc      	b.n	800340e <_Z16LCD_TeleportBallttttiii+0x28e>
						usP1 + ballWidith, BLACK);
			}
		} else {
			for (int x = 0; x < abs(xDisplacement); x++) { // left
 8003454:	2300      	movs	r3, #0
 8003456:	61bb      	str	r3, [r7, #24]
 8003458:	68fb      	ldr	r3, [r7, #12]
 800345a:	2b00      	cmp	r3, #0
 800345c:	bfb8      	it	lt
 800345e:	425b      	neglt	r3, r3
 8003460:	69ba      	ldr	r2, [r7, #24]
 8003462:	429a      	cmp	r2, r3
 8003464:	da1b      	bge.n	800349e <_Z16LCD_TeleportBallttttiii+0x31e>
				LCD_DrawLine(player2x - 1 - x, usP1, player2x - 1 - x,
 8003466:	6c7b      	ldr	r3, [r7, #68]	; 0x44
 8003468:	b29a      	uxth	r2, r3
 800346a:	69bb      	ldr	r3, [r7, #24]
 800346c:	b29b      	uxth	r3, r3
 800346e:	1ad3      	subs	r3, r2, r3
 8003470:	b29b      	uxth	r3, r3
 8003472:	3b01      	subs	r3, #1
 8003474:	b298      	uxth	r0, r3
 8003476:	6c7b      	ldr	r3, [r7, #68]	; 0x44
 8003478:	b29a      	uxth	r2, r3
 800347a:	69bb      	ldr	r3, [r7, #24]
 800347c:	b29b      	uxth	r3, r3
 800347e:	1ad3      	subs	r3, r2, r3
 8003480:	b29b      	uxth	r3, r3
 8003482:	3b01      	subs	r3, #1
 8003484:	b29a      	uxth	r2, r3
 8003486:	88bb      	ldrh	r3, [r7, #4]
 8003488:	3305      	adds	r3, #5
 800348a:	b29b      	uxth	r3, r3
 800348c:	88b9      	ldrh	r1, [r7, #4]
 800348e:	2400      	movs	r4, #0
 8003490:	9400      	str	r4, [sp, #0]
 8003492:	f7ff fcd8 	bl	8002e46 <_Z12LCD_DrawLinettttt>
			for (int x = 0; x < abs(xDisplacement); x++) { // left
 8003496:	69bb      	ldr	r3, [r7, #24]
 8003498:	3301      	adds	r3, #1
 800349a:	61bb      	str	r3, [r7, #24]
 800349c:	e7dc      	b.n	8003458 <_Z16LCD_TeleportBallttttiii+0x2d8>
						usP1 + ballWidith, BLACK);
			}
		}
	}
	LCD_DrawBall(usC2, usP2, WHITE);
 800349e:	8839      	ldrh	r1, [r7, #0]
 80034a0:	887b      	ldrh	r3, [r7, #2]
 80034a2:	f64f 72ff 	movw	r2, #65535	; 0xffff
 80034a6:	4618      	mov	r0, r3
 80034a8:	f7ff fe40 	bl	800312c <_Z12LCD_DrawBallttt>
}
 80034ac:	3734      	adds	r7, #52	; 0x34
 80034ae:	46bd      	mov	sp, r7
 80034b0:	bd90      	pop	{r4, r7, pc}

080034b2 <_Z12LCD_MoveBalltttt>:

// Current location first then new location
void LCD_MoveBall(uint16_t usC1, uint16_t usP1, uint16_t usC2, uint16_t usP2) {
 80034b2:	b590      	push	{r4, r7, lr}
 80034b4:	b087      	sub	sp, #28
 80034b6:	af02      	add	r7, sp, #8
 80034b8:	4604      	mov	r4, r0
 80034ba:	4608      	mov	r0, r1
 80034bc:	4611      	mov	r1, r2
 80034be:	461a      	mov	r2, r3
 80034c0:	4623      	mov	r3, r4
 80034c2:	80fb      	strh	r3, [r7, #6]
 80034c4:	4603      	mov	r3, r0
 80034c6:	80bb      	strh	r3, [r7, #4]
 80034c8:	460b      	mov	r3, r1
 80034ca:	807b      	strh	r3, [r7, #2]
 80034cc:	4613      	mov	r3, r2
 80034ce:	803b      	strh	r3, [r7, #0]
	int xDisplacement = usC1 - usC2;
 80034d0:	88fa      	ldrh	r2, [r7, #6]
 80034d2:	887b      	ldrh	r3, [r7, #2]
 80034d4:	1ad3      	subs	r3, r2, r3
 80034d6:	60fb      	str	r3, [r7, #12]
	int yDisplacement = usP1 - usP2;
 80034d8:	88ba      	ldrh	r2, [r7, #4]
 80034da:	883b      	ldrh	r3, [r7, #0]
 80034dc:	1ad3      	subs	r3, r2, r3
 80034de:	60bb      	str	r3, [r7, #8]
	if (xDisplacement == 0 && yDisplacement == 0) {
 80034e0:	68fb      	ldr	r3, [r7, #12]
 80034e2:	2b00      	cmp	r3, #0
 80034e4:	d103      	bne.n	80034ee <_Z12LCD_MoveBalltttt+0x3c>
 80034e6:	68bb      	ldr	r3, [r7, #8]
 80034e8:	2b00      	cmp	r3, #0
 80034ea:	f000 8085 	beq.w	80035f8 <_Z12LCD_MoveBalltttt+0x146>
		return;
	}
	if (xDisplacement < 0) { // ball moved right
 80034ee:	68fb      	ldr	r3, [r7, #12]
 80034f0:	2b00      	cmp	r3, #0
 80034f2:	da1c      	bge.n	800352e <_Z12LCD_MoveBalltttt+0x7c>
		LCD_DrawLine(usC1, usP1, usC1, usP1 + ballWidith, BLACK);
 80034f4:	88bb      	ldrh	r3, [r7, #4]
 80034f6:	3305      	adds	r3, #5
 80034f8:	b29b      	uxth	r3, r3
 80034fa:	88fa      	ldrh	r2, [r7, #6]
 80034fc:	88b9      	ldrh	r1, [r7, #4]
 80034fe:	88f8      	ldrh	r0, [r7, #6]
 8003500:	2400      	movs	r4, #0
 8003502:	9400      	str	r4, [sp, #0]
 8003504:	f7ff fc9f 	bl	8002e46 <_Z12LCD_DrawLinettttt>
		usC1++;
 8003508:	88fb      	ldrh	r3, [r7, #6]
 800350a:	3301      	adds	r3, #1
 800350c:	80fb      	strh	r3, [r7, #6]
		LCD_DrawLine(usC1 + ballWidith, usP1, usC1 + ballWidith,
 800350e:	88fb      	ldrh	r3, [r7, #6]
 8003510:	3305      	adds	r3, #5
 8003512:	b298      	uxth	r0, r3
 8003514:	88fb      	ldrh	r3, [r7, #6]
 8003516:	3305      	adds	r3, #5
 8003518:	b29a      	uxth	r2, r3
 800351a:	88bb      	ldrh	r3, [r7, #4]
 800351c:	3305      	adds	r3, #5
 800351e:	b29b      	uxth	r3, r3
 8003520:	88b9      	ldrh	r1, [r7, #4]
 8003522:	f64f 74ff 	movw	r4, #65535	; 0xffff
 8003526:	9400      	str	r4, [sp, #0]
 8003528:	f7ff fc8d 	bl	8002e46 <_Z12LCD_DrawLinettttt>
 800352c:	e01e      	b.n	800356c <_Z12LCD_MoveBalltttt+0xba>
				usP1 + ballWidith, WHITE);
	} else if (xDisplacement > 0) { // ball moved left
 800352e:	68fb      	ldr	r3, [r7, #12]
 8003530:	2b00      	cmp	r3, #0
 8003532:	dd1b      	ble.n	800356c <_Z12LCD_MoveBalltttt+0xba>
		LCD_DrawLine(usC1 + ballWidith, usP1, usC1 + ballWidith,
 8003534:	88fb      	ldrh	r3, [r7, #6]
 8003536:	3305      	adds	r3, #5
 8003538:	b298      	uxth	r0, r3
 800353a:	88fb      	ldrh	r3, [r7, #6]
 800353c:	3305      	adds	r3, #5
 800353e:	b29a      	uxth	r2, r3
 8003540:	88bb      	ldrh	r3, [r7, #4]
 8003542:	3305      	adds	r3, #5
 8003544:	b29b      	uxth	r3, r3
 8003546:	88b9      	ldrh	r1, [r7, #4]
 8003548:	2400      	movs	r4, #0
 800354a:	9400      	str	r4, [sp, #0]
 800354c:	f7ff fc7b 	bl	8002e46 <_Z12LCD_DrawLinettttt>
				usP1 + ballWidith, BLACK);
		usC1--;
 8003550:	88fb      	ldrh	r3, [r7, #6]
 8003552:	3b01      	subs	r3, #1
 8003554:	80fb      	strh	r3, [r7, #6]
		LCD_DrawLine(usC1, usP1, usC1, usP1 + ballWidith, WHITE);
 8003556:	88bb      	ldrh	r3, [r7, #4]
 8003558:	3305      	adds	r3, #5
 800355a:	b29b      	uxth	r3, r3
 800355c:	88fa      	ldrh	r2, [r7, #6]
 800355e:	88b9      	ldrh	r1, [r7, #4]
 8003560:	88f8      	ldrh	r0, [r7, #6]
 8003562:	f64f 74ff 	movw	r4, #65535	; 0xffff
 8003566:	9400      	str	r4, [sp, #0]
 8003568:	f7ff fc6d 	bl	8002e46 <_Z12LCD_DrawLinettttt>
	}
	if (yDisplacement < 0) { // ball moved down
 800356c:	68bb      	ldr	r3, [r7, #8]
 800356e:	2b00      	cmp	r3, #0
 8003570:	da1c      	bge.n	80035ac <_Z12LCD_MoveBalltttt+0xfa>
		LCD_DrawLine(usC1, usP1, usC1 + ballWidith, usP1, BLACK);
 8003572:	88fb      	ldrh	r3, [r7, #6]
 8003574:	3305      	adds	r3, #5
 8003576:	b29a      	uxth	r2, r3
 8003578:	88bb      	ldrh	r3, [r7, #4]
 800357a:	88b9      	ldrh	r1, [r7, #4]
 800357c:	88f8      	ldrh	r0, [r7, #6]
 800357e:	2400      	movs	r4, #0
 8003580:	9400      	str	r4, [sp, #0]
 8003582:	f7ff fc60 	bl	8002e46 <_Z12LCD_DrawLinettttt>
		usP1++;
 8003586:	88bb      	ldrh	r3, [r7, #4]
 8003588:	3301      	adds	r3, #1
 800358a:	80bb      	strh	r3, [r7, #4]
		LCD_DrawLine(usC1, usP1 + ballWidith, usC1 + ballWidith,
 800358c:	88bb      	ldrh	r3, [r7, #4]
 800358e:	3305      	adds	r3, #5
 8003590:	b299      	uxth	r1, r3
 8003592:	88fb      	ldrh	r3, [r7, #6]
 8003594:	3305      	adds	r3, #5
 8003596:	b29a      	uxth	r2, r3
 8003598:	88bb      	ldrh	r3, [r7, #4]
 800359a:	3305      	adds	r3, #5
 800359c:	b29b      	uxth	r3, r3
 800359e:	88f8      	ldrh	r0, [r7, #6]
 80035a0:	f64f 74ff 	movw	r4, #65535	; 0xffff
 80035a4:	9400      	str	r4, [sp, #0]
 80035a6:	f7ff fc4e 	bl	8002e46 <_Z12LCD_DrawLinettttt>
 80035aa:	e01e      	b.n	80035ea <_Z12LCD_MoveBalltttt+0x138>
				usP1 + ballWidith, WHITE);
	} else if (yDisplacement > 0) { // ball moved up
 80035ac:	68bb      	ldr	r3, [r7, #8]
 80035ae:	2b00      	cmp	r3, #0
 80035b0:	dd1b      	ble.n	80035ea <_Z12LCD_MoveBalltttt+0x138>
		LCD_DrawLine(usC1, usP1 + ballWidith, usC1 + ballWidith,
 80035b2:	88bb      	ldrh	r3, [r7, #4]
 80035b4:	3305      	adds	r3, #5
 80035b6:	b299      	uxth	r1, r3
 80035b8:	88fb      	ldrh	r3, [r7, #6]
 80035ba:	3305      	adds	r3, #5
 80035bc:	b29a      	uxth	r2, r3
 80035be:	88bb      	ldrh	r3, [r7, #4]
 80035c0:	3305      	adds	r3, #5
 80035c2:	b29b      	uxth	r3, r3
 80035c4:	88f8      	ldrh	r0, [r7, #6]
 80035c6:	2400      	movs	r4, #0
 80035c8:	9400      	str	r4, [sp, #0]
 80035ca:	f7ff fc3c 	bl	8002e46 <_Z12LCD_DrawLinettttt>
				usP1 + ballWidith, BLACK);
		usP1--;
 80035ce:	88bb      	ldrh	r3, [r7, #4]
 80035d0:	3b01      	subs	r3, #1
 80035d2:	80bb      	strh	r3, [r7, #4]
		LCD_DrawLine(usC1, usP1, usC1 + ballWidith, usP1, WHITE);
 80035d4:	88fb      	ldrh	r3, [r7, #6]
 80035d6:	3305      	adds	r3, #5
 80035d8:	b29a      	uxth	r2, r3
 80035da:	88bb      	ldrh	r3, [r7, #4]
 80035dc:	88b9      	ldrh	r1, [r7, #4]
 80035de:	88f8      	ldrh	r0, [r7, #6]
 80035e0:	f64f 74ff 	movw	r4, #65535	; 0xffff
 80035e4:	9400      	str	r4, [sp, #0]
 80035e6:	f7ff fc2e 	bl	8002e46 <_Z12LCD_DrawLinettttt>
	}
	LCD_MoveBall(usC1, usP1, usC2, usP2);
 80035ea:	883b      	ldrh	r3, [r7, #0]
 80035ec:	887a      	ldrh	r2, [r7, #2]
 80035ee:	88b9      	ldrh	r1, [r7, #4]
 80035f0:	88f8      	ldrh	r0, [r7, #6]
 80035f2:	f7ff ff5e 	bl	80034b2 <_Z12LCD_MoveBalltttt>
 80035f6:	e000      	b.n	80035fa <_Z12LCD_MoveBalltttt+0x148>
		return;
 80035f8:	bf00      	nop
}
 80035fa:	3714      	adds	r7, #20
 80035fc:	46bd      	mov	sp, r7
 80035fe:	bd90      	pop	{r4, r7, pc}

08003600 <_Z14LCD_DrawPlayerttt>:

void LCD_DrawPlayer(uint16_t usC, uint16_t usP, uint16_t usColor) {
 8003600:	b590      	push	{r4, r7, lr}
 8003602:	b087      	sub	sp, #28
 8003604:	af02      	add	r7, sp, #8
 8003606:	4603      	mov	r3, r0
 8003608:	80fb      	strh	r3, [r7, #6]
 800360a:	460b      	mov	r3, r1
 800360c:	80bb      	strh	r3, [r7, #4]
 800360e:	4613      	mov	r3, r2
 8003610:	807b      	strh	r3, [r7, #2]
	for (int i = 0; i <= playerHeight; i++) {
 8003612:	2300      	movs	r3, #0
 8003614:	60fb      	str	r3, [r7, #12]
 8003616:	68fb      	ldr	r3, [r7, #12]
 8003618:	2b05      	cmp	r3, #5
 800361a:	dc17      	bgt.n	800364c <_Z14LCD_DrawPlayerttt+0x4c>
		LCD_DrawLine(usC, usP + i, usC + playerWidith, usP + i, usColor);
 800361c:	68fb      	ldr	r3, [r7, #12]
 800361e:	b29a      	uxth	r2, r3
 8003620:	88bb      	ldrh	r3, [r7, #4]
 8003622:	4413      	add	r3, r2
 8003624:	b299      	uxth	r1, r3
 8003626:	88fb      	ldrh	r3, [r7, #6]
 8003628:	332d      	adds	r3, #45	; 0x2d
 800362a:	b29c      	uxth	r4, r3
 800362c:	68fb      	ldr	r3, [r7, #12]
 800362e:	b29a      	uxth	r2, r3
 8003630:	88bb      	ldrh	r3, [r7, #4]
 8003632:	4413      	add	r3, r2
 8003634:	b29a      	uxth	r2, r3
 8003636:	88f8      	ldrh	r0, [r7, #6]
 8003638:	887b      	ldrh	r3, [r7, #2]
 800363a:	9300      	str	r3, [sp, #0]
 800363c:	4613      	mov	r3, r2
 800363e:	4622      	mov	r2, r4
 8003640:	f7ff fc01 	bl	8002e46 <_Z12LCD_DrawLinettttt>
	for (int i = 0; i <= playerHeight; i++) {
 8003644:	68fb      	ldr	r3, [r7, #12]
 8003646:	3301      	adds	r3, #1
 8003648:	60fb      	str	r3, [r7, #12]
 800364a:	e7e4      	b.n	8003616 <_Z14LCD_DrawPlayerttt+0x16>
	}
}
 800364c:	bf00      	nop
 800364e:	3714      	adds	r7, #20
 8003650:	46bd      	mov	sp, r7
 8003652:	bd90      	pop	{r4, r7, pc}

08003654 <_Z10checkTouchtttt>:

// return true if previous and current are touching, otherwise false
bool checkTouch(uint16_t usC1, uint16_t usP1, uint16_t usC2, uint16_t usP2) {
 8003654:	b590      	push	{r4, r7, lr}
 8003656:	b083      	sub	sp, #12
 8003658:	af00      	add	r7, sp, #0
 800365a:	4604      	mov	r4, r0
 800365c:	4608      	mov	r0, r1
 800365e:	4611      	mov	r1, r2
 8003660:	461a      	mov	r2, r3
 8003662:	4623      	mov	r3, r4
 8003664:	80fb      	strh	r3, [r7, #6]
 8003666:	4603      	mov	r3, r0
 8003668:	80bb      	strh	r3, [r7, #4]
 800366a:	460b      	mov	r3, r1
 800366c:	807b      	strh	r3, [r7, #2]
 800366e:	4613      	mov	r3, r2
 8003670:	803b      	strh	r3, [r7, #0]
	if (usC1 == playerNotTouching && usC2 == playerNotTouching) {
 8003672:	88fb      	ldrh	r3, [r7, #6]
 8003674:	f5b3 5ffa 	cmp.w	r3, #8000	; 0x1f40
 8003678:	d105      	bne.n	8003686 <_Z10checkTouchtttt+0x32>
 800367a:	887b      	ldrh	r3, [r7, #2]
 800367c:	f5b3 5ffa 	cmp.w	r3, #8000	; 0x1f40
 8003680:	d101      	bne.n	8003686 <_Z10checkTouchtttt+0x32>
		return false;
 8003682:	2300      	movs	r3, #0
 8003684:	e019      	b.n	80036ba <_Z10checkTouchtttt+0x66>
	} else if (usC2 == playerNotTouching) {
 8003686:	887b      	ldrh	r3, [r7, #2]
 8003688:	f5b3 5ffa 	cmp.w	r3, #8000	; 0x1f40
 800368c:	d107      	bne.n	800369e <_Z10checkTouchtttt+0x4a>
		LCD_DrawPlayer(usC1, usP1, BLACK);
 800368e:	88b9      	ldrh	r1, [r7, #4]
 8003690:	88fb      	ldrh	r3, [r7, #6]
 8003692:	2200      	movs	r2, #0
 8003694:	4618      	mov	r0, r3
 8003696:	f7ff ffb3 	bl	8003600 <_Z14LCD_DrawPlayerttt>
		return false;
 800369a:	2300      	movs	r3, #0
 800369c:	e00d      	b.n	80036ba <_Z10checkTouchtttt+0x66>
	} else if (usC1 == playerNotTouching) {
 800369e:	88fb      	ldrh	r3, [r7, #6]
 80036a0:	f5b3 5ffa 	cmp.w	r3, #8000	; 0x1f40
 80036a4:	d108      	bne.n	80036b8 <_Z10checkTouchtttt+0x64>
		LCD_DrawPlayer(usC2, usP2, WHITE);
 80036a6:	8839      	ldrh	r1, [r7, #0]
 80036a8:	887b      	ldrh	r3, [r7, #2]
 80036aa:	f64f 72ff 	movw	r2, #65535	; 0xffff
 80036ae:	4618      	mov	r0, r3
 80036b0:	f7ff ffa6 	bl	8003600 <_Z14LCD_DrawPlayerttt>
		return false;
 80036b4:	2300      	movs	r3, #0
 80036b6:	e000      	b.n	80036ba <_Z10checkTouchtttt+0x66>
	}
	return true;
 80036b8:	2301      	movs	r3, #1
}
 80036ba:	4618      	mov	r0, r3
 80036bc:	370c      	adds	r7, #12
 80036be:	46bd      	mov	sp, r7
 80036c0:	bd90      	pop	{r4, r7, pc}

080036c2 <_Z14LCD_MovePlayertttt>:

void LCD_MovePlayer(uint16_t usC1, uint16_t usP1, uint16_t usC2,
		uint16_t usP2) {
 80036c2:	b590      	push	{r4, r7, lr}
 80036c4:	b089      	sub	sp, #36	; 0x24
 80036c6:	af02      	add	r7, sp, #8
 80036c8:	4604      	mov	r4, r0
 80036ca:	4608      	mov	r0, r1
 80036cc:	4611      	mov	r1, r2
 80036ce:	461a      	mov	r2, r3
 80036d0:	4623      	mov	r3, r4
 80036d2:	80fb      	strh	r3, [r7, #6]
 80036d4:	4603      	mov	r3, r0
 80036d6:	80bb      	strh	r3, [r7, #4]
 80036d8:	460b      	mov	r3, r1
 80036da:	807b      	strh	r3, [r7, #2]
 80036dc:	4613      	mov	r3, r2
 80036de:	803b      	strh	r3, [r7, #0]
	if (!checkTouch(usC1, usP1, usC2, usP2)) {
 80036e0:	883b      	ldrh	r3, [r7, #0]
 80036e2:	887a      	ldrh	r2, [r7, #2]
 80036e4:	88b9      	ldrh	r1, [r7, #4]
 80036e6:	88f8      	ldrh	r0, [r7, #6]
 80036e8:	f7ff ffb4 	bl	8003654 <_Z10checkTouchtttt>
 80036ec:	4603      	mov	r3, r0
 80036ee:	f083 0301 	eor.w	r3, r3, #1
 80036f2:	b2db      	uxtb	r3, r3
 80036f4:	2b00      	cmp	r3, #0
 80036f6:	d17d      	bne.n	80037f4 <_Z14LCD_MovePlayertttt+0x132>
		return;
	}
	int displacement = usC1 - usC2;
 80036f8:	88fa      	ldrh	r2, [r7, #6]
 80036fa:	887b      	ldrh	r3, [r7, #2]
 80036fc:	1ad3      	subs	r3, r2, r3
 80036fe:	613b      	str	r3, [r7, #16]
	int absDisplacement = abs(displacement);
 8003700:	693b      	ldr	r3, [r7, #16]
 8003702:	2b00      	cmp	r3, #0
 8003704:	bfb8      	it	lt
 8003706:	425b      	neglt	r3, r3
 8003708:	60fb      	str	r3, [r7, #12]
	if (absDisplacement >= playerWidith) { // whole player display needs to be updated
 800370a:	68fb      	ldr	r3, [r7, #12]
 800370c:	2b2c      	cmp	r3, #44	; 0x2c
 800370e:	dd0d      	ble.n	800372c <_Z14LCD_MovePlayertttt+0x6a>
		LCD_DrawPlayer(usC1, usP1, BLACK);
 8003710:	88b9      	ldrh	r1, [r7, #4]
 8003712:	88fb      	ldrh	r3, [r7, #6]
 8003714:	2200      	movs	r2, #0
 8003716:	4618      	mov	r0, r3
 8003718:	f7ff ff72 	bl	8003600 <_Z14LCD_DrawPlayerttt>
		LCD_DrawPlayer(usC2, usP2, WHITE);
 800371c:	8839      	ldrh	r1, [r7, #0]
 800371e:	887b      	ldrh	r3, [r7, #2]
 8003720:	f64f 72ff 	movw	r2, #65535	; 0xffff
 8003724:	4618      	mov	r0, r3
 8003726:	f7ff ff6b 	bl	8003600 <_Z14LCD_DrawPlayerttt>
		return;
 800372a:	e064      	b.n	80037f6 <_Z14LCD_MovePlayertttt+0x134>
	}
	for (int i = 0; i < absDisplacement; i++) {
 800372c:	2300      	movs	r3, #0
 800372e:	617b      	str	r3, [r7, #20]
 8003730:	697a      	ldr	r2, [r7, #20]
 8003732:	68fb      	ldr	r3, [r7, #12]
 8003734:	429a      	cmp	r2, r3
 8003736:	da5e      	bge.n	80037f6 <_Z14LCD_MovePlayertttt+0x134>
		if (displacement < 0) { // player moved right
 8003738:	693b      	ldr	r3, [r7, #16]
 800373a:	2b00      	cmp	r3, #0
 800373c:	da29      	bge.n	8003792 <_Z14LCD_MovePlayertttt+0xd0>
			LCD_DrawLine(usC1 + i, usP1, usC1 + i, usP1 + playerHeight, BLACK);
 800373e:	697b      	ldr	r3, [r7, #20]
 8003740:	b29a      	uxth	r2, r3
 8003742:	88fb      	ldrh	r3, [r7, #6]
 8003744:	4413      	add	r3, r2
 8003746:	b298      	uxth	r0, r3
 8003748:	697b      	ldr	r3, [r7, #20]
 800374a:	b29a      	uxth	r2, r3
 800374c:	88fb      	ldrh	r3, [r7, #6]
 800374e:	4413      	add	r3, r2
 8003750:	b29a      	uxth	r2, r3
 8003752:	88bb      	ldrh	r3, [r7, #4]
 8003754:	3305      	adds	r3, #5
 8003756:	b29b      	uxth	r3, r3
 8003758:	88b9      	ldrh	r1, [r7, #4]
 800375a:	2400      	movs	r4, #0
 800375c:	9400      	str	r4, [sp, #0]
 800375e:	f7ff fb72 	bl	8002e46 <_Z12LCD_DrawLinettttt>
			LCD_DrawLine(usC1 + playerWidith + i + 1, usP2,
 8003762:	697b      	ldr	r3, [r7, #20]
 8003764:	b29a      	uxth	r2, r3
 8003766:	88fb      	ldrh	r3, [r7, #6]
 8003768:	4413      	add	r3, r2
 800376a:	b29b      	uxth	r3, r3
 800376c:	332e      	adds	r3, #46	; 0x2e
 800376e:	b298      	uxth	r0, r3
					usC1 + playerWidith + i + 1, usP2 + playerHeight, WHITE);
 8003770:	697b      	ldr	r3, [r7, #20]
 8003772:	b29a      	uxth	r2, r3
 8003774:	88fb      	ldrh	r3, [r7, #6]
 8003776:	4413      	add	r3, r2
 8003778:	b29b      	uxth	r3, r3
			LCD_DrawLine(usC1 + playerWidith + i + 1, usP2,
 800377a:	332e      	adds	r3, #46	; 0x2e
 800377c:	b29a      	uxth	r2, r3
 800377e:	883b      	ldrh	r3, [r7, #0]
 8003780:	3305      	adds	r3, #5
 8003782:	b29b      	uxth	r3, r3
 8003784:	8839      	ldrh	r1, [r7, #0]
 8003786:	f64f 74ff 	movw	r4, #65535	; 0xffff
 800378a:	9400      	str	r4, [sp, #0]
 800378c:	f7ff fb5b 	bl	8002e46 <_Z12LCD_DrawLinettttt>
 8003790:	e02c      	b.n	80037ec <_Z14LCD_MovePlayertttt+0x12a>
		} else { // player moved left
			LCD_DrawLine(usC1 + playerWidith - i, usP2, usC1 + playerWidith - i,
 8003792:	697b      	ldr	r3, [r7, #20]
 8003794:	b29b      	uxth	r3, r3
 8003796:	88fa      	ldrh	r2, [r7, #6]
 8003798:	1ad3      	subs	r3, r2, r3
 800379a:	b29b      	uxth	r3, r3
 800379c:	332d      	adds	r3, #45	; 0x2d
 800379e:	b298      	uxth	r0, r3
 80037a0:	697b      	ldr	r3, [r7, #20]
 80037a2:	b29b      	uxth	r3, r3
 80037a4:	88fa      	ldrh	r2, [r7, #6]
 80037a6:	1ad3      	subs	r3, r2, r3
 80037a8:	b29b      	uxth	r3, r3
 80037aa:	332d      	adds	r3, #45	; 0x2d
 80037ac:	b29a      	uxth	r2, r3
 80037ae:	883b      	ldrh	r3, [r7, #0]
 80037b0:	3305      	adds	r3, #5
 80037b2:	b29b      	uxth	r3, r3
 80037b4:	8839      	ldrh	r1, [r7, #0]
 80037b6:	2400      	movs	r4, #0
 80037b8:	9400      	str	r4, [sp, #0]
 80037ba:	f7ff fb44 	bl	8002e46 <_Z12LCD_DrawLinettttt>
					usP2 + playerHeight, BLACK);
			LCD_DrawLine(usC1 - i - 1, usP1, usC1 - i - 1, usP1 + playerHeight,
 80037be:	697b      	ldr	r3, [r7, #20]
 80037c0:	b29b      	uxth	r3, r3
 80037c2:	88fa      	ldrh	r2, [r7, #6]
 80037c4:	1ad3      	subs	r3, r2, r3
 80037c6:	b29b      	uxth	r3, r3
 80037c8:	3b01      	subs	r3, #1
 80037ca:	b298      	uxth	r0, r3
 80037cc:	697b      	ldr	r3, [r7, #20]
 80037ce:	b29b      	uxth	r3, r3
 80037d0:	88fa      	ldrh	r2, [r7, #6]
 80037d2:	1ad3      	subs	r3, r2, r3
 80037d4:	b29b      	uxth	r3, r3
 80037d6:	3b01      	subs	r3, #1
 80037d8:	b29a      	uxth	r2, r3
 80037da:	88bb      	ldrh	r3, [r7, #4]
 80037dc:	3305      	adds	r3, #5
 80037de:	b29b      	uxth	r3, r3
 80037e0:	88b9      	ldrh	r1, [r7, #4]
 80037e2:	f64f 74ff 	movw	r4, #65535	; 0xffff
 80037e6:	9400      	str	r4, [sp, #0]
 80037e8:	f7ff fb2d 	bl	8002e46 <_Z12LCD_DrawLinettttt>
	for (int i = 0; i < absDisplacement; i++) {
 80037ec:	697b      	ldr	r3, [r7, #20]
 80037ee:	3301      	adds	r3, #1
 80037f0:	617b      	str	r3, [r7, #20]
 80037f2:	e79d      	b.n	8003730 <_Z14LCD_MovePlayertttt+0x6e>
		return;
 80037f4:	bf00      	nop
			WHITE);
		}
	}
}
 80037f6:	371c      	adds	r7, #28
 80037f8:	46bd      	mov	sp, r7
 80037fa:	bd90      	pop	{r4, r7, pc}

080037fc <_Z11LCD_DrawNetv>:

void LCD_DrawNet() {
 80037fc:	b580      	push	{r7, lr}
 80037fe:	b082      	sub	sp, #8
 8003800:	af00      	add	r7, sp, #0
	for (int i = 0; i < LCD_DispWindow_COLUMN; i += 5) {
 8003802:	2300      	movs	r3, #0
 8003804:	607b      	str	r3, [r7, #4]
 8003806:	687b      	ldr	r3, [r7, #4]
 8003808:	2bef      	cmp	r3, #239	; 0xef
 800380a:	dc0b      	bgt.n	8003824 <_Z11LCD_DrawNetv+0x28>
		LCD_DrawDot(i, LCD_DispWindow_PAGE / 2, WHITE);
 800380c:	687b      	ldr	r3, [r7, #4]
 800380e:	b29b      	uxth	r3, r3
 8003810:	f64f 72ff 	movw	r2, #65535	; 0xffff
 8003814:	21a0      	movs	r1, #160	; 0xa0
 8003816:	4618      	mov	r0, r3
 8003818:	f7ff fc6e 	bl	80030f8 <_Z11LCD_DrawDotttt>
	for (int i = 0; i < LCD_DispWindow_COLUMN; i += 5) {
 800381c:	687b      	ldr	r3, [r7, #4]
 800381e:	3305      	adds	r3, #5
 8003820:	607b      	str	r3, [r7, #4]
 8003822:	e7f0      	b.n	8003806 <_Z11LCD_DrawNetv+0xa>
	}
}
 8003824:	bf00      	nop
 8003826:	3708      	adds	r7, #8
 8003828:	46bd      	mov	sp, r7
 800382a:	bd80      	pop	{r7, pc}

0800382c <main>:
/**
  * @brief  The application entry point.
  * @retval int
  */
int main(void)
{
 800382c:	b580      	push	{r7, lr}
 800382e:	b0a0      	sub	sp, #128	; 0x80
 8003830:	af00      	add	r7, sp, #0
  /* USER CODE END 1 */

  /* MCU Configuration--------------------------------------------------------*/

  /* Reset of all peripherals, Initializes the Flash interface and the Systick. */
  HAL_Init();
 8003832:	f000 ffa5 	bl	8004780 <HAL_Init>
  /* USER CODE BEGIN Init */

  /* USER CODE END Init */

  /* Configure the system clock */
  SystemClock_Config();
 8003836:	f000 f897 	bl	8003968 <_Z18SystemClock_Configv>
  /* USER CODE BEGIN SysInit */

  /* USER CODE END SysInit */

  /* Initialize all configured peripherals */
  MX_GPIO_Init();
 800383a:	f000 f991 	bl	8003b60 <_ZL12MX_GPIO_Initv>
  MX_FSMC_Init();
 800383e:	f000 faa5 	bl	8003d8c <_ZL12MX_FSMC_Initv>
  MX_ADC1_Init();
 8003842:	f000 f8fd 	bl	8003a40 <_ZL12MX_ADC1_Initv>
  MX_ADC2_Init();
 8003846:	f000 f943 	bl	8003ad0 <_ZL12MX_ADC2_Initv>
//  MX_TIM4_Init();
  /* USER CODE BEGIN 2 */
	macXPT2046_CS_DISABLE();
 800384a:	2200      	movs	r2, #0
 800384c:	f44f 5100 	mov.w	r1, #8192	; 0x2000
 8003850:	483f      	ldr	r0, [pc, #252]	; (8003950 <main+0x124>)
 8003852:	f001 ffc0 	bl	80057d6 <HAL_GPIO_WritePin>
	LCD_INIT();
 8003856:	f7ff f8da 	bl	8002a0e <_Z8LCD_INITv>
	HAL_ADCEx_Calibration_Start(&hadc1);
 800385a:	483e      	ldr	r0, [pc, #248]	; (8003954 <main+0x128>)
 800385c:	f001 fc54 	bl	8005108 <HAL_ADCEx_Calibration_Start>
	HAL_ADCEx_Calibration_Start(&hadc2);
 8003860:	483d      	ldr	r0, [pc, #244]	; (8003958 <main+0x12c>)
 8003862:	f001 fc51 	bl	8005108 <HAL_ADCEx_Calibration_Start>
	int k1Release = 0, k2Release =0;
 8003866:	2300      	movs	r3, #0
 8003868:	67fb      	str	r3, [r7, #124]	; 0x7c
 800386a:	2300      	movs	r3, #0
 800386c:	67bb      	str	r3, [r7, #120]	; 0x78
	Game game;
 800386e:	1d3b      	adds	r3, r7, #4
 8003870:	4618      	mov	r0, r3
 8003872:	f7fd f8ad 	bl	80009d0 <_ZN4GameC1Ev>
	game.player[Player::player1].setADC_HandleTypeDef(&hadc1);
 8003876:	1d3b      	adds	r3, r7, #4
 8003878:	3308      	adds	r3, #8
 800387a:	4936      	ldr	r1, [pc, #216]	; (8003954 <main+0x128>)
 800387c:	4618      	mov	r0, r3
 800387e:	f7fe fb14 	bl	8001eaa <_ZN6Player20setADC_HandleTypeDefEP19__ADC_HandleTypeDef>
	game.player[Player::player2].setADC_HandleTypeDef(&hadc2);
 8003882:	1d3b      	adds	r3, r7, #4
 8003884:	3328      	adds	r3, #40	; 0x28
 8003886:	4934      	ldr	r1, [pc, #208]	; (8003958 <main+0x12c>)
 8003888:	4618      	mov	r0, r3
 800388a:	f7fe fb0e 	bl	8001eaa <_ZN6Player20setADC_HandleTypeDefEP19__ADC_HandleTypeDef>
//game.menu.setCurrentMenu(Menu::vsBotGame);
	game.menu.displayCurrentMenu();
 800388e:	1d3b      	adds	r3, r7, #4
 8003890:	3348      	adds	r3, #72	; 0x48
 8003892:	4618      	mov	r0, r3
 8003894:	f7fd ff84 	bl	80017a0 <_ZN4Menu18displayCurrentMenuEv>
  /* USER CODE BEGIN WHILE */
//	int inputPin;
	while (1) {
//		inputPin = HAL_GPIO_ReadPin(GPIOA, player1Touch_Pin);
//		inputPin;
		if (ucXPT2046_TouchFlag == 1) {
 8003898:	4b30      	ldr	r3, [pc, #192]	; (800395c <main+0x130>)
 800389a:	781b      	ldrb	r3, [r3, #0]
 800389c:	b2db      	uxtb	r3, r3
 800389e:	2b01      	cmp	r3, #1
 80038a0:	bf0c      	ite	eq
 80038a2:	2301      	moveq	r3, #1
 80038a4:	2300      	movne	r3, #0
 80038a6:	b2db      	uxtb	r3, r3
 80038a8:	2b00      	cmp	r3, #0
 80038aa:	d013      	beq.n	80038d4 <main+0xa8>
			if (game.getStart() == false) { // touch functions allowed only when game has not started
 80038ac:	1d3b      	adds	r3, r7, #4
 80038ae:	4618      	mov	r0, r3
 80038b0:	f7fd f8c4 	bl	8000a3c <_ZN4Game8getStartEv>
 80038b4:	4603      	mov	r3, r0
 80038b6:	2b00      	cmp	r3, #0
 80038b8:	bf0c      	ite	eq
 80038ba:	2301      	moveq	r3, #1
 80038bc:	2300      	movne	r3, #0
 80038be:	b2db      	uxtb	r3, r3
 80038c0:	2b00      	cmp	r3, #0
 80038c2:	d004      	beq.n	80038ce <main+0xa2>
				game.menu.onClickListiener();
 80038c4:	1d3b      	adds	r3, r7, #4
 80038c6:	3348      	adds	r3, #72	; 0x48
 80038c8:	4618      	mov	r0, r3
 80038ca:	f7fe f947 	bl	8001b5c <_ZN4Menu16onClickListienerEv>
			}
			ucXPT2046_TouchFlag = 0;
 80038ce:	4b23      	ldr	r3, [pc, #140]	; (800395c <main+0x130>)
 80038d0:	2200      	movs	r2, #0
 80038d2:	701a      	strb	r2, [r3, #0]
		}
		if (k1Flag == 1) { // check if k1 was press and run only 1 time
 80038d4:	4b22      	ldr	r3, [pc, #136]	; (8003960 <main+0x134>)
 80038d6:	781b      	ldrb	r3, [r3, #0]
 80038d8:	b2db      	uxtb	r3, r3
 80038da:	2b01      	cmp	r3, #1
 80038dc:	bf0c      	ite	eq
 80038de:	2301      	moveq	r3, #1
 80038e0:	2300      	movne	r3, #0
 80038e2:	b2db      	uxtb	r3, r3
 80038e4:	2b00      	cmp	r3, #0
 80038e6:	d005      	beq.n	80038f4 <main+0xc8>
			k1Release = 1;
 80038e8:	2301      	movs	r3, #1
 80038ea:	67fb      	str	r3, [r7, #124]	; 0x7c
			k1Flag = 0;
 80038ec:	4b1c      	ldr	r3, [pc, #112]	; (8003960 <main+0x134>)
 80038ee:	2200      	movs	r2, #0
 80038f0:	701a      	strb	r2, [r3, #0]
 80038f2:	e00b      	b.n	800390c <main+0xe0>
		} else if (k1Release == 1) {
 80038f4:	6ffb      	ldr	r3, [r7, #124]	; 0x7c
 80038f6:	2b01      	cmp	r3, #1
 80038f8:	d108      	bne.n	800390c <main+0xe0>
			k1Release = 0;
 80038fa:	2300      	movs	r3, #0
 80038fc:	67fb      	str	r3, [r7, #124]	; 0x7c
			k1Flag = 0;
 80038fe:	4b18      	ldr	r3, [pc, #96]	; (8003960 <main+0x134>)
 8003900:	2200      	movs	r2, #0
 8003902:	701a      	strb	r2, [r3, #0]
			game.quit();
 8003904:	1d3b      	adds	r3, r7, #4
 8003906:	4618      	mov	r0, r3
 8003908:	f7fd f8a3 	bl	8000a52 <_ZN4Game4quitEv>
		}
		if (k2Flag == 1) { // check if k2 was press and run only 1 time
 800390c:	4b15      	ldr	r3, [pc, #84]	; (8003964 <main+0x138>)
 800390e:	781b      	ldrb	r3, [r3, #0]
 8003910:	b2db      	uxtb	r3, r3
 8003912:	2b01      	cmp	r3, #1
 8003914:	bf0c      	ite	eq
 8003916:	2301      	moveq	r3, #1
 8003918:	2300      	movne	r3, #0
 800391a:	b2db      	uxtb	r3, r3
 800391c:	2b00      	cmp	r3, #0
 800391e:	d005      	beq.n	800392c <main+0x100>
			k2Release = 1;
 8003920:	2301      	movs	r3, #1
 8003922:	67bb      	str	r3, [r7, #120]	; 0x78
			k2Flag = 0;
 8003924:	4b0f      	ldr	r3, [pc, #60]	; (8003964 <main+0x138>)
 8003926:	2200      	movs	r2, #0
 8003928:	701a      	strb	r2, [r3, #0]
 800392a:	e00b      	b.n	8003944 <main+0x118>
		} else if (k2Release == 1) {
 800392c:	6fbb      	ldr	r3, [r7, #120]	; 0x78
 800392e:	2b01      	cmp	r3, #1
 8003930:	d108      	bne.n	8003944 <main+0x118>
			k2Release = 0;
 8003932:	2300      	movs	r3, #0
 8003934:	67bb      	str	r3, [r7, #120]	; 0x78
			k2Flag = 0;
 8003936:	4b0b      	ldr	r3, [pc, #44]	; (8003964 <main+0x138>)
 8003938:	2200      	movs	r2, #0
 800393a:	701a      	strb	r2, [r3, #0]
			game.restart();
 800393c:	1d3b      	adds	r3, r7, #4
 800393e:	4618      	mov	r0, r3
 8003940:	f7fd f8bd 	bl	8000abe <_ZN4Game7restartEv>
		}
game.gaming();
 8003944:	1d3b      	adds	r3, r7, #4
 8003946:	4618      	mov	r0, r3
 8003948:	f7fd fcde 	bl	8001308 <_ZN4Game6gamingEv>
		if (ucXPT2046_TouchFlag == 1) {
 800394c:	e7a4      	b.n	8003898 <main+0x6c>
 800394e:	bf00      	nop
 8003950:	40011400 	.word	0x40011400
 8003954:	20000108 	.word	0x20000108
 8003958:	20000138 	.word	0x20000138
 800395c:	200001b8 	.word	0x200001b8
 8003960:	200001b9 	.word	0x200001b9
 8003964:	200001ba 	.word	0x200001ba

08003968 <_Z18SystemClock_Configv>:
/**
  * @brief System Clock Configuration
  * @retval None
  */
void SystemClock_Config(void)
{
 8003968:	b580      	push	{r7, lr}
 800396a:	b096      	sub	sp, #88	; 0x58
 800396c:	af00      	add	r7, sp, #0
  RCC_OscInitTypeDef RCC_OscInitStruct = {0};
 800396e:	f107 0330 	add.w	r3, r7, #48	; 0x30
 8003972:	2228      	movs	r2, #40	; 0x28
 8003974:	2100      	movs	r1, #0
 8003976:	4618      	mov	r0, r3
 8003978:	f003 fcf2 	bl	8007360 <memset>
  RCC_ClkInitTypeDef RCC_ClkInitStruct = {0};
 800397c:	f107 031c 	add.w	r3, r7, #28
 8003980:	2200      	movs	r2, #0
 8003982:	601a      	str	r2, [r3, #0]
 8003984:	605a      	str	r2, [r3, #4]
 8003986:	609a      	str	r2, [r3, #8]
 8003988:	60da      	str	r2, [r3, #12]
 800398a:	611a      	str	r2, [r3, #16]
  RCC_PeriphCLKInitTypeDef PeriphClkInit = {0};
 800398c:	1d3b      	adds	r3, r7, #4
 800398e:	2200      	movs	r2, #0
 8003990:	601a      	str	r2, [r3, #0]
 8003992:	605a      	str	r2, [r3, #4]
 8003994:	609a      	str	r2, [r3, #8]
 8003996:	60da      	str	r2, [r3, #12]
 8003998:	611a      	str	r2, [r3, #16]
 800399a:	615a      	str	r2, [r3, #20]

  /** Initializes the RCC Oscillators according to the specified parameters
  * in the RCC_OscInitTypeDef structure.
  */
  RCC_OscInitStruct.OscillatorType = RCC_OSCILLATORTYPE_HSE;
 800399c:	2301      	movs	r3, #1
 800399e:	633b      	str	r3, [r7, #48]	; 0x30
  RCC_OscInitStruct.HSEState = RCC_HSE_ON;
 80039a0:	f44f 3380 	mov.w	r3, #65536	; 0x10000
 80039a4:	637b      	str	r3, [r7, #52]	; 0x34
  RCC_OscInitStruct.HSEPredivValue = RCC_HSE_PREDIV_DIV1;
 80039a6:	2300      	movs	r3, #0
 80039a8:	63bb      	str	r3, [r7, #56]	; 0x38
  RCC_OscInitStruct.HSIState = RCC_HSI_ON;
 80039aa:	2301      	movs	r3, #1
 80039ac:	643b      	str	r3, [r7, #64]	; 0x40
  RCC_OscInitStruct.PLL.PLLState = RCC_PLL_ON;
 80039ae:	2302      	movs	r3, #2
 80039b0:	64fb      	str	r3, [r7, #76]	; 0x4c
  RCC_OscInitStruct.PLL.PLLSource = RCC_PLLSOURCE_HSE;
 80039b2:	f44f 3380 	mov.w	r3, #65536	; 0x10000
 80039b6:	653b      	str	r3, [r7, #80]	; 0x50
  RCC_OscInitStruct.PLL.PLLMUL = RCC_PLL_MUL9;
 80039b8:	f44f 13e0 	mov.w	r3, #1835008	; 0x1c0000
 80039bc:	657b      	str	r3, [r7, #84]	; 0x54
  if (HAL_RCC_OscConfig(&RCC_OscInitStruct) != HAL_OK)
 80039be:	f107 0330 	add.w	r3, r7, #48	; 0x30
 80039c2:	4618      	mov	r0, r3
 80039c4:	f001 ff42 	bl	800584c <HAL_RCC_OscConfig>
 80039c8:	4603      	mov	r3, r0
 80039ca:	2b00      	cmp	r3, #0
 80039cc:	bf14      	ite	ne
 80039ce:	2301      	movne	r3, #1
 80039d0:	2300      	moveq	r3, #0
 80039d2:	b2db      	uxtb	r3, r3
 80039d4:	2b00      	cmp	r3, #0
 80039d6:	d001      	beq.n	80039dc <_Z18SystemClock_Configv+0x74>
  {
    Error_Handler();
 80039d8:	f000 fa42 	bl	8003e60 <Error_Handler>
  }

  /** Initializes the CPU, AHB and APB buses clocks
  */
  RCC_ClkInitStruct.ClockType = RCC_CLOCKTYPE_HCLK|RCC_CLOCKTYPE_SYSCLK
 80039dc:	230f      	movs	r3, #15
 80039de:	61fb      	str	r3, [r7, #28]
                              |RCC_CLOCKTYPE_PCLK1|RCC_CLOCKTYPE_PCLK2;
  RCC_ClkInitStruct.SYSCLKSource = RCC_SYSCLKSOURCE_PLLCLK;
 80039e0:	2302      	movs	r3, #2
 80039e2:	623b      	str	r3, [r7, #32]
  RCC_ClkInitStruct.AHBCLKDivider = RCC_SYSCLK_DIV1;
 80039e4:	2300      	movs	r3, #0
 80039e6:	627b      	str	r3, [r7, #36]	; 0x24
  RCC_ClkInitStruct.APB1CLKDivider = RCC_HCLK_DIV2;
 80039e8:	f44f 6380 	mov.w	r3, #1024	; 0x400
 80039ec:	62bb      	str	r3, [r7, #40]	; 0x28
  RCC_ClkInitStruct.APB2CLKDivider = RCC_HCLK_DIV1;
 80039ee:	2300      	movs	r3, #0
 80039f0:	62fb      	str	r3, [r7, #44]	; 0x2c

  if (HAL_RCC_ClockConfig(&RCC_ClkInitStruct, FLASH_LATENCY_2) != HAL_OK)
 80039f2:	f107 031c 	add.w	r3, r7, #28
 80039f6:	2102      	movs	r1, #2
 80039f8:	4618      	mov	r0, r3
 80039fa:	f002 f9a9 	bl	8005d50 <HAL_RCC_ClockConfig>
 80039fe:	4603      	mov	r3, r0
 8003a00:	2b00      	cmp	r3, #0
 8003a02:	bf14      	ite	ne
 8003a04:	2301      	movne	r3, #1
 8003a06:	2300      	moveq	r3, #0
 8003a08:	b2db      	uxtb	r3, r3
 8003a0a:	2b00      	cmp	r3, #0
 8003a0c:	d001      	beq.n	8003a12 <_Z18SystemClock_Configv+0xaa>
  {
    Error_Handler();
 8003a0e:	f000 fa27 	bl	8003e60 <Error_Handler>
  }
  PeriphClkInit.PeriphClockSelection = RCC_PERIPHCLK_ADC;
 8003a12:	2302      	movs	r3, #2
 8003a14:	607b      	str	r3, [r7, #4]
  PeriphClkInit.AdcClockSelection = RCC_ADCPCLK2_DIV6;
 8003a16:	f44f 4300 	mov.w	r3, #32768	; 0x8000
 8003a1a:	60fb      	str	r3, [r7, #12]
  if (HAL_RCCEx_PeriphCLKConfig(&PeriphClkInit) != HAL_OK)
 8003a1c:	1d3b      	adds	r3, r7, #4
 8003a1e:	4618      	mov	r0, r3
 8003a20:	f002 fb10 	bl	8006044 <HAL_RCCEx_PeriphCLKConfig>
 8003a24:	4603      	mov	r3, r0
 8003a26:	2b00      	cmp	r3, #0
 8003a28:	bf14      	ite	ne
 8003a2a:	2301      	movne	r3, #1
 8003a2c:	2300      	moveq	r3, #0
 8003a2e:	b2db      	uxtb	r3, r3
 8003a30:	2b00      	cmp	r3, #0
 8003a32:	d001      	beq.n	8003a38 <_Z18SystemClock_Configv+0xd0>
  {
    Error_Handler();
 8003a34:	f000 fa14 	bl	8003e60 <Error_Handler>
  }
}
 8003a38:	bf00      	nop
 8003a3a:	3758      	adds	r7, #88	; 0x58
 8003a3c:	46bd      	mov	sp, r7
 8003a3e:	bd80      	pop	{r7, pc}

08003a40 <_ZL12MX_ADC1_Initv>:
  * @brief ADC1 Initialization Function
  * @param None
  * @retval None
  */
static void MX_ADC1_Init(void)
{
 8003a40:	b580      	push	{r7, lr}
 8003a42:	b084      	sub	sp, #16
 8003a44:	af00      	add	r7, sp, #0

  /* USER CODE BEGIN ADC1_Init 0 */

  /* USER CODE END ADC1_Init 0 */

  ADC_ChannelConfTypeDef sConfig = {0};
 8003a46:	1d3b      	adds	r3, r7, #4
 8003a48:	2200      	movs	r2, #0
 8003a4a:	601a      	str	r2, [r3, #0]
 8003a4c:	605a      	str	r2, [r3, #4]
 8003a4e:	609a      	str	r2, [r3, #8]

  /* USER CODE END ADC1_Init 1 */

  /** Common config
  */
  hadc1.Instance = ADC1;
 8003a50:	4b1d      	ldr	r3, [pc, #116]	; (8003ac8 <_ZL12MX_ADC1_Initv+0x88>)
 8003a52:	4a1e      	ldr	r2, [pc, #120]	; (8003acc <_ZL12MX_ADC1_Initv+0x8c>)
 8003a54:	601a      	str	r2, [r3, #0]
  hadc1.Init.ScanConvMode = ADC_SCAN_DISABLE;
 8003a56:	4b1c      	ldr	r3, [pc, #112]	; (8003ac8 <_ZL12MX_ADC1_Initv+0x88>)
 8003a58:	2200      	movs	r2, #0
 8003a5a:	609a      	str	r2, [r3, #8]
  hadc1.Init.ContinuousConvMode = DISABLE;
 8003a5c:	4b1a      	ldr	r3, [pc, #104]	; (8003ac8 <_ZL12MX_ADC1_Initv+0x88>)
 8003a5e:	2200      	movs	r2, #0
 8003a60:	731a      	strb	r2, [r3, #12]
  hadc1.Init.DiscontinuousConvMode = DISABLE;
 8003a62:	4b19      	ldr	r3, [pc, #100]	; (8003ac8 <_ZL12MX_ADC1_Initv+0x88>)
 8003a64:	2200      	movs	r2, #0
 8003a66:	751a      	strb	r2, [r3, #20]
  hadc1.Init.ExternalTrigConv = ADC_SOFTWARE_START;
 8003a68:	4b17      	ldr	r3, [pc, #92]	; (8003ac8 <_ZL12MX_ADC1_Initv+0x88>)
 8003a6a:	f44f 2260 	mov.w	r2, #917504	; 0xe0000
 8003a6e:	61da      	str	r2, [r3, #28]
  hadc1.Init.DataAlign = ADC_DATAALIGN_RIGHT;
 8003a70:	4b15      	ldr	r3, [pc, #84]	; (8003ac8 <_ZL12MX_ADC1_Initv+0x88>)
 8003a72:	2200      	movs	r2, #0
 8003a74:	605a      	str	r2, [r3, #4]
  hadc1.Init.NbrOfConversion = 1;
 8003a76:	4b14      	ldr	r3, [pc, #80]	; (8003ac8 <_ZL12MX_ADC1_Initv+0x88>)
 8003a78:	2201      	movs	r2, #1
 8003a7a:	611a      	str	r2, [r3, #16]
  if (HAL_ADC_Init(&hadc1) != HAL_OK)
 8003a7c:	4812      	ldr	r0, [pc, #72]	; (8003ac8 <_ZL12MX_ADC1_Initv+0x88>)
 8003a7e:	f000 ff05 	bl	800488c <HAL_ADC_Init>
 8003a82:	4603      	mov	r3, r0
 8003a84:	2b00      	cmp	r3, #0
 8003a86:	bf14      	ite	ne
 8003a88:	2301      	movne	r3, #1
 8003a8a:	2300      	moveq	r3, #0
 8003a8c:	b2db      	uxtb	r3, r3
 8003a8e:	2b00      	cmp	r3, #0
 8003a90:	d001      	beq.n	8003a96 <_ZL12MX_ADC1_Initv+0x56>
  {
    Error_Handler();
 8003a92:	f000 f9e5 	bl	8003e60 <Error_Handler>
  }

  /** Configure Regular Channel
  */
  sConfig.Channel = ADC_CHANNEL_2;
 8003a96:	2302      	movs	r3, #2
 8003a98:	607b      	str	r3, [r7, #4]
  sConfig.Rank = ADC_REGULAR_RANK_1;
 8003a9a:	2301      	movs	r3, #1
 8003a9c:	60bb      	str	r3, [r7, #8]
  sConfig.SamplingTime = ADC_SAMPLETIME_1CYCLE_5;
 8003a9e:	2300      	movs	r3, #0
 8003aa0:	60fb      	str	r3, [r7, #12]
  if (HAL_ADC_ConfigChannel(&hadc1, &sConfig) != HAL_OK)
 8003aa2:	1d3b      	adds	r3, r7, #4
 8003aa4:	4619      	mov	r1, r3
 8003aa6:	4808      	ldr	r0, [pc, #32]	; (8003ac8 <_ZL12MX_ADC1_Initv+0x88>)
 8003aa8:	f001 f99a 	bl	8004de0 <HAL_ADC_ConfigChannel>
 8003aac:	4603      	mov	r3, r0
 8003aae:	2b00      	cmp	r3, #0
 8003ab0:	bf14      	ite	ne
 8003ab2:	2301      	movne	r3, #1
 8003ab4:	2300      	moveq	r3, #0
 8003ab6:	b2db      	uxtb	r3, r3
 8003ab8:	2b00      	cmp	r3, #0
 8003aba:	d001      	beq.n	8003ac0 <_ZL12MX_ADC1_Initv+0x80>
  {
    Error_Handler();
 8003abc:	f000 f9d0 	bl	8003e60 <Error_Handler>
  }
  /* USER CODE BEGIN ADC1_Init 2 */

  /* USER CODE END ADC1_Init 2 */

}
 8003ac0:	bf00      	nop
 8003ac2:	3710      	adds	r7, #16
 8003ac4:	46bd      	mov	sp, r7
 8003ac6:	bd80      	pop	{r7, pc}
 8003ac8:	20000108 	.word	0x20000108
 8003acc:	40012400 	.word	0x40012400

08003ad0 <_ZL12MX_ADC2_Initv>:
  * @brief ADC2 Initialization Function
  * @param None
  * @retval None
  */
static void MX_ADC2_Init(void)
{
 8003ad0:	b580      	push	{r7, lr}
 8003ad2:	b084      	sub	sp, #16
 8003ad4:	af00      	add	r7, sp, #0

  /* USER CODE BEGIN ADC2_Init 0 */

  /* USER CODE END ADC2_Init 0 */

  ADC_ChannelConfTypeDef sConfig = {0};
 8003ad6:	1d3b      	adds	r3, r7, #4
 8003ad8:	2200      	movs	r2, #0
 8003ada:	601a      	str	r2, [r3, #0]
 8003adc:	605a      	str	r2, [r3, #4]
 8003ade:	609a      	str	r2, [r3, #8]

  /* USER CODE END ADC2_Init 1 */

  /** Common config
  */
  hadc2.Instance = ADC2;
 8003ae0:	4b1d      	ldr	r3, [pc, #116]	; (8003b58 <_ZL12MX_ADC2_Initv+0x88>)
 8003ae2:	4a1e      	ldr	r2, [pc, #120]	; (8003b5c <_ZL12MX_ADC2_Initv+0x8c>)
 8003ae4:	601a      	str	r2, [r3, #0]
  hadc2.Init.ScanConvMode = ADC_SCAN_DISABLE;
 8003ae6:	4b1c      	ldr	r3, [pc, #112]	; (8003b58 <_ZL12MX_ADC2_Initv+0x88>)
 8003ae8:	2200      	movs	r2, #0
 8003aea:	609a      	str	r2, [r3, #8]
  hadc2.Init.ContinuousConvMode = DISABLE;
 8003aec:	4b1a      	ldr	r3, [pc, #104]	; (8003b58 <_ZL12MX_ADC2_Initv+0x88>)
 8003aee:	2200      	movs	r2, #0
 8003af0:	731a      	strb	r2, [r3, #12]
  hadc2.Init.DiscontinuousConvMode = DISABLE;
 8003af2:	4b19      	ldr	r3, [pc, #100]	; (8003b58 <_ZL12MX_ADC2_Initv+0x88>)
 8003af4:	2200      	movs	r2, #0
 8003af6:	751a      	strb	r2, [r3, #20]
  hadc2.Init.ExternalTrigConv = ADC_SOFTWARE_START;
 8003af8:	4b17      	ldr	r3, [pc, #92]	; (8003b58 <_ZL12MX_ADC2_Initv+0x88>)
 8003afa:	f44f 2260 	mov.w	r2, #917504	; 0xe0000
 8003afe:	61da      	str	r2, [r3, #28]
  hadc2.Init.DataAlign = ADC_DATAALIGN_RIGHT;
 8003b00:	4b15      	ldr	r3, [pc, #84]	; (8003b58 <_ZL12MX_ADC2_Initv+0x88>)
 8003b02:	2200      	movs	r2, #0
 8003b04:	605a      	str	r2, [r3, #4]
  hadc2.Init.NbrOfConversion = 1;
 8003b06:	4b14      	ldr	r3, [pc, #80]	; (8003b58 <_ZL12MX_ADC2_Initv+0x88>)
 8003b08:	2201      	movs	r2, #1
 8003b0a:	611a      	str	r2, [r3, #16]
  if (HAL_ADC_Init(&hadc2) != HAL_OK)
 8003b0c:	4812      	ldr	r0, [pc, #72]	; (8003b58 <_ZL12MX_ADC2_Initv+0x88>)
 8003b0e:	f000 febd 	bl	800488c <HAL_ADC_Init>
 8003b12:	4603      	mov	r3, r0
 8003b14:	2b00      	cmp	r3, #0
 8003b16:	bf14      	ite	ne
 8003b18:	2301      	movne	r3, #1
 8003b1a:	2300      	moveq	r3, #0
 8003b1c:	b2db      	uxtb	r3, r3
 8003b1e:	2b00      	cmp	r3, #0
 8003b20:	d001      	beq.n	8003b26 <_ZL12MX_ADC2_Initv+0x56>
  {
    Error_Handler();
 8003b22:	f000 f99d 	bl	8003e60 <Error_Handler>
  }

  /** Configure Regular Channel
  */
  sConfig.Channel = ADC_CHANNEL_13;
 8003b26:	230d      	movs	r3, #13
 8003b28:	607b      	str	r3, [r7, #4]
  sConfig.Rank = ADC_REGULAR_RANK_1;
 8003b2a:	2301      	movs	r3, #1
 8003b2c:	60bb      	str	r3, [r7, #8]
  sConfig.SamplingTime = ADC_SAMPLETIME_1CYCLE_5;
 8003b2e:	2300      	movs	r3, #0
 8003b30:	60fb      	str	r3, [r7, #12]
  if (HAL_ADC_ConfigChannel(&hadc2, &sConfig) != HAL_OK)
 8003b32:	1d3b      	adds	r3, r7, #4
 8003b34:	4619      	mov	r1, r3
 8003b36:	4808      	ldr	r0, [pc, #32]	; (8003b58 <_ZL12MX_ADC2_Initv+0x88>)
 8003b38:	f001 f952 	bl	8004de0 <HAL_ADC_ConfigChannel>
 8003b3c:	4603      	mov	r3, r0
 8003b3e:	2b00      	cmp	r3, #0
 8003b40:	bf14      	ite	ne
 8003b42:	2301      	movne	r3, #1
 8003b44:	2300      	moveq	r3, #0
 8003b46:	b2db      	uxtb	r3, r3
 8003b48:	2b00      	cmp	r3, #0
 8003b4a:	d001      	beq.n	8003b50 <_ZL12MX_ADC2_Initv+0x80>
  {
    Error_Handler();
 8003b4c:	f000 f988 	bl	8003e60 <Error_Handler>
  }
  /* USER CODE BEGIN ADC2_Init 2 */

  /* USER CODE END ADC2_Init 2 */

}
 8003b50:	bf00      	nop
 8003b52:	3710      	adds	r7, #16
 8003b54:	46bd      	mov	sp, r7
 8003b56:	bd80      	pop	{r7, pc}
 8003b58:	20000138 	.word	0x20000138
 8003b5c:	40012800 	.word	0x40012800

08003b60 <_ZL12MX_GPIO_Initv>:
  * @brief GPIO Initialization Function
  * @param None
  * @retval None
  */
static void MX_GPIO_Init(void)
{
 8003b60:	b580      	push	{r7, lr}
 8003b62:	b08a      	sub	sp, #40	; 0x28
 8003b64:	af00      	add	r7, sp, #0
  GPIO_InitTypeDef GPIO_InitStruct = {0};
 8003b66:	f107 0318 	add.w	r3, r7, #24
 8003b6a:	2200      	movs	r2, #0
 8003b6c:	601a      	str	r2, [r3, #0]
 8003b6e:	605a      	str	r2, [r3, #4]
 8003b70:	609a      	str	r2, [r3, #8]
 8003b72:	60da      	str	r2, [r3, #12]

  /* GPIO Ports Clock Enable */
  __HAL_RCC_GPIOE_CLK_ENABLE();
 8003b74:	4b7e      	ldr	r3, [pc, #504]	; (8003d70 <_ZL12MX_GPIO_Initv+0x210>)
 8003b76:	699b      	ldr	r3, [r3, #24]
 8003b78:	4a7d      	ldr	r2, [pc, #500]	; (8003d70 <_ZL12MX_GPIO_Initv+0x210>)
 8003b7a:	f043 0340 	orr.w	r3, r3, #64	; 0x40
 8003b7e:	6193      	str	r3, [r2, #24]
 8003b80:	4b7b      	ldr	r3, [pc, #492]	; (8003d70 <_ZL12MX_GPIO_Initv+0x210>)
 8003b82:	699b      	ldr	r3, [r3, #24]
 8003b84:	f003 0340 	and.w	r3, r3, #64	; 0x40
 8003b88:	617b      	str	r3, [r7, #20]
 8003b8a:	697b      	ldr	r3, [r7, #20]
  __HAL_RCC_GPIOC_CLK_ENABLE();
 8003b8c:	4b78      	ldr	r3, [pc, #480]	; (8003d70 <_ZL12MX_GPIO_Initv+0x210>)
 8003b8e:	699b      	ldr	r3, [r3, #24]
 8003b90:	4a77      	ldr	r2, [pc, #476]	; (8003d70 <_ZL12MX_GPIO_Initv+0x210>)
 8003b92:	f043 0310 	orr.w	r3, r3, #16
 8003b96:	6193      	str	r3, [r2, #24]
 8003b98:	4b75      	ldr	r3, [pc, #468]	; (8003d70 <_ZL12MX_GPIO_Initv+0x210>)
 8003b9a:	699b      	ldr	r3, [r3, #24]
 8003b9c:	f003 0310 	and.w	r3, r3, #16
 8003ba0:	613b      	str	r3, [r7, #16]
 8003ba2:	693b      	ldr	r3, [r7, #16]
  __HAL_RCC_GPIOA_CLK_ENABLE();
 8003ba4:	4b72      	ldr	r3, [pc, #456]	; (8003d70 <_ZL12MX_GPIO_Initv+0x210>)
 8003ba6:	699b      	ldr	r3, [r3, #24]
 8003ba8:	4a71      	ldr	r2, [pc, #452]	; (8003d70 <_ZL12MX_GPIO_Initv+0x210>)
 8003baa:	f043 0304 	orr.w	r3, r3, #4
 8003bae:	6193      	str	r3, [r2, #24]
 8003bb0:	4b6f      	ldr	r3, [pc, #444]	; (8003d70 <_ZL12MX_GPIO_Initv+0x210>)
 8003bb2:	699b      	ldr	r3, [r3, #24]
 8003bb4:	f003 0304 	and.w	r3, r3, #4
 8003bb8:	60fb      	str	r3, [r7, #12]
 8003bba:	68fb      	ldr	r3, [r7, #12]
  __HAL_RCC_GPIOB_CLK_ENABLE();
 8003bbc:	4b6c      	ldr	r3, [pc, #432]	; (8003d70 <_ZL12MX_GPIO_Initv+0x210>)
 8003bbe:	699b      	ldr	r3, [r3, #24]
 8003bc0:	4a6b      	ldr	r2, [pc, #428]	; (8003d70 <_ZL12MX_GPIO_Initv+0x210>)
 8003bc2:	f043 0308 	orr.w	r3, r3, #8
 8003bc6:	6193      	str	r3, [r2, #24]
 8003bc8:	4b69      	ldr	r3, [pc, #420]	; (8003d70 <_ZL12MX_GPIO_Initv+0x210>)
 8003bca:	699b      	ldr	r3, [r3, #24]
 8003bcc:	f003 0308 	and.w	r3, r3, #8
 8003bd0:	60bb      	str	r3, [r7, #8]
 8003bd2:	68bb      	ldr	r3, [r7, #8]
  __HAL_RCC_GPIOD_CLK_ENABLE();
 8003bd4:	4b66      	ldr	r3, [pc, #408]	; (8003d70 <_ZL12MX_GPIO_Initv+0x210>)
 8003bd6:	699b      	ldr	r3, [r3, #24]
 8003bd8:	4a65      	ldr	r2, [pc, #404]	; (8003d70 <_ZL12MX_GPIO_Initv+0x210>)
 8003bda:	f043 0320 	orr.w	r3, r3, #32
 8003bde:	6193      	str	r3, [r2, #24]
 8003be0:	4b63      	ldr	r3, [pc, #396]	; (8003d70 <_ZL12MX_GPIO_Initv+0x210>)
 8003be2:	699b      	ldr	r3, [r3, #24]
 8003be4:	f003 0320 	and.w	r3, r3, #32
 8003be8:	607b      	str	r3, [r7, #4]
 8003bea:	687b      	ldr	r3, [r7, #4]

  /*Configure GPIO pin Output Level */
  HAL_GPIO_WritePin(GPIOE, GPIO_PIN_2|GPIO_PIN_0|GPIO_PIN_1, GPIO_PIN_RESET);
 8003bec:	2200      	movs	r2, #0
 8003bee:	2107      	movs	r1, #7
 8003bf0:	4860      	ldr	r0, [pc, #384]	; (8003d74 <_ZL12MX_GPIO_Initv+0x214>)
 8003bf2:	f001 fdf0 	bl	80057d6 <HAL_GPIO_WritePin>

  /*Configure GPIO pin Output Level */
  HAL_GPIO_WritePin(GPIOE, a1_Pin|f1_Pin, GPIO_PIN_SET);
 8003bf6:	2201      	movs	r2, #1
 8003bf8:	2160      	movs	r1, #96	; 0x60
 8003bfa:	485e      	ldr	r0, [pc, #376]	; (8003d74 <_ZL12MX_GPIO_Initv+0x214>)
 8003bfc:	f001 fdeb 	bl	80057d6 <HAL_GPIO_WritePin>

  /*Configure GPIO pin Output Level */
  HAL_GPIO_WritePin(GPIOA, c1_Pin|d1_Pin|g1_Pin|e1_Pin, GPIO_PIN_SET);
 8003c00:	2201      	movs	r2, #1
 8003c02:	21f0      	movs	r1, #240	; 0xf0
 8003c04:	485c      	ldr	r0, [pc, #368]	; (8003d78 <_ZL12MX_GPIO_Initv+0x218>)
 8003c06:	f001 fde6 	bl	80057d6 <HAL_GPIO_WritePin>

  /*Configure GPIO pin Output Level */
  HAL_GPIO_WritePin(GPIOC, b1_Pin|a2_Pin|f2_Pin, GPIO_PIN_SET);
 8003c0a:	2201      	movs	r2, #1
 8003c0c:	21d0      	movs	r1, #208	; 0xd0
 8003c0e:	485b      	ldr	r0, [pc, #364]	; (8003d7c <_ZL12MX_GPIO_Initv+0x21c>)
 8003c10:	f001 fde1 	bl	80057d6 <HAL_GPIO_WritePin>

  /*Configure GPIO pin Output Level */
  HAL_GPIO_WritePin(GPIOB, c2_Pin|d2_Pin|g2_Pin|e2_Pin
 8003c14:	2201      	movs	r2, #1
 8003c16:	f44f 4171 	mov.w	r1, #61696	; 0xf100
 8003c1a:	4859      	ldr	r0, [pc, #356]	; (8003d80 <_ZL12MX_GPIO_Initv+0x220>)
 8003c1c:	f001 fddb 	bl	80057d6 <HAL_GPIO_WritePin>
                          |b2_Pin, GPIO_PIN_SET);

  /*Configure GPIO pin Output Level */
  HAL_GPIO_WritePin(GPIOD, GPIO_PIN_12|GPIO_PIN_13, GPIO_PIN_RESET);
 8003c20:	2200      	movs	r2, #0
 8003c22:	f44f 5140 	mov.w	r1, #12288	; 0x3000
 8003c26:	4857      	ldr	r0, [pc, #348]	; (8003d84 <_ZL12MX_GPIO_Initv+0x224>)
 8003c28:	f001 fdd5 	bl	80057d6 <HAL_GPIO_WritePin>

  /*Configure GPIO pins : PE2 a1_Pin f1_Pin PE0
                           PE1 */
  GPIO_InitStruct.Pin = GPIO_PIN_2|a1_Pin|f1_Pin|GPIO_PIN_0
 8003c2c:	2367      	movs	r3, #103	; 0x67
 8003c2e:	61bb      	str	r3, [r7, #24]
                          |GPIO_PIN_1;
  GPIO_InitStruct.Mode = GPIO_MODE_OUTPUT_PP;
 8003c30:	2301      	movs	r3, #1
 8003c32:	61fb      	str	r3, [r7, #28]
  GPIO_InitStruct.Pull = GPIO_NOPULL;
 8003c34:	2300      	movs	r3, #0
 8003c36:	623b      	str	r3, [r7, #32]
  GPIO_InitStruct.Speed = GPIO_SPEED_FREQ_HIGH;
 8003c38:	2303      	movs	r3, #3
 8003c3a:	627b      	str	r3, [r7, #36]	; 0x24
  HAL_GPIO_Init(GPIOE, &GPIO_InitStruct);
 8003c3c:	f107 0318 	add.w	r3, r7, #24
 8003c40:	4619      	mov	r1, r3
 8003c42:	484c      	ldr	r0, [pc, #304]	; (8003d74 <_ZL12MX_GPIO_Initv+0x214>)
 8003c44:	f001 fc1c 	bl	8005480 <HAL_GPIO_Init>

  /*Configure GPIO pin : PE3 */
  GPIO_InitStruct.Pin = GPIO_PIN_3;
 8003c48:	2308      	movs	r3, #8
 8003c4a:	61bb      	str	r3, [r7, #24]
  GPIO_InitStruct.Mode = GPIO_MODE_INPUT;
 8003c4c:	2300      	movs	r3, #0
 8003c4e:	61fb      	str	r3, [r7, #28]
  GPIO_InitStruct.Pull = GPIO_PULLUP;
 8003c50:	2301      	movs	r3, #1
 8003c52:	623b      	str	r3, [r7, #32]
  HAL_GPIO_Init(GPIOE, &GPIO_InitStruct);
 8003c54:	f107 0318 	add.w	r3, r7, #24
 8003c58:	4619      	mov	r1, r3
 8003c5a:	4846      	ldr	r0, [pc, #280]	; (8003d74 <_ZL12MX_GPIO_Initv+0x214>)
 8003c5c:	f001 fc10 	bl	8005480 <HAL_GPIO_Init>

  /*Configure GPIO pin : PE4 */
  GPIO_InitStruct.Pin = GPIO_PIN_4;
 8003c60:	2310      	movs	r3, #16
 8003c62:	61bb      	str	r3, [r7, #24]
  GPIO_InitStruct.Mode = GPIO_MODE_IT_FALLING;
 8003c64:	4b48      	ldr	r3, [pc, #288]	; (8003d88 <_ZL12MX_GPIO_Initv+0x228>)
 8003c66:	61fb      	str	r3, [r7, #28]
  GPIO_InitStruct.Pull = GPIO_PULLUP;
 8003c68:	2301      	movs	r3, #1
 8003c6a:	623b      	str	r3, [r7, #32]
  HAL_GPIO_Init(GPIOE, &GPIO_InitStruct);
 8003c6c:	f107 0318 	add.w	r3, r7, #24
 8003c70:	4619      	mov	r1, r3
 8003c72:	4840      	ldr	r0, [pc, #256]	; (8003d74 <_ZL12MX_GPIO_Initv+0x214>)
 8003c74:	f001 fc04 	bl	8005480 <HAL_GPIO_Init>

  /*Configure GPIO pin : K2_Pin */
  GPIO_InitStruct.Pin = K2_Pin;
 8003c78:	f44f 5300 	mov.w	r3, #8192	; 0x2000
 8003c7c:	61bb      	str	r3, [r7, #24]
  GPIO_InitStruct.Mode = GPIO_MODE_IT_FALLING;
 8003c7e:	4b42      	ldr	r3, [pc, #264]	; (8003d88 <_ZL12MX_GPIO_Initv+0x228>)
 8003c80:	61fb      	str	r3, [r7, #28]
  GPIO_InitStruct.Pull = GPIO_NOPULL;
 8003c82:	2300      	movs	r3, #0
 8003c84:	623b      	str	r3, [r7, #32]
  HAL_GPIO_Init(K2_GPIO_Port, &GPIO_InitStruct);
 8003c86:	f107 0318 	add.w	r3, r7, #24
 8003c8a:	4619      	mov	r1, r3
 8003c8c:	483b      	ldr	r0, [pc, #236]	; (8003d7c <_ZL12MX_GPIO_Initv+0x21c>)
 8003c8e:	f001 fbf7 	bl	8005480 <HAL_GPIO_Init>

  /*Configure GPIO pin : K1_Pin */
  GPIO_InitStruct.Pin = K1_Pin;
 8003c92:	2301      	movs	r3, #1
 8003c94:	61bb      	str	r3, [r7, #24]
  GPIO_InitStruct.Mode = GPIO_MODE_IT_FALLING;
 8003c96:	4b3c      	ldr	r3, [pc, #240]	; (8003d88 <_ZL12MX_GPIO_Initv+0x228>)
 8003c98:	61fb      	str	r3, [r7, #28]
  GPIO_InitStruct.Pull = GPIO_NOPULL;
 8003c9a:	2300      	movs	r3, #0
 8003c9c:	623b      	str	r3, [r7, #32]
  HAL_GPIO_Init(K1_GPIO_Port, &GPIO_InitStruct);
 8003c9e:	f107 0318 	add.w	r3, r7, #24
 8003ca2:	4619      	mov	r1, r3
 8003ca4:	4834      	ldr	r0, [pc, #208]	; (8003d78 <_ZL12MX_GPIO_Initv+0x218>)
 8003ca6:	f001 fbeb 	bl	8005480 <HAL_GPIO_Init>

  /*Configure GPIO pins : c1_Pin d1_Pin g1_Pin e1_Pin */
  GPIO_InitStruct.Pin = c1_Pin|d1_Pin|g1_Pin|e1_Pin;
 8003caa:	23f0      	movs	r3, #240	; 0xf0
 8003cac:	61bb      	str	r3, [r7, #24]
  GPIO_InitStruct.Mode = GPIO_MODE_OUTPUT_PP;
 8003cae:	2301      	movs	r3, #1
 8003cb0:	61fb      	str	r3, [r7, #28]
  GPIO_InitStruct.Pull = GPIO_NOPULL;
 8003cb2:	2300      	movs	r3, #0
 8003cb4:	623b      	str	r3, [r7, #32]
  GPIO_InitStruct.Speed = GPIO_SPEED_FREQ_HIGH;
 8003cb6:	2303      	movs	r3, #3
 8003cb8:	627b      	str	r3, [r7, #36]	; 0x24
  HAL_GPIO_Init(GPIOA, &GPIO_InitStruct);
 8003cba:	f107 0318 	add.w	r3, r7, #24
 8003cbe:	4619      	mov	r1, r3
 8003cc0:	482d      	ldr	r0, [pc, #180]	; (8003d78 <_ZL12MX_GPIO_Initv+0x218>)
 8003cc2:	f001 fbdd 	bl	8005480 <HAL_GPIO_Init>

  /*Configure GPIO pins : b1_Pin a2_Pin f2_Pin */
  GPIO_InitStruct.Pin = b1_Pin|a2_Pin|f2_Pin;
 8003cc6:	23d0      	movs	r3, #208	; 0xd0
 8003cc8:	61bb      	str	r3, [r7, #24]
  GPIO_InitStruct.Mode = GPIO_MODE_OUTPUT_PP;
 8003cca:	2301      	movs	r3, #1
 8003ccc:	61fb      	str	r3, [r7, #28]
  GPIO_InitStruct.Pull = GPIO_NOPULL;
 8003cce:	2300      	movs	r3, #0
 8003cd0:	623b      	str	r3, [r7, #32]
  GPIO_InitStruct.Speed = GPIO_SPEED_FREQ_HIGH;
 8003cd2:	2303      	movs	r3, #3
 8003cd4:	627b      	str	r3, [r7, #36]	; 0x24
  HAL_GPIO_Init(GPIOC, &GPIO_InitStruct);
 8003cd6:	f107 0318 	add.w	r3, r7, #24
 8003cda:	4619      	mov	r1, r3
 8003cdc:	4827      	ldr	r0, [pc, #156]	; (8003d7c <_ZL12MX_GPIO_Initv+0x21c>)
 8003cde:	f001 fbcf 	bl	8005480 <HAL_GPIO_Init>

  /*Configure GPIO pins : c2_Pin d2_Pin g2_Pin e2_Pin
                           b2_Pin */
  GPIO_InitStruct.Pin = c2_Pin|d2_Pin|g2_Pin|e2_Pin
 8003ce2:	f44f 4371 	mov.w	r3, #61696	; 0xf100
 8003ce6:	61bb      	str	r3, [r7, #24]
                          |b2_Pin;
  GPIO_InitStruct.Mode = GPIO_MODE_OUTPUT_PP;
 8003ce8:	2301      	movs	r3, #1
 8003cea:	61fb      	str	r3, [r7, #28]
  GPIO_InitStruct.Pull = GPIO_NOPULL;
 8003cec:	2300      	movs	r3, #0
 8003cee:	623b      	str	r3, [r7, #32]
  GPIO_InitStruct.Speed = GPIO_SPEED_FREQ_HIGH;
 8003cf0:	2303      	movs	r3, #3
 8003cf2:	627b      	str	r3, [r7, #36]	; 0x24
  HAL_GPIO_Init(GPIOB, &GPIO_InitStruct);
 8003cf4:	f107 0318 	add.w	r3, r7, #24
 8003cf8:	4619      	mov	r1, r3
 8003cfa:	4821      	ldr	r0, [pc, #132]	; (8003d80 <_ZL12MX_GPIO_Initv+0x220>)
 8003cfc:	f001 fbc0 	bl	8005480 <HAL_GPIO_Init>

  /*Configure GPIO pins : PD12 PD13 */
  GPIO_InitStruct.Pin = GPIO_PIN_12|GPIO_PIN_13;
 8003d00:	f44f 5340 	mov.w	r3, #12288	; 0x3000
 8003d04:	61bb      	str	r3, [r7, #24]
  GPIO_InitStruct.Mode = GPIO_MODE_OUTPUT_PP;
 8003d06:	2301      	movs	r3, #1
 8003d08:	61fb      	str	r3, [r7, #28]
  GPIO_InitStruct.Pull = GPIO_NOPULL;
 8003d0a:	2300      	movs	r3, #0
 8003d0c:	623b      	str	r3, [r7, #32]
  GPIO_InitStruct.Speed = GPIO_SPEED_FREQ_HIGH;
 8003d0e:	2303      	movs	r3, #3
 8003d10:	627b      	str	r3, [r7, #36]	; 0x24
  HAL_GPIO_Init(GPIOD, &GPIO_InitStruct);
 8003d12:	f107 0318 	add.w	r3, r7, #24
 8003d16:	4619      	mov	r1, r3
 8003d18:	481a      	ldr	r0, [pc, #104]	; (8003d84 <_ZL12MX_GPIO_Initv+0x224>)
 8003d1a:	f001 fbb1 	bl	8005480 <HAL_GPIO_Init>

  /*Configure GPIO pins : player2Touch_Pin player1Touch_Pin */
  GPIO_InitStruct.Pin = player2Touch_Pin|player1Touch_Pin;
 8003d1e:	f44f 6310 	mov.w	r3, #2304	; 0x900
 8003d22:	61bb      	str	r3, [r7, #24]
  GPIO_InitStruct.Mode = GPIO_MODE_INPUT;
 8003d24:	2300      	movs	r3, #0
 8003d26:	61fb      	str	r3, [r7, #28]
  GPIO_InitStruct.Pull = GPIO_PULLDOWN;
 8003d28:	2302      	movs	r3, #2
 8003d2a:	623b      	str	r3, [r7, #32]
  HAL_GPIO_Init(GPIOA, &GPIO_InitStruct);
 8003d2c:	f107 0318 	add.w	r3, r7, #24
 8003d30:	4619      	mov	r1, r3
 8003d32:	4811      	ldr	r0, [pc, #68]	; (8003d78 <_ZL12MX_GPIO_Initv+0x218>)
 8003d34:	f001 fba4 	bl	8005480 <HAL_GPIO_Init>

  /* EXTI interrupt init*/
  HAL_NVIC_SetPriority(EXTI0_IRQn, 0, 0);
 8003d38:	2200      	movs	r2, #0
 8003d3a:	2100      	movs	r1, #0
 8003d3c:	2006      	movs	r0, #6
 8003d3e:	f001 fb68 	bl	8005412 <HAL_NVIC_SetPriority>
  HAL_NVIC_EnableIRQ(EXTI0_IRQn);
 8003d42:	2006      	movs	r0, #6
 8003d44:	f001 fb81 	bl	800544a <HAL_NVIC_EnableIRQ>

  HAL_NVIC_SetPriority(EXTI4_IRQn, 0, 0);
 8003d48:	2200      	movs	r2, #0
 8003d4a:	2100      	movs	r1, #0
 8003d4c:	200a      	movs	r0, #10
 8003d4e:	f001 fb60 	bl	8005412 <HAL_NVIC_SetPriority>
  HAL_NVIC_EnableIRQ(EXTI4_IRQn);
 8003d52:	200a      	movs	r0, #10
 8003d54:	f001 fb79 	bl	800544a <HAL_NVIC_EnableIRQ>

  HAL_NVIC_SetPriority(EXTI15_10_IRQn, 0, 0);
 8003d58:	2200      	movs	r2, #0
 8003d5a:	2100      	movs	r1, #0
 8003d5c:	2028      	movs	r0, #40	; 0x28
 8003d5e:	f001 fb58 	bl	8005412 <HAL_NVIC_SetPriority>
  HAL_NVIC_EnableIRQ(EXTI15_10_IRQn);
 8003d62:	2028      	movs	r0, #40	; 0x28
 8003d64:	f001 fb71 	bl	800544a <HAL_NVIC_EnableIRQ>

}
 8003d68:	bf00      	nop
 8003d6a:	3728      	adds	r7, #40	; 0x28
 8003d6c:	46bd      	mov	sp, r7
 8003d6e:	bd80      	pop	{r7, pc}
 8003d70:	40021000 	.word	0x40021000
 8003d74:	40011800 	.word	0x40011800
 8003d78:	40010800 	.word	0x40010800
 8003d7c:	40011000 	.word	0x40011000
 8003d80:	40010c00 	.word	0x40010c00
 8003d84:	40011400 	.word	0x40011400
 8003d88:	10210000 	.word	0x10210000

08003d8c <_ZL12MX_FSMC_Initv>:

/* FSMC initialization function */
static void MX_FSMC_Init(void)
{
 8003d8c:	b580      	push	{r7, lr}
 8003d8e:	b088      	sub	sp, #32
 8003d90:	af00      	add	r7, sp, #0

  /* USER CODE BEGIN FSMC_Init 0 */

  /* USER CODE END FSMC_Init 0 */

  FSMC_NORSRAM_TimingTypeDef Timing = {0};
 8003d92:	1d3b      	adds	r3, r7, #4
 8003d94:	2200      	movs	r2, #0
 8003d96:	601a      	str	r2, [r3, #0]
 8003d98:	605a      	str	r2, [r3, #4]
 8003d9a:	609a      	str	r2, [r3, #8]
 8003d9c:	60da      	str	r2, [r3, #12]
 8003d9e:	611a      	str	r2, [r3, #16]
 8003da0:	615a      	str	r2, [r3, #20]
 8003da2:	619a      	str	r2, [r3, #24]

  /* USER CODE END FSMC_Init 1 */

  /** Perform the SRAM1 memory initialization sequence
  */
  hsram1.Instance = FSMC_NORSRAM_DEVICE;
 8003da4:	4b2b      	ldr	r3, [pc, #172]	; (8003e54 <_ZL12MX_FSMC_Initv+0xc8>)
 8003da6:	f04f 4220 	mov.w	r2, #2684354560	; 0xa0000000
 8003daa:	601a      	str	r2, [r3, #0]
  hsram1.Extended = FSMC_NORSRAM_EXTENDED_DEVICE;
 8003dac:	4b29      	ldr	r3, [pc, #164]	; (8003e54 <_ZL12MX_FSMC_Initv+0xc8>)
 8003dae:	4a2a      	ldr	r2, [pc, #168]	; (8003e58 <_ZL12MX_FSMC_Initv+0xcc>)
 8003db0:	605a      	str	r2, [r3, #4]
  /* hsram1.Init */
  hsram1.Init.NSBank = FSMC_NORSRAM_BANK1;
 8003db2:	4b28      	ldr	r3, [pc, #160]	; (8003e54 <_ZL12MX_FSMC_Initv+0xc8>)
 8003db4:	2200      	movs	r2, #0
 8003db6:	609a      	str	r2, [r3, #8]
  hsram1.Init.DataAddressMux = FSMC_DATA_ADDRESS_MUX_DISABLE;
 8003db8:	4b26      	ldr	r3, [pc, #152]	; (8003e54 <_ZL12MX_FSMC_Initv+0xc8>)
 8003dba:	2200      	movs	r2, #0
 8003dbc:	60da      	str	r2, [r3, #12]
  hsram1.Init.MemoryType = FSMC_MEMORY_TYPE_SRAM;
 8003dbe:	4b25      	ldr	r3, [pc, #148]	; (8003e54 <_ZL12MX_FSMC_Initv+0xc8>)
 8003dc0:	2200      	movs	r2, #0
 8003dc2:	611a      	str	r2, [r3, #16]
  hsram1.Init.MemoryDataWidth = FSMC_NORSRAM_MEM_BUS_WIDTH_16;
 8003dc4:	4b23      	ldr	r3, [pc, #140]	; (8003e54 <_ZL12MX_FSMC_Initv+0xc8>)
 8003dc6:	2210      	movs	r2, #16
 8003dc8:	615a      	str	r2, [r3, #20]
  hsram1.Init.BurstAccessMode = FSMC_BURST_ACCESS_MODE_DISABLE;
 8003dca:	4b22      	ldr	r3, [pc, #136]	; (8003e54 <_ZL12MX_FSMC_Initv+0xc8>)
 8003dcc:	2200      	movs	r2, #0
 8003dce:	619a      	str	r2, [r3, #24]
  hsram1.Init.WaitSignalPolarity = FSMC_WAIT_SIGNAL_POLARITY_LOW;
 8003dd0:	4b20      	ldr	r3, [pc, #128]	; (8003e54 <_ZL12MX_FSMC_Initv+0xc8>)
 8003dd2:	2200      	movs	r2, #0
 8003dd4:	61da      	str	r2, [r3, #28]
  hsram1.Init.WrapMode = FSMC_WRAP_MODE_DISABLE;
 8003dd6:	4b1f      	ldr	r3, [pc, #124]	; (8003e54 <_ZL12MX_FSMC_Initv+0xc8>)
 8003dd8:	2200      	movs	r2, #0
 8003dda:	621a      	str	r2, [r3, #32]
  hsram1.Init.WaitSignalActive = FSMC_WAIT_TIMING_BEFORE_WS;
 8003ddc:	4b1d      	ldr	r3, [pc, #116]	; (8003e54 <_ZL12MX_FSMC_Initv+0xc8>)
 8003dde:	2200      	movs	r2, #0
 8003de0:	625a      	str	r2, [r3, #36]	; 0x24
  hsram1.Init.WriteOperation = FSMC_WRITE_OPERATION_ENABLE;
 8003de2:	4b1c      	ldr	r3, [pc, #112]	; (8003e54 <_ZL12MX_FSMC_Initv+0xc8>)
 8003de4:	f44f 5280 	mov.w	r2, #4096	; 0x1000
 8003de8:	629a      	str	r2, [r3, #40]	; 0x28
  hsram1.Init.WaitSignal = FSMC_WAIT_SIGNAL_DISABLE;
 8003dea:	4b1a      	ldr	r3, [pc, #104]	; (8003e54 <_ZL12MX_FSMC_Initv+0xc8>)
 8003dec:	2200      	movs	r2, #0
 8003dee:	62da      	str	r2, [r3, #44]	; 0x2c
  hsram1.Init.ExtendedMode = FSMC_EXTENDED_MODE_DISABLE;
 8003df0:	4b18      	ldr	r3, [pc, #96]	; (8003e54 <_ZL12MX_FSMC_Initv+0xc8>)
 8003df2:	2200      	movs	r2, #0
 8003df4:	631a      	str	r2, [r3, #48]	; 0x30
  hsram1.Init.AsynchronousWait = FSMC_ASYNCHRONOUS_WAIT_DISABLE;
 8003df6:	4b17      	ldr	r3, [pc, #92]	; (8003e54 <_ZL12MX_FSMC_Initv+0xc8>)
 8003df8:	2200      	movs	r2, #0
 8003dfa:	635a      	str	r2, [r3, #52]	; 0x34
  hsram1.Init.WriteBurst = FSMC_WRITE_BURST_DISABLE;
 8003dfc:	4b15      	ldr	r3, [pc, #84]	; (8003e54 <_ZL12MX_FSMC_Initv+0xc8>)
 8003dfe:	2200      	movs	r2, #0
 8003e00:	639a      	str	r2, [r3, #56]	; 0x38
  /* Timing */
  Timing.AddressSetupTime = 15;
 8003e02:	230f      	movs	r3, #15
 8003e04:	607b      	str	r3, [r7, #4]
  Timing.AddressHoldTime = 15;
 8003e06:	230f      	movs	r3, #15
 8003e08:	60bb      	str	r3, [r7, #8]
  Timing.DataSetupTime = 255;
 8003e0a:	23ff      	movs	r3, #255	; 0xff
 8003e0c:	60fb      	str	r3, [r7, #12]
  Timing.BusTurnAroundDuration = 15;
 8003e0e:	230f      	movs	r3, #15
 8003e10:	613b      	str	r3, [r7, #16]
  Timing.CLKDivision = 16;
 8003e12:	2310      	movs	r3, #16
 8003e14:	617b      	str	r3, [r7, #20]
  Timing.DataLatency = 17;
 8003e16:	2311      	movs	r3, #17
 8003e18:	61bb      	str	r3, [r7, #24]
  Timing.AccessMode = FSMC_ACCESS_MODE_A;
 8003e1a:	2300      	movs	r3, #0
 8003e1c:	61fb      	str	r3, [r7, #28]
  /* ExtTiming */

  if (HAL_SRAM_Init(&hsram1, &Timing, NULL) != HAL_OK)
 8003e1e:	1d3b      	adds	r3, r7, #4
 8003e20:	2200      	movs	r2, #0
 8003e22:	4619      	mov	r1, r3
 8003e24:	480b      	ldr	r0, [pc, #44]	; (8003e54 <_ZL12MX_FSMC_Initv+0xc8>)
 8003e26:	f002 fa9b 	bl	8006360 <HAL_SRAM_Init>
 8003e2a:	4603      	mov	r3, r0
 8003e2c:	2b00      	cmp	r3, #0
 8003e2e:	bf14      	ite	ne
 8003e30:	2301      	movne	r3, #1
 8003e32:	2300      	moveq	r3, #0
 8003e34:	b2db      	uxtb	r3, r3
 8003e36:	2b00      	cmp	r3, #0
 8003e38:	d001      	beq.n	8003e3e <_ZL12MX_FSMC_Initv+0xb2>
  {
    Error_Handler( );
 8003e3a:	f000 f811 	bl	8003e60 <Error_Handler>
  }

  /** Disconnect NADV
  */

  __HAL_AFIO_FSMCNADV_DISCONNECTED();
 8003e3e:	4b07      	ldr	r3, [pc, #28]	; (8003e5c <_ZL12MX_FSMC_Initv+0xd0>)
 8003e40:	69db      	ldr	r3, [r3, #28]
 8003e42:	4a06      	ldr	r2, [pc, #24]	; (8003e5c <_ZL12MX_FSMC_Initv+0xd0>)
 8003e44:	f443 6380 	orr.w	r3, r3, #1024	; 0x400
 8003e48:	61d3      	str	r3, [r2, #28]

  /* USER CODE BEGIN FSMC_Init 2 */

  /* USER CODE END FSMC_Init 2 */
}
 8003e4a:	bf00      	nop
 8003e4c:	3720      	adds	r7, #32
 8003e4e:	46bd      	mov	sp, r7
 8003e50:	bd80      	pop	{r7, pc}
 8003e52:	bf00      	nop
 8003e54:	20000168 	.word	0x20000168
 8003e58:	a0000104 	.word	0xa0000104
 8003e5c:	40010000 	.word	0x40010000

08003e60 <Error_Handler>:
/**
  * @brief  This function is executed in case of error occurrence.
  * @retval None
  */
void Error_Handler(void)
{
 8003e60:	b480      	push	{r7}
 8003e62:	af00      	add	r7, sp, #0
  \details Disables IRQ interrupts by setting the I-bit in the CPSR.
           Can only be executed in Privileged modes.
 */
__STATIC_FORCEINLINE void __disable_irq(void)
{
  __ASM volatile ("cpsid i" : : : "memory");
 8003e64:	b672      	cpsid	i
}
 8003e66:	bf00      	nop
  /* USER CODE BEGIN Error_Handler_Debug */
	/* User can add his own implementation to report the HAL error return state */
	__disable_irq();
	while (1) {
 8003e68:	e7fe      	b.n	8003e68 <Error_Handler+0x8>
	...

08003e6c <HAL_MspInit>:
void HAL_TIM_MspPostInit(TIM_HandleTypeDef *htim);
                    /**
  * Initializes the Global MSP.
  */
void HAL_MspInit(void)
{
 8003e6c:	b480      	push	{r7}
 8003e6e:	b085      	sub	sp, #20
 8003e70:	af00      	add	r7, sp, #0
  /* USER CODE BEGIN MspInit 0 */

  /* USER CODE END MspInit 0 */

  __HAL_RCC_AFIO_CLK_ENABLE();
 8003e72:	4b15      	ldr	r3, [pc, #84]	; (8003ec8 <HAL_MspInit+0x5c>)
 8003e74:	699b      	ldr	r3, [r3, #24]
 8003e76:	4a14      	ldr	r2, [pc, #80]	; (8003ec8 <HAL_MspInit+0x5c>)
 8003e78:	f043 0301 	orr.w	r3, r3, #1
 8003e7c:	6193      	str	r3, [r2, #24]
 8003e7e:	4b12      	ldr	r3, [pc, #72]	; (8003ec8 <HAL_MspInit+0x5c>)
 8003e80:	699b      	ldr	r3, [r3, #24]
 8003e82:	f003 0301 	and.w	r3, r3, #1
 8003e86:	60bb      	str	r3, [r7, #8]
 8003e88:	68bb      	ldr	r3, [r7, #8]
  __HAL_RCC_PWR_CLK_ENABLE();
 8003e8a:	4b0f      	ldr	r3, [pc, #60]	; (8003ec8 <HAL_MspInit+0x5c>)
 8003e8c:	69db      	ldr	r3, [r3, #28]
 8003e8e:	4a0e      	ldr	r2, [pc, #56]	; (8003ec8 <HAL_MspInit+0x5c>)
 8003e90:	f043 5380 	orr.w	r3, r3, #268435456	; 0x10000000
 8003e94:	61d3      	str	r3, [r2, #28]
 8003e96:	4b0c      	ldr	r3, [pc, #48]	; (8003ec8 <HAL_MspInit+0x5c>)
 8003e98:	69db      	ldr	r3, [r3, #28]
 8003e9a:	f003 5380 	and.w	r3, r3, #268435456	; 0x10000000
 8003e9e:	607b      	str	r3, [r7, #4]
 8003ea0:	687b      	ldr	r3, [r7, #4]

  /* System interrupt init*/

  /** NOJTAG: JTAG-DP Disabled and SW-DP Enabled
  */
  __HAL_AFIO_REMAP_SWJ_NOJTAG();
 8003ea2:	4b0a      	ldr	r3, [pc, #40]	; (8003ecc <HAL_MspInit+0x60>)
 8003ea4:	685b      	ldr	r3, [r3, #4]
 8003ea6:	60fb      	str	r3, [r7, #12]
 8003ea8:	68fb      	ldr	r3, [r7, #12]
 8003eaa:	f023 63e0 	bic.w	r3, r3, #117440512	; 0x7000000
 8003eae:	60fb      	str	r3, [r7, #12]
 8003eb0:	68fb      	ldr	r3, [r7, #12]
 8003eb2:	f043 7300 	orr.w	r3, r3, #33554432	; 0x2000000
 8003eb6:	60fb      	str	r3, [r7, #12]
 8003eb8:	4a04      	ldr	r2, [pc, #16]	; (8003ecc <HAL_MspInit+0x60>)
 8003eba:	68fb      	ldr	r3, [r7, #12]
 8003ebc:	6053      	str	r3, [r2, #4]

  /* USER CODE BEGIN MspInit 1 */

  /* USER CODE END MspInit 1 */
}
 8003ebe:	bf00      	nop
 8003ec0:	3714      	adds	r7, #20
 8003ec2:	46bd      	mov	sp, r7
 8003ec4:	bc80      	pop	{r7}
 8003ec6:	4770      	bx	lr
 8003ec8:	40021000 	.word	0x40021000
 8003ecc:	40010000 	.word	0x40010000

08003ed0 <HAL_ADC_MspInit>:
* This function configures the hardware resources used in this example
* @param hadc: ADC handle pointer
* @retval None
*/
void HAL_ADC_MspInit(ADC_HandleTypeDef* hadc)
{
 8003ed0:	b580      	push	{r7, lr}
 8003ed2:	b08c      	sub	sp, #48	; 0x30
 8003ed4:	af00      	add	r7, sp, #0
 8003ed6:	6078      	str	r0, [r7, #4]
  GPIO_InitTypeDef GPIO_InitStruct = {0};
 8003ed8:	f107 0320 	add.w	r3, r7, #32
 8003edc:	2200      	movs	r2, #0
 8003ede:	601a      	str	r2, [r3, #0]
 8003ee0:	605a      	str	r2, [r3, #4]
 8003ee2:	609a      	str	r2, [r3, #8]
 8003ee4:	60da      	str	r2, [r3, #12]
  if(hadc->Instance==ADC1)
 8003ee6:	687b      	ldr	r3, [r7, #4]
 8003ee8:	681b      	ldr	r3, [r3, #0]
 8003eea:	4a33      	ldr	r2, [pc, #204]	; (8003fb8 <HAL_ADC_MspInit+0xe8>)
 8003eec:	4293      	cmp	r3, r2
 8003eee:	d138      	bne.n	8003f62 <HAL_ADC_MspInit+0x92>
  {
  /* USER CODE BEGIN ADC1_MspInit 0 */

  /* USER CODE END ADC1_MspInit 0 */
    /* Peripheral clock enable */
    __HAL_RCC_ADC1_CLK_ENABLE();
 8003ef0:	4b32      	ldr	r3, [pc, #200]	; (8003fbc <HAL_ADC_MspInit+0xec>)
 8003ef2:	699b      	ldr	r3, [r3, #24]
 8003ef4:	4a31      	ldr	r2, [pc, #196]	; (8003fbc <HAL_ADC_MspInit+0xec>)
 8003ef6:	f443 7300 	orr.w	r3, r3, #512	; 0x200
 8003efa:	6193      	str	r3, [r2, #24]
 8003efc:	4b2f      	ldr	r3, [pc, #188]	; (8003fbc <HAL_ADC_MspInit+0xec>)
 8003efe:	699b      	ldr	r3, [r3, #24]
 8003f00:	f403 7300 	and.w	r3, r3, #512	; 0x200
 8003f04:	61fb      	str	r3, [r7, #28]
 8003f06:	69fb      	ldr	r3, [r7, #28]

    __HAL_RCC_GPIOC_CLK_ENABLE();
 8003f08:	4b2c      	ldr	r3, [pc, #176]	; (8003fbc <HAL_ADC_MspInit+0xec>)
 8003f0a:	699b      	ldr	r3, [r3, #24]
 8003f0c:	4a2b      	ldr	r2, [pc, #172]	; (8003fbc <HAL_ADC_MspInit+0xec>)
 8003f0e:	f043 0310 	orr.w	r3, r3, #16
 8003f12:	6193      	str	r3, [r2, #24]
 8003f14:	4b29      	ldr	r3, [pc, #164]	; (8003fbc <HAL_ADC_MspInit+0xec>)
 8003f16:	699b      	ldr	r3, [r3, #24]
 8003f18:	f003 0310 	and.w	r3, r3, #16
 8003f1c:	61bb      	str	r3, [r7, #24]
 8003f1e:	69bb      	ldr	r3, [r7, #24]
    __HAL_RCC_GPIOA_CLK_ENABLE();
 8003f20:	4b26      	ldr	r3, [pc, #152]	; (8003fbc <HAL_ADC_MspInit+0xec>)
 8003f22:	699b      	ldr	r3, [r3, #24]
 8003f24:	4a25      	ldr	r2, [pc, #148]	; (8003fbc <HAL_ADC_MspInit+0xec>)
 8003f26:	f043 0304 	orr.w	r3, r3, #4
 8003f2a:	6193      	str	r3, [r2, #24]
 8003f2c:	4b23      	ldr	r3, [pc, #140]	; (8003fbc <HAL_ADC_MspInit+0xec>)
 8003f2e:	699b      	ldr	r3, [r3, #24]
 8003f30:	f003 0304 	and.w	r3, r3, #4
 8003f34:	617b      	str	r3, [r7, #20]
 8003f36:	697b      	ldr	r3, [r7, #20]
    /**ADC1 GPIO Configuration
    PC3     ------> ADC1_IN13
    PA2     ------> ADC1_IN2
    */
    GPIO_InitStruct.Pin = GPIO_PIN_3;
 8003f38:	2308      	movs	r3, #8
 8003f3a:	623b      	str	r3, [r7, #32]
    GPIO_InitStruct.Mode = GPIO_MODE_ANALOG;
 8003f3c:	2303      	movs	r3, #3
 8003f3e:	627b      	str	r3, [r7, #36]	; 0x24
    HAL_GPIO_Init(GPIOC, &GPIO_InitStruct);
 8003f40:	f107 0320 	add.w	r3, r7, #32
 8003f44:	4619      	mov	r1, r3
 8003f46:	481e      	ldr	r0, [pc, #120]	; (8003fc0 <HAL_ADC_MspInit+0xf0>)
 8003f48:	f001 fa9a 	bl	8005480 <HAL_GPIO_Init>

    GPIO_InitStruct.Pin = GPIO_PIN_2;
 8003f4c:	2304      	movs	r3, #4
 8003f4e:	623b      	str	r3, [r7, #32]
    GPIO_InitStruct.Mode = GPIO_MODE_ANALOG;
 8003f50:	2303      	movs	r3, #3
 8003f52:	627b      	str	r3, [r7, #36]	; 0x24
    HAL_GPIO_Init(GPIOA, &GPIO_InitStruct);
 8003f54:	f107 0320 	add.w	r3, r7, #32
 8003f58:	4619      	mov	r1, r3
 8003f5a:	481a      	ldr	r0, [pc, #104]	; (8003fc4 <HAL_ADC_MspInit+0xf4>)
 8003f5c:	f001 fa90 	bl	8005480 <HAL_GPIO_Init>
  /* USER CODE BEGIN ADC2_MspInit 1 */

  /* USER CODE END ADC2_MspInit 1 */
  }

}
 8003f60:	e026      	b.n	8003fb0 <HAL_ADC_MspInit+0xe0>
  else if(hadc->Instance==ADC2)
 8003f62:	687b      	ldr	r3, [r7, #4]
 8003f64:	681b      	ldr	r3, [r3, #0]
 8003f66:	4a18      	ldr	r2, [pc, #96]	; (8003fc8 <HAL_ADC_MspInit+0xf8>)
 8003f68:	4293      	cmp	r3, r2
 8003f6a:	d121      	bne.n	8003fb0 <HAL_ADC_MspInit+0xe0>
    __HAL_RCC_ADC2_CLK_ENABLE();
 8003f6c:	4b13      	ldr	r3, [pc, #76]	; (8003fbc <HAL_ADC_MspInit+0xec>)
 8003f6e:	699b      	ldr	r3, [r3, #24]
 8003f70:	4a12      	ldr	r2, [pc, #72]	; (8003fbc <HAL_ADC_MspInit+0xec>)
 8003f72:	f443 6380 	orr.w	r3, r3, #1024	; 0x400
 8003f76:	6193      	str	r3, [r2, #24]
 8003f78:	4b10      	ldr	r3, [pc, #64]	; (8003fbc <HAL_ADC_MspInit+0xec>)
 8003f7a:	699b      	ldr	r3, [r3, #24]
 8003f7c:	f403 6380 	and.w	r3, r3, #1024	; 0x400
 8003f80:	613b      	str	r3, [r7, #16]
 8003f82:	693b      	ldr	r3, [r7, #16]
    __HAL_RCC_GPIOC_CLK_ENABLE();
 8003f84:	4b0d      	ldr	r3, [pc, #52]	; (8003fbc <HAL_ADC_MspInit+0xec>)
 8003f86:	699b      	ldr	r3, [r3, #24]
 8003f88:	4a0c      	ldr	r2, [pc, #48]	; (8003fbc <HAL_ADC_MspInit+0xec>)
 8003f8a:	f043 0310 	orr.w	r3, r3, #16
 8003f8e:	6193      	str	r3, [r2, #24]
 8003f90:	4b0a      	ldr	r3, [pc, #40]	; (8003fbc <HAL_ADC_MspInit+0xec>)
 8003f92:	699b      	ldr	r3, [r3, #24]
 8003f94:	f003 0310 	and.w	r3, r3, #16
 8003f98:	60fb      	str	r3, [r7, #12]
 8003f9a:	68fb      	ldr	r3, [r7, #12]
    GPIO_InitStruct.Pin = GPIO_PIN_3;
 8003f9c:	2308      	movs	r3, #8
 8003f9e:	623b      	str	r3, [r7, #32]
    GPIO_InitStruct.Mode = GPIO_MODE_ANALOG;
 8003fa0:	2303      	movs	r3, #3
 8003fa2:	627b      	str	r3, [r7, #36]	; 0x24
    HAL_GPIO_Init(GPIOC, &GPIO_InitStruct);
 8003fa4:	f107 0320 	add.w	r3, r7, #32
 8003fa8:	4619      	mov	r1, r3
 8003faa:	4805      	ldr	r0, [pc, #20]	; (8003fc0 <HAL_ADC_MspInit+0xf0>)
 8003fac:	f001 fa68 	bl	8005480 <HAL_GPIO_Init>
}
 8003fb0:	bf00      	nop
 8003fb2:	3730      	adds	r7, #48	; 0x30
 8003fb4:	46bd      	mov	sp, r7
 8003fb6:	bd80      	pop	{r7, pc}
 8003fb8:	40012400 	.word	0x40012400
 8003fbc:	40021000 	.word	0x40021000
 8003fc0:	40011000 	.word	0x40011000
 8003fc4:	40010800 	.word	0x40010800
 8003fc8:	40012800 	.word	0x40012800

08003fcc <HAL_TIM_Base_MspInit>:
* This function configures the hardware resources used in this example
* @param htim_base: TIM_Base handle pointer
* @retval None
*/
void HAL_TIM_Base_MspInit(TIM_HandleTypeDef* htim_base)
{
 8003fcc:	b480      	push	{r7}
 8003fce:	b085      	sub	sp, #20
 8003fd0:	af00      	add	r7, sp, #0
 8003fd2:	6078      	str	r0, [r7, #4]
  if(htim_base->Instance==TIM4)
 8003fd4:	687b      	ldr	r3, [r7, #4]
 8003fd6:	681b      	ldr	r3, [r3, #0]
 8003fd8:	4a09      	ldr	r2, [pc, #36]	; (8004000 <HAL_TIM_Base_MspInit+0x34>)
 8003fda:	4293      	cmp	r3, r2
 8003fdc:	d10b      	bne.n	8003ff6 <HAL_TIM_Base_MspInit+0x2a>
  {
  /* USER CODE BEGIN TIM4_MspInit 0 */

  /* USER CODE END TIM4_MspInit 0 */
    /* Peripheral clock enable */
    __HAL_RCC_TIM4_CLK_ENABLE();
 8003fde:	4b09      	ldr	r3, [pc, #36]	; (8004004 <HAL_TIM_Base_MspInit+0x38>)
 8003fe0:	69db      	ldr	r3, [r3, #28]
 8003fe2:	4a08      	ldr	r2, [pc, #32]	; (8004004 <HAL_TIM_Base_MspInit+0x38>)
 8003fe4:	f043 0304 	orr.w	r3, r3, #4
 8003fe8:	61d3      	str	r3, [r2, #28]
 8003fea:	4b06      	ldr	r3, [pc, #24]	; (8004004 <HAL_TIM_Base_MspInit+0x38>)
 8003fec:	69db      	ldr	r3, [r3, #28]
 8003fee:	f003 0304 	and.w	r3, r3, #4
 8003ff2:	60fb      	str	r3, [r7, #12]
 8003ff4:	68fb      	ldr	r3, [r7, #12]
  /* USER CODE BEGIN TIM4_MspInit 1 */

  /* USER CODE END TIM4_MspInit 1 */
  }

}
 8003ff6:	bf00      	nop
 8003ff8:	3714      	adds	r7, #20
 8003ffa:	46bd      	mov	sp, r7
 8003ffc:	bc80      	pop	{r7}
 8003ffe:	4770      	bx	lr
 8004000:	40000800 	.word	0x40000800
 8004004:	40021000 	.word	0x40021000

08004008 <HAL_TIM_MspPostInit>:

void HAL_TIM_MspPostInit(TIM_HandleTypeDef* htim)
{
 8004008:	b580      	push	{r7, lr}
 800400a:	b088      	sub	sp, #32
 800400c:	af00      	add	r7, sp, #0
 800400e:	6078      	str	r0, [r7, #4]
  GPIO_InitTypeDef GPIO_InitStruct = {0};
 8004010:	f107 0310 	add.w	r3, r7, #16
 8004014:	2200      	movs	r2, #0
 8004016:	601a      	str	r2, [r3, #0]
 8004018:	605a      	str	r2, [r3, #4]
 800401a:	609a      	str	r2, [r3, #8]
 800401c:	60da      	str	r2, [r3, #12]
  if(htim->Instance==TIM4)
 800401e:	687b      	ldr	r3, [r7, #4]
 8004020:	681b      	ldr	r3, [r3, #0]
 8004022:	4a0f      	ldr	r2, [pc, #60]	; (8004060 <HAL_TIM_MspPostInit+0x58>)
 8004024:	4293      	cmp	r3, r2
 8004026:	d117      	bne.n	8004058 <HAL_TIM_MspPostInit+0x50>
  {
  /* USER CODE BEGIN TIM4_MspPostInit 0 */

  /* USER CODE END TIM4_MspPostInit 0 */

    __HAL_RCC_GPIOB_CLK_ENABLE();
 8004028:	4b0e      	ldr	r3, [pc, #56]	; (8004064 <HAL_TIM_MspPostInit+0x5c>)
 800402a:	699b      	ldr	r3, [r3, #24]
 800402c:	4a0d      	ldr	r2, [pc, #52]	; (8004064 <HAL_TIM_MspPostInit+0x5c>)
 800402e:	f043 0308 	orr.w	r3, r3, #8
 8004032:	6193      	str	r3, [r2, #24]
 8004034:	4b0b      	ldr	r3, [pc, #44]	; (8004064 <HAL_TIM_MspPostInit+0x5c>)
 8004036:	699b      	ldr	r3, [r3, #24]
 8004038:	f003 0308 	and.w	r3, r3, #8
 800403c:	60fb      	str	r3, [r7, #12]
 800403e:	68fb      	ldr	r3, [r7, #12]
    /**TIM4 GPIO Configuration
    PB6     ------> TIM4_CH1
    PB7     ------> TIM4_CH2
    */
    GPIO_InitStruct.Pin = GPIO_PIN_6|GPIO_PIN_7;
 8004040:	23c0      	movs	r3, #192	; 0xc0
 8004042:	613b      	str	r3, [r7, #16]
    GPIO_InitStruct.Mode = GPIO_MODE_AF_PP;
 8004044:	2302      	movs	r3, #2
 8004046:	617b      	str	r3, [r7, #20]
    GPIO_InitStruct.Speed = GPIO_SPEED_FREQ_LOW;
 8004048:	2302      	movs	r3, #2
 800404a:	61fb      	str	r3, [r7, #28]
    HAL_GPIO_Init(GPIOB, &GPIO_InitStruct);
 800404c:	f107 0310 	add.w	r3, r7, #16
 8004050:	4619      	mov	r1, r3
 8004052:	4805      	ldr	r0, [pc, #20]	; (8004068 <HAL_TIM_MspPostInit+0x60>)
 8004054:	f001 fa14 	bl	8005480 <HAL_GPIO_Init>
  /* USER CODE BEGIN TIM4_MspPostInit 1 */

  /* USER CODE END TIM4_MspPostInit 1 */
  }

}
 8004058:	bf00      	nop
 800405a:	3720      	adds	r7, #32
 800405c:	46bd      	mov	sp, r7
 800405e:	bd80      	pop	{r7, pc}
 8004060:	40000800 	.word	0x40000800
 8004064:	40021000 	.word	0x40021000
 8004068:	40010c00 	.word	0x40010c00

0800406c <HAL_FSMC_MspInit>:

}

static uint32_t FSMC_Initialized = 0;

static void HAL_FSMC_MspInit(void){
 800406c:	b580      	push	{r7, lr}
 800406e:	b086      	sub	sp, #24
 8004070:	af00      	add	r7, sp, #0
  /* USER CODE BEGIN FSMC_MspInit 0 */

  /* USER CODE END FSMC_MspInit 0 */
  GPIO_InitTypeDef GPIO_InitStruct ={0};
 8004072:	f107 0308 	add.w	r3, r7, #8
 8004076:	2200      	movs	r2, #0
 8004078:	601a      	str	r2, [r3, #0]
 800407a:	605a      	str	r2, [r3, #4]
 800407c:	609a      	str	r2, [r3, #8]
 800407e:	60da      	str	r2, [r3, #12]
  if (FSMC_Initialized) {
 8004080:	4b18      	ldr	r3, [pc, #96]	; (80040e4 <HAL_FSMC_MspInit+0x78>)
 8004082:	681b      	ldr	r3, [r3, #0]
 8004084:	2b00      	cmp	r3, #0
 8004086:	d129      	bne.n	80040dc <HAL_FSMC_MspInit+0x70>
    return;
  }
  FSMC_Initialized = 1;
 8004088:	4b16      	ldr	r3, [pc, #88]	; (80040e4 <HAL_FSMC_MspInit+0x78>)
 800408a:	2201      	movs	r2, #1
 800408c:	601a      	str	r2, [r3, #0]

  /* Peripheral clock enable */
  __HAL_RCC_FSMC_CLK_ENABLE();
 800408e:	4b16      	ldr	r3, [pc, #88]	; (80040e8 <HAL_FSMC_MspInit+0x7c>)
 8004090:	695b      	ldr	r3, [r3, #20]
 8004092:	4a15      	ldr	r2, [pc, #84]	; (80040e8 <HAL_FSMC_MspInit+0x7c>)
 8004094:	f443 7380 	orr.w	r3, r3, #256	; 0x100
 8004098:	6153      	str	r3, [r2, #20]
 800409a:	4b13      	ldr	r3, [pc, #76]	; (80040e8 <HAL_FSMC_MspInit+0x7c>)
 800409c:	695b      	ldr	r3, [r3, #20]
 800409e:	f403 7380 	and.w	r3, r3, #256	; 0x100
 80040a2:	607b      	str	r3, [r7, #4]
 80040a4:	687b      	ldr	r3, [r7, #4]
  PD1   ------> FSMC_D3
  PD4   ------> FSMC_NOE
  PD5   ------> FSMC_NWE
  PD7   ------> FSMC_NE1
  */
  GPIO_InitStruct.Pin = GPIO_PIN_7|GPIO_PIN_8|GPIO_PIN_9|GPIO_PIN_10
 80040a6:	f64f 7380 	movw	r3, #65408	; 0xff80
 80040aa:	60bb      	str	r3, [r7, #8]
                          |GPIO_PIN_11|GPIO_PIN_12|GPIO_PIN_13|GPIO_PIN_14
                          |GPIO_PIN_15;
  GPIO_InitStruct.Mode = GPIO_MODE_AF_PP;
 80040ac:	2302      	movs	r3, #2
 80040ae:	60fb      	str	r3, [r7, #12]
  GPIO_InitStruct.Speed = GPIO_SPEED_FREQ_HIGH;
 80040b0:	2303      	movs	r3, #3
 80040b2:	617b      	str	r3, [r7, #20]
  HAL_GPIO_Init(GPIOE, &GPIO_InitStruct);
 80040b4:	f107 0308 	add.w	r3, r7, #8
 80040b8:	4619      	mov	r1, r3
 80040ba:	480c      	ldr	r0, [pc, #48]	; (80040ec <HAL_FSMC_MspInit+0x80>)
 80040bc:	f001 f9e0 	bl	8005480 <HAL_GPIO_Init>

  GPIO_InitStruct.Pin = GPIO_PIN_8|GPIO_PIN_9|GPIO_PIN_10|GPIO_PIN_11
 80040c0:	f64c 73b3 	movw	r3, #53171	; 0xcfb3
 80040c4:	60bb      	str	r3, [r7, #8]
                          |GPIO_PIN_14|GPIO_PIN_15|GPIO_PIN_0|GPIO_PIN_1
                          |GPIO_PIN_4|GPIO_PIN_5|GPIO_PIN_7;
  GPIO_InitStruct.Mode = GPIO_MODE_AF_PP;
 80040c6:	2302      	movs	r3, #2
 80040c8:	60fb      	str	r3, [r7, #12]
  GPIO_InitStruct.Speed = GPIO_SPEED_FREQ_HIGH;
 80040ca:	2303      	movs	r3, #3
 80040cc:	617b      	str	r3, [r7, #20]
  HAL_GPIO_Init(GPIOD, &GPIO_InitStruct);
 80040ce:	f107 0308 	add.w	r3, r7, #8
 80040d2:	4619      	mov	r1, r3
 80040d4:	4806      	ldr	r0, [pc, #24]	; (80040f0 <HAL_FSMC_MspInit+0x84>)
 80040d6:	f001 f9d3 	bl	8005480 <HAL_GPIO_Init>
 80040da:	e000      	b.n	80040de <HAL_FSMC_MspInit+0x72>
    return;
 80040dc:	bf00      	nop

  /* USER CODE BEGIN FSMC_MspInit 1 */

  /* USER CODE END FSMC_MspInit 1 */
}
 80040de:	3718      	adds	r7, #24
 80040e0:	46bd      	mov	sp, r7
 80040e2:	bd80      	pop	{r7, pc}
 80040e4:	200001b0 	.word	0x200001b0
 80040e8:	40021000 	.word	0x40021000
 80040ec:	40011800 	.word	0x40011800
 80040f0:	40011400 	.word	0x40011400

080040f4 <HAL_SRAM_MspInit>:

void HAL_SRAM_MspInit(SRAM_HandleTypeDef* hsram){
 80040f4:	b580      	push	{r7, lr}
 80040f6:	b082      	sub	sp, #8
 80040f8:	af00      	add	r7, sp, #0
 80040fa:	6078      	str	r0, [r7, #4]
  /* USER CODE BEGIN SRAM_MspInit 0 */

  /* USER CODE END SRAM_MspInit 0 */
  HAL_FSMC_MspInit();
 80040fc:	f7ff ffb6 	bl	800406c <HAL_FSMC_MspInit>
  /* USER CODE BEGIN SRAM_MspInit 1 */

  /* USER CODE END SRAM_MspInit 1 */
}
 8004100:	bf00      	nop
 8004102:	3708      	adds	r7, #8
 8004104:	46bd      	mov	sp, r7
 8004106:	bd80      	pop	{r7, pc}

08004108 <NMI_Handler>:
/******************************************************************************/
/**
  * @brief This function handles Non maskable interrupt.
  */
void NMI_Handler(void)
{
 8004108:	b480      	push	{r7}
 800410a:	af00      	add	r7, sp, #0
  /* USER CODE BEGIN NonMaskableInt_IRQn 0 */

  /* USER CODE END NonMaskableInt_IRQn 0 */
  /* USER CODE BEGIN NonMaskableInt_IRQn 1 */
  while (1)
 800410c:	e7fe      	b.n	800410c <NMI_Handler+0x4>

0800410e <HardFault_Handler>:

/**
  * @brief This function handles Hard fault interrupt.
  */
void HardFault_Handler(void)
{
 800410e:	b480      	push	{r7}
 8004110:	af00      	add	r7, sp, #0
  /* USER CODE BEGIN HardFault_IRQn 0 */

  /* USER CODE END HardFault_IRQn 0 */
  while (1)
 8004112:	e7fe      	b.n	8004112 <HardFault_Handler+0x4>

08004114 <MemManage_Handler>:

/**
  * @brief This function handles Memory management fault.
  */
void MemManage_Handler(void)
{
 8004114:	b480      	push	{r7}
 8004116:	af00      	add	r7, sp, #0
  /* USER CODE BEGIN MemoryManagement_IRQn 0 */

  /* USER CODE END MemoryManagement_IRQn 0 */
  while (1)
 8004118:	e7fe      	b.n	8004118 <MemManage_Handler+0x4>

0800411a <BusFault_Handler>:

/**
  * @brief This function handles Prefetch fault, memory access fault.
  */
void BusFault_Handler(void)
{
 800411a:	b480      	push	{r7}
 800411c:	af00      	add	r7, sp, #0
  /* USER CODE BEGIN BusFault_IRQn 0 */

  /* USER CODE END BusFault_IRQn 0 */
  while (1)
 800411e:	e7fe      	b.n	800411e <BusFault_Handler+0x4>

08004120 <UsageFault_Handler>:

/**
  * @brief This function handles Undefined instruction or illegal state.
  */
void UsageFault_Handler(void)
{
 8004120:	b480      	push	{r7}
 8004122:	af00      	add	r7, sp, #0
  /* USER CODE BEGIN UsageFault_IRQn 0 */

  /* USER CODE END UsageFault_IRQn 0 */
  while (1)
 8004124:	e7fe      	b.n	8004124 <UsageFault_Handler+0x4>

08004126 <SVC_Handler>:

/**
  * @brief This function handles System service call via SWI instruction.
  */
void SVC_Handler(void)
{
 8004126:	b480      	push	{r7}
 8004128:	af00      	add	r7, sp, #0

  /* USER CODE END SVCall_IRQn 0 */
  /* USER CODE BEGIN SVCall_IRQn 1 */

  /* USER CODE END SVCall_IRQn 1 */
}
 800412a:	bf00      	nop
 800412c:	46bd      	mov	sp, r7
 800412e:	bc80      	pop	{r7}
 8004130:	4770      	bx	lr

08004132 <DebugMon_Handler>:

/**
  * @brief This function handles Debug monitor.
  */
void DebugMon_Handler(void)
{
 8004132:	b480      	push	{r7}
 8004134:	af00      	add	r7, sp, #0

  /* USER CODE END DebugMonitor_IRQn 0 */
  /* USER CODE BEGIN DebugMonitor_IRQn 1 */

  /* USER CODE END DebugMonitor_IRQn 1 */
}
 8004136:	bf00      	nop
 8004138:	46bd      	mov	sp, r7
 800413a:	bc80      	pop	{r7}
 800413c:	4770      	bx	lr

0800413e <PendSV_Handler>:

/**
  * @brief This function handles Pendable request for system service.
  */
void PendSV_Handler(void)
{
 800413e:	b480      	push	{r7}
 8004140:	af00      	add	r7, sp, #0

  /* USER CODE END PendSV_IRQn 0 */
  /* USER CODE BEGIN PendSV_IRQn 1 */

  /* USER CODE END PendSV_IRQn 1 */
}
 8004142:	bf00      	nop
 8004144:	46bd      	mov	sp, r7
 8004146:	bc80      	pop	{r7}
 8004148:	4770      	bx	lr

0800414a <SysTick_Handler>:

/**
  * @brief This function handles System tick timer.
  */
void SysTick_Handler(void)
{
 800414a:	b580      	push	{r7, lr}
 800414c:	af00      	add	r7, sp, #0
  /* USER CODE BEGIN SysTick_IRQn 0 */

  /* USER CODE END SysTick_IRQn 0 */
  HAL_IncTick();
 800414e:	f000 fb5d 	bl	800480c <HAL_IncTick>
  /* USER CODE BEGIN SysTick_IRQn 1 */

  /* USER CODE END SysTick_IRQn 1 */
}
 8004152:	bf00      	nop
 8004154:	bd80      	pop	{r7, pc}
	...

08004158 <EXTI0_IRQHandler>:

/**
  * @brief This function handles EXTI line0 interrupt.
  */
void EXTI0_IRQHandler(void)
{
 8004158:	b580      	push	{r7, lr}
 800415a:	af00      	add	r7, sp, #0
  /* USER CODE BEGIN EXTI0_IRQn 0 */
//	if (__HAL_GPIO_EXTI_GET_IT(GPIO_PIN_0) != RESET){
			k1Flag = 1;
 800415c:	4b03      	ldr	r3, [pc, #12]	; (800416c <EXTI0_IRQHandler+0x14>)
 800415e:	2201      	movs	r2, #1
 8004160:	701a      	strb	r2, [r3, #0]
//			__HAL_GPIO_EXTI_CLEAR_IT(GPIO_PIN_0);
//			HAL_GPIO_EXTI_Callback(GPIO_PIN_0);
//	}

  /* USER CODE END EXTI0_IRQn 0 */
  HAL_GPIO_EXTI_IRQHandler(K1_Pin);
 8004162:	2001      	movs	r0, #1
 8004164:	f001 fb50 	bl	8005808 <HAL_GPIO_EXTI_IRQHandler>
  /* USER CODE BEGIN EXTI0_IRQn 1 */

  /* USER CODE END EXTI0_IRQn 1 */
}
 8004168:	bf00      	nop
 800416a:	bd80      	pop	{r7, pc}
 800416c:	200001b9 	.word	0x200001b9

08004170 <EXTI4_IRQHandler>:

/**
  * @brief This function handles EXTI line4 interrupt.
  */
void EXTI4_IRQHandler(void)
{
 8004170:	b580      	push	{r7, lr}
 8004172:	af00      	add	r7, sp, #0
  /* USER CODE BEGIN EXTI4_IRQn 0 */
	if (__HAL_GPIO_EXTI_GET_IT(GPIO_PIN_4) != RESET)
 8004174:	4b09      	ldr	r3, [pc, #36]	; (800419c <EXTI4_IRQHandler+0x2c>)
 8004176:	695b      	ldr	r3, [r3, #20]
 8004178:	f003 0310 	and.w	r3, r3, #16
 800417c:	2b00      	cmp	r3, #0
 800417e:	d008      	beq.n	8004192 <EXTI4_IRQHandler+0x22>
	  {
			  ucXPT2046_TouchFlag = 1;
 8004180:	4b07      	ldr	r3, [pc, #28]	; (80041a0 <EXTI4_IRQHandler+0x30>)
 8004182:	2201      	movs	r2, #1
 8004184:	701a      	strb	r2, [r3, #0]

	    __HAL_GPIO_EXTI_CLEAR_IT(GPIO_PIN_4);
 8004186:	4b05      	ldr	r3, [pc, #20]	; (800419c <EXTI4_IRQHandler+0x2c>)
 8004188:	2210      	movs	r2, #16
 800418a:	615a      	str	r2, [r3, #20]
	    HAL_GPIO_EXTI_Callback(GPIO_PIN_4);
 800418c:	2010      	movs	r0, #16
 800418e:	f001 fb53 	bl	8005838 <HAL_GPIO_EXTI_Callback>
	  }
  /* USER CODE END EXTI4_IRQn 0 */
  HAL_GPIO_EXTI_IRQHandler(GPIO_PIN_4);
 8004192:	2010      	movs	r0, #16
 8004194:	f001 fb38 	bl	8005808 <HAL_GPIO_EXTI_IRQHandler>
  /* USER CODE BEGIN EXTI4_IRQn 1 */

  /* USER CODE END EXTI4_IRQn 1 */
}
 8004198:	bf00      	nop
 800419a:	bd80      	pop	{r7, pc}
 800419c:	40010400 	.word	0x40010400
 80041a0:	200001b8 	.word	0x200001b8

080041a4 <EXTI15_10_IRQHandler>:

/**
  * @brief This function handles EXTI line[15:10] interrupts.
  */
void EXTI15_10_IRQHandler(void)
{
 80041a4:	b580      	push	{r7, lr}
 80041a6:	af00      	add	r7, sp, #0
  /* USER CODE BEGIN EXTI15_10_IRQn 0 */
	k2Flag = 1;
 80041a8:	4b04      	ldr	r3, [pc, #16]	; (80041bc <EXTI15_10_IRQHandler+0x18>)
 80041aa:	2201      	movs	r2, #1
 80041ac:	701a      	strb	r2, [r3, #0]
  /* USER CODE END EXTI15_10_IRQn 0 */
  HAL_GPIO_EXTI_IRQHandler(K2_Pin);
 80041ae:	f44f 5000 	mov.w	r0, #8192	; 0x2000
 80041b2:	f001 fb29 	bl	8005808 <HAL_GPIO_EXTI_IRQHandler>
  /* USER CODE BEGIN EXTI15_10_IRQn 1 */

  /* USER CODE END EXTI15_10_IRQn 1 */
}
 80041b6:	bf00      	nop
 80041b8:	bd80      	pop	{r7, pc}
 80041ba:	bf00      	nop
 80041bc:	200001ba 	.word	0x200001ba

080041c0 <_sbrk>:
 *
 * @param incr Memory size
 * @return Pointer to allocated memory
 */
void *_sbrk(ptrdiff_t incr)
{
 80041c0:	b580      	push	{r7, lr}
 80041c2:	b086      	sub	sp, #24
 80041c4:	af00      	add	r7, sp, #0
 80041c6:	6078      	str	r0, [r7, #4]
  extern uint8_t _end; /* Symbol defined in the linker script */
  extern uint8_t _estack; /* Symbol defined in the linker script */
  extern uint32_t _Min_Stack_Size; /* Symbol defined in the linker script */
  const uint32_t stack_limit = (uint32_t)&_estack - (uint32_t)&_Min_Stack_Size;
 80041c8:	4a14      	ldr	r2, [pc, #80]	; (800421c <_sbrk+0x5c>)
 80041ca:	4b15      	ldr	r3, [pc, #84]	; (8004220 <_sbrk+0x60>)
 80041cc:	1ad3      	subs	r3, r2, r3
 80041ce:	617b      	str	r3, [r7, #20]
  const uint8_t *max_heap = (uint8_t *)stack_limit;
 80041d0:	697b      	ldr	r3, [r7, #20]
 80041d2:	613b      	str	r3, [r7, #16]
  uint8_t *prev_heap_end;

  /* Initialize heap end at first call */
  if (NULL == __sbrk_heap_end)
 80041d4:	4b13      	ldr	r3, [pc, #76]	; (8004224 <_sbrk+0x64>)
 80041d6:	681b      	ldr	r3, [r3, #0]
 80041d8:	2b00      	cmp	r3, #0
 80041da:	d102      	bne.n	80041e2 <_sbrk+0x22>
  {
    __sbrk_heap_end = &_end;
 80041dc:	4b11      	ldr	r3, [pc, #68]	; (8004224 <_sbrk+0x64>)
 80041de:	4a12      	ldr	r2, [pc, #72]	; (8004228 <_sbrk+0x68>)
 80041e0:	601a      	str	r2, [r3, #0]
  }

  /* Protect heap from growing into the reserved MSP stack */
  if (__sbrk_heap_end + incr > max_heap)
 80041e2:	4b10      	ldr	r3, [pc, #64]	; (8004224 <_sbrk+0x64>)
 80041e4:	681a      	ldr	r2, [r3, #0]
 80041e6:	687b      	ldr	r3, [r7, #4]
 80041e8:	4413      	add	r3, r2
 80041ea:	693a      	ldr	r2, [r7, #16]
 80041ec:	429a      	cmp	r2, r3
 80041ee:	d207      	bcs.n	8004200 <_sbrk+0x40>
  {
    errno = ENOMEM;
 80041f0:	f003 f884 	bl	80072fc <__errno>
 80041f4:	4603      	mov	r3, r0
 80041f6:	220c      	movs	r2, #12
 80041f8:	601a      	str	r2, [r3, #0]
    return (void *)-1;
 80041fa:	f04f 33ff 	mov.w	r3, #4294967295
 80041fe:	e009      	b.n	8004214 <_sbrk+0x54>
  }

  prev_heap_end = __sbrk_heap_end;
 8004200:	4b08      	ldr	r3, [pc, #32]	; (8004224 <_sbrk+0x64>)
 8004202:	681b      	ldr	r3, [r3, #0]
 8004204:	60fb      	str	r3, [r7, #12]
  __sbrk_heap_end += incr;
 8004206:	4b07      	ldr	r3, [pc, #28]	; (8004224 <_sbrk+0x64>)
 8004208:	681a      	ldr	r2, [r3, #0]
 800420a:	687b      	ldr	r3, [r7, #4]
 800420c:	4413      	add	r3, r2
 800420e:	4a05      	ldr	r2, [pc, #20]	; (8004224 <_sbrk+0x64>)
 8004210:	6013      	str	r3, [r2, #0]

  return (void *)prev_heap_end;
 8004212:	68fb      	ldr	r3, [r7, #12]
}
 8004214:	4618      	mov	r0, r3
 8004216:	3718      	adds	r7, #24
 8004218:	46bd      	mov	sp, r7
 800421a:	bd80      	pop	{r7, pc}
 800421c:	20010000 	.word	0x20010000
 8004220:	00000400 	.word	0x00000400
 8004224:	200001b4 	.word	0x200001b4
 8004228:	200001d0 	.word	0x200001d0

0800422c <SystemInit>:
  * @note   This function should be used only after reset.
  * @param  None
  * @retval None
  */
void SystemInit (void)
{
 800422c:	b480      	push	{r7}
 800422e:	af00      	add	r7, sp, #0

  /* Configure the Vector Table location -------------------------------------*/
#if defined(USER_VECT_TAB_ADDRESS)
  SCB->VTOR = VECT_TAB_BASE_ADDRESS | VECT_TAB_OFFSET; /* Vector Table Relocation in Internal SRAM. */
#endif /* USER_VECT_TAB_ADDRESS */
}
 8004230:	bf00      	nop
 8004232:	46bd      	mov	sp, r7
 8004234:	bc80      	pop	{r7}
 8004236:	4770      	bx	lr

08004238 <_ZL15XPT2046_DelayUSm>:
volatile uint8_t ucXPT2046_TouchFlag = 0;
volatile uint8_t k1Flag = 0;
volatile uint8_t k2Flag = 0;
	
static void XPT2046_DelayUS ( __IO uint32_t ulCount )
{
 8004238:	b480      	push	{r7}
 800423a:	b085      	sub	sp, #20
 800423c:	af00      	add	r7, sp, #0
 800423e:	6078      	str	r0, [r7, #4]
	uint32_t i;


	for ( i = 0; i < ulCount; i ++ )
 8004240:	2300      	movs	r3, #0
 8004242:	60fb      	str	r3, [r7, #12]
 8004244:	687b      	ldr	r3, [r7, #4]
 8004246:	68fa      	ldr	r2, [r7, #12]
 8004248:	429a      	cmp	r2, r3
 800424a:	bf34      	ite	cc
 800424c:	2301      	movcc	r3, #1
 800424e:	2300      	movcs	r3, #0
 8004250:	b2db      	uxtb	r3, r3
 8004252:	2b00      	cmp	r3, #0
 8004254:	d010      	beq.n	8004278 <_ZL15XPT2046_DelayUSm+0x40>
	{
		uint8_t uc = 12;     
 8004256:	230c      	movs	r3, #12
 8004258:	72fb      	strb	r3, [r7, #11]
	      
		while ( uc -- );     
 800425a:	7afb      	ldrb	r3, [r7, #11]
 800425c:	1e5a      	subs	r2, r3, #1
 800425e:	72fa      	strb	r2, [r7, #11]
 8004260:	2b00      	cmp	r3, #0
 8004262:	bf14      	ite	ne
 8004264:	2301      	movne	r3, #1
 8004266:	2300      	moveq	r3, #0
 8004268:	b2db      	uxtb	r3, r3
 800426a:	2b00      	cmp	r3, #0
 800426c:	d000      	beq.n	8004270 <_ZL15XPT2046_DelayUSm+0x38>
 800426e:	e7f4      	b.n	800425a <_ZL15XPT2046_DelayUSm+0x22>
	for ( i = 0; i < ulCount; i ++ )
 8004270:	68fb      	ldr	r3, [r7, #12]
 8004272:	3301      	adds	r3, #1
 8004274:	60fb      	str	r3, [r7, #12]
 8004276:	e7e5      	b.n	8004244 <_ZL15XPT2046_DelayUSm+0xc>

	}
	
}
 8004278:	bf00      	nop
 800427a:	3714      	adds	r7, #20
 800427c:	46bd      	mov	sp, r7
 800427e:	bc80      	pop	{r7}
 8004280:	4770      	bx	lr
	...

08004284 <_ZL16XPT2046_WriteCMDh>:


static void XPT2046_WriteCMD ( uint8_t ucCmd ) 
{
 8004284:	b580      	push	{r7, lr}
 8004286:	b084      	sub	sp, #16
 8004288:	af00      	add	r7, sp, #0
 800428a:	4603      	mov	r3, r0
 800428c:	71fb      	strb	r3, [r7, #7]
	uint8_t i;


	macXPT2046_MOSI_0();
 800428e:	2200      	movs	r2, #0
 8004290:	2104      	movs	r1, #4
 8004292:	481d      	ldr	r0, [pc, #116]	; (8004308 <_ZL16XPT2046_WriteCMDh+0x84>)
 8004294:	f001 fa9f 	bl	80057d6 <HAL_GPIO_WritePin>
	
	macXPT2046_CLK_LOW();
 8004298:	2200      	movs	r2, #0
 800429a:	2101      	movs	r1, #1
 800429c:	481a      	ldr	r0, [pc, #104]	; (8004308 <_ZL16XPT2046_WriteCMDh+0x84>)
 800429e:	f001 fa9a 	bl	80057d6 <HAL_GPIO_WritePin>

	for ( i = 0; i < 8; i ++ ) 
 80042a2:	2300      	movs	r3, #0
 80042a4:	73fb      	strb	r3, [r7, #15]
 80042a6:	7bfb      	ldrb	r3, [r7, #15]
 80042a8:	2b07      	cmp	r3, #7
 80042aa:	d828      	bhi.n	80042fe <_ZL16XPT2046_WriteCMDh+0x7a>
	{
		( ( ucCmd >> ( 7 - i ) ) & 0x01 ) ? macXPT2046_MOSI_1() : macXPT2046_MOSI_0();
 80042ac:	79fa      	ldrb	r2, [r7, #7]
 80042ae:	7bfb      	ldrb	r3, [r7, #15]
 80042b0:	f1c3 0307 	rsb	r3, r3, #7
 80042b4:	fa42 f303 	asr.w	r3, r2, r3
 80042b8:	f003 0301 	and.w	r3, r3, #1
 80042bc:	2b00      	cmp	r3, #0
 80042be:	d005      	beq.n	80042cc <_ZL16XPT2046_WriteCMDh+0x48>
 80042c0:	2201      	movs	r2, #1
 80042c2:	2104      	movs	r1, #4
 80042c4:	4810      	ldr	r0, [pc, #64]	; (8004308 <_ZL16XPT2046_WriteCMDh+0x84>)
 80042c6:	f001 fa86 	bl	80057d6 <HAL_GPIO_WritePin>
 80042ca:	e004      	b.n	80042d6 <_ZL16XPT2046_WriteCMDh+0x52>
 80042cc:	2200      	movs	r2, #0
 80042ce:	2104      	movs	r1, #4
 80042d0:	480d      	ldr	r0, [pc, #52]	; (8004308 <_ZL16XPT2046_WriteCMDh+0x84>)
 80042d2:	f001 fa80 	bl	80057d6 <HAL_GPIO_WritePin>
		
	  XPT2046_DelayUS ( 5 );
 80042d6:	2005      	movs	r0, #5
 80042d8:	f7ff ffae 	bl	8004238 <_ZL15XPT2046_DelayUSm>
		
		macXPT2046_CLK_HIGH();
 80042dc:	2201      	movs	r2, #1
 80042de:	2101      	movs	r1, #1
 80042e0:	4809      	ldr	r0, [pc, #36]	; (8004308 <_ZL16XPT2046_WriteCMDh+0x84>)
 80042e2:	f001 fa78 	bl	80057d6 <HAL_GPIO_WritePin>

	  XPT2046_DelayUS ( 5 );
 80042e6:	2005      	movs	r0, #5
 80042e8:	f7ff ffa6 	bl	8004238 <_ZL15XPT2046_DelayUSm>

		macXPT2046_CLK_LOW();
 80042ec:	2200      	movs	r2, #0
 80042ee:	2101      	movs	r1, #1
 80042f0:	4805      	ldr	r0, [pc, #20]	; (8004308 <_ZL16XPT2046_WriteCMDh+0x84>)
 80042f2:	f001 fa70 	bl	80057d6 <HAL_GPIO_WritePin>
	for ( i = 0; i < 8; i ++ ) 
 80042f6:	7bfb      	ldrb	r3, [r7, #15]
 80042f8:	3301      	adds	r3, #1
 80042fa:	73fb      	strb	r3, [r7, #15]
 80042fc:	e7d3      	b.n	80042a6 <_ZL16XPT2046_WriteCMDh+0x22>
	}
	
}
 80042fe:	bf00      	nop
 8004300:	3710      	adds	r7, #16
 8004302:	46bd      	mov	sp, r7
 8004304:	bd80      	pop	{r7, pc}
 8004306:	bf00      	nop
 8004308:	40011800 	.word	0x40011800

0800430c <_ZL15XPT2046_ReadCMDv>:


static uint16_t XPT2046_ReadCMD ( void ) 
{
 800430c:	b580      	push	{r7, lr}
 800430e:	b082      	sub	sp, #8
 8004310:	af00      	add	r7, sp, #0
	uint8_t i;
	uint16_t usBuf=0, usTemp;
 8004312:	2300      	movs	r3, #0
 8004314:	80bb      	strh	r3, [r7, #4]
	


	macXPT2046_MOSI_0();
 8004316:	2200      	movs	r2, #0
 8004318:	2104      	movs	r1, #4
 800431a:	4819      	ldr	r0, [pc, #100]	; (8004380 <_ZL15XPT2046_ReadCMDv+0x74>)
 800431c:	f001 fa5b 	bl	80057d6 <HAL_GPIO_WritePin>

	macXPT2046_CLK_HIGH();
 8004320:	2201      	movs	r2, #1
 8004322:	2101      	movs	r1, #1
 8004324:	4816      	ldr	r0, [pc, #88]	; (8004380 <_ZL15XPT2046_ReadCMDv+0x74>)
 8004326:	f001 fa56 	bl	80057d6 <HAL_GPIO_WritePin>

	for ( i=0;i<12;i++ ) 
 800432a:	2300      	movs	r3, #0
 800432c:	71fb      	strb	r3, [r7, #7]
 800432e:	79fb      	ldrb	r3, [r7, #7]
 8004330:	2b0b      	cmp	r3, #11
 8004332:	d81f      	bhi.n	8004374 <_ZL15XPT2046_ReadCMDv+0x68>
	{
		macXPT2046_CLK_LOW();    
 8004334:	2200      	movs	r2, #0
 8004336:	2101      	movs	r1, #1
 8004338:	4811      	ldr	r0, [pc, #68]	; (8004380 <_ZL15XPT2046_ReadCMDv+0x74>)
 800433a:	f001 fa4c 	bl	80057d6 <HAL_GPIO_WritePin>
	
		usTemp = macXPT2046_MISO();
 800433e:	2108      	movs	r1, #8
 8004340:	480f      	ldr	r0, [pc, #60]	; (8004380 <_ZL15XPT2046_ReadCMDv+0x74>)
 8004342:	f001 fa31 	bl	80057a8 <HAL_GPIO_ReadPin>
 8004346:	4603      	mov	r3, r0
 8004348:	807b      	strh	r3, [r7, #2]
		
		usBuf |= usTemp << ( 11 - i );
 800434a:	887a      	ldrh	r2, [r7, #2]
 800434c:	79fb      	ldrb	r3, [r7, #7]
 800434e:	f1c3 030b 	rsb	r3, r3, #11
 8004352:	fa02 f303 	lsl.w	r3, r2, r3
 8004356:	b21a      	sxth	r2, r3
 8004358:	f9b7 3004 	ldrsh.w	r3, [r7, #4]
 800435c:	4313      	orrs	r3, r2
 800435e:	b21b      	sxth	r3, r3
 8004360:	80bb      	strh	r3, [r7, #4]
	
		macXPT2046_CLK_HIGH();
 8004362:	2201      	movs	r2, #1
 8004364:	2101      	movs	r1, #1
 8004366:	4806      	ldr	r0, [pc, #24]	; (8004380 <_ZL15XPT2046_ReadCMDv+0x74>)
 8004368:	f001 fa35 	bl	80057d6 <HAL_GPIO_WritePin>
	for ( i=0;i<12;i++ ) 
 800436c:	79fb      	ldrb	r3, [r7, #7]
 800436e:	3301      	adds	r3, #1
 8004370:	71fb      	strb	r3, [r7, #7]
 8004372:	e7dc      	b.n	800432e <_ZL15XPT2046_ReadCMDv+0x22>
		
	}
	
	return usBuf;
 8004374:	88bb      	ldrh	r3, [r7, #4]

}
 8004376:	4618      	mov	r0, r3
 8004378:	3708      	adds	r7, #8
 800437a:	46bd      	mov	sp, r7
 800437c:	bd80      	pop	{r7, pc}
 800437e:	bf00      	nop
 8004380:	40011800 	.word	0x40011800

08004384 <_ZL15XPT2046_ReadAdch>:


static uint16_t XPT2046_ReadAdc ( uint8_t ucChannel )
{
 8004384:	b580      	push	{r7, lr}
 8004386:	b082      	sub	sp, #8
 8004388:	af00      	add	r7, sp, #0
 800438a:	4603      	mov	r3, r0
 800438c:	71fb      	strb	r3, [r7, #7]
	XPT2046_WriteCMD ( ucChannel );
 800438e:	79fb      	ldrb	r3, [r7, #7]
 8004390:	4618      	mov	r0, r3
 8004392:	f7ff ff77 	bl	8004284 <_ZL16XPT2046_WriteCMDh>

  return 	XPT2046_ReadCMD ();
 8004396:	f7ff ffb9 	bl	800430c <_ZL15XPT2046_ReadCMDv>
 800439a:	4603      	mov	r3, r0
	
}
 800439c:	4618      	mov	r0, r3
 800439e:	3708      	adds	r7, #8
 80043a0:	46bd      	mov	sp, r7
 80043a2:	bd80      	pop	{r7, pc}

080043a4 <_ZL18XPT2046_ReadAdc_XYPsS_>:


static void XPT2046_ReadAdc_XY ( int16_t * sX_Ad, int16_t * sY_Ad )  
{ 
 80043a4:	b580      	push	{r7, lr}
 80043a6:	b084      	sub	sp, #16
 80043a8:	af00      	add	r7, sp, #0
 80043aa:	6078      	str	r0, [r7, #4]
 80043ac:	6039      	str	r1, [r7, #0]
	int16_t sX_Ad_Temp, sY_Ad_Temp; 

	
	
	sX_Ad_Temp = XPT2046_ReadAdc ( macXPT2046_CHANNEL_X );
 80043ae:	2090      	movs	r0, #144	; 0x90
 80043b0:	f7ff ffe8 	bl	8004384 <_ZL15XPT2046_ReadAdch>
 80043b4:	4603      	mov	r3, r0
 80043b6:	81fb      	strh	r3, [r7, #14]

	XPT2046_DelayUS ( 1 ); 
 80043b8:	2001      	movs	r0, #1
 80043ba:	f7ff ff3d 	bl	8004238 <_ZL15XPT2046_DelayUSm>

	sY_Ad_Temp = XPT2046_ReadAdc ( macXPT2046_CHANNEL_Y ); 
 80043be:	20d0      	movs	r0, #208	; 0xd0
 80043c0:	f7ff ffe0 	bl	8004384 <_ZL15XPT2046_ReadAdch>
 80043c4:	4603      	mov	r3, r0
 80043c6:	81bb      	strh	r3, [r7, #12]
	
	
	* sX_Ad = sX_Ad_Temp; 
 80043c8:	687b      	ldr	r3, [r7, #4]
 80043ca:	89fa      	ldrh	r2, [r7, #14]
 80043cc:	801a      	strh	r2, [r3, #0]
	* sY_Ad = sY_Ad_Temp; 
 80043ce:	683b      	ldr	r3, [r7, #0]
 80043d0:	89ba      	ldrh	r2, [r7, #12]
 80043d2:	801a      	strh	r2, [r3, #0]
	
	
}
 80043d4:	bf00      	nop
 80043d6:	3710      	adds	r7, #16
 80043d8:	46bd      	mov	sp, r7
 80043da:	bd80      	pop	{r7, pc}

080043dc <_ZL25XPT2046_ReadAdc_Smooth_XYP26strType_XPT2046_Coordinate>:
}


#else     
static uint8_t XPT2046_ReadAdc_Smooth_XY ( strType_XPT2046_Coordinate * pScreenCoordinate )
{
 80043dc:	b580      	push	{r7, lr}
 80043de:	b092      	sub	sp, #72	; 0x48
 80043e0:	af00      	add	r7, sp, #0
 80043e2:	6078      	str	r0, [r7, #4]
	uint8_t ucCount = 0, i;
 80043e4:	2300      	movs	r3, #0
 80043e6:	f887 3047 	strb.w	r3, [r7, #71]	; 0x47
	
	int16_t sAD_X, sAD_Y;
	int16_t sBufferArray [ 2 ] [ 10 ] = { { 0 },{ 0 } };  
 80043ea:	f107 0308 	add.w	r3, r7, #8
 80043ee:	2228      	movs	r2, #40	; 0x28
 80043f0:	2100      	movs	r1, #0
 80043f2:	4618      	mov	r0, r3
 80043f4:	f002 ffb4 	bl	8007360 <memset>
	int32_t lX_Min, lX_Max, lY_Min, lY_Max;


	do					       				
	{		  
		XPT2046_ReadAdc_XY ( & sAD_X, & sAD_Y );  
 80043f8:	f107 0230 	add.w	r2, r7, #48	; 0x30
 80043fc:	f107 0332 	add.w	r3, r7, #50	; 0x32
 8004400:	4611      	mov	r1, r2
 8004402:	4618      	mov	r0, r3
 8004404:	f7ff ffce 	bl	80043a4 <_ZL18XPT2046_ReadAdc_XYPsS_>
		
		sBufferArray [ 0 ] [ ucCount ] = sAD_X;  
 8004408:	f897 3047 	ldrb.w	r3, [r7, #71]	; 0x47
 800440c:	f9b7 2032 	ldrsh.w	r2, [r7, #50]	; 0x32
 8004410:	005b      	lsls	r3, r3, #1
 8004412:	3348      	adds	r3, #72	; 0x48
 8004414:	443b      	add	r3, r7
 8004416:	f823 2c40 	strh.w	r2, [r3, #-64]
		sBufferArray [ 1 ] [ ucCount ] = sAD_Y;
 800441a:	f897 3047 	ldrb.w	r3, [r7, #71]	; 0x47
 800441e:	f9b7 2030 	ldrsh.w	r2, [r7, #48]	; 0x30
 8004422:	330a      	adds	r3, #10
 8004424:	005b      	lsls	r3, r3, #1
 8004426:	3348      	adds	r3, #72	; 0x48
 8004428:	443b      	add	r3, r7
 800442a:	f823 2c40 	strh.w	r2, [r3, #-64]
		
		ucCount ++;  
 800442e:	f897 3047 	ldrb.w	r3, [r7, #71]	; 0x47
 8004432:	3301      	adds	r3, #1
 8004434:	f887 3047 	strb.w	r3, [r7, #71]	; 0x47
		
	}	while ( ( macXPT2046_EXTI_Read() == macXPT2046_EXTI_ActiveLevel ) && ( ucCount < 10 ) );
 8004438:	2110      	movs	r1, #16
 800443a:	4876      	ldr	r0, [pc, #472]	; (8004614 <_ZL25XPT2046_ReadAdc_Smooth_XYP26strType_XPT2046_Coordinate+0x238>)
 800443c:	f001 f9b4 	bl	80057a8 <HAL_GPIO_ReadPin>
 8004440:	4603      	mov	r3, r0
 8004442:	2b00      	cmp	r3, #0
 8004444:	d105      	bne.n	8004452 <_ZL25XPT2046_ReadAdc_Smooth_XYP26strType_XPT2046_Coordinate+0x76>
 8004446:	f897 3047 	ldrb.w	r3, [r7, #71]	; 0x47
 800444a:	2b09      	cmp	r3, #9
 800444c:	d801      	bhi.n	8004452 <_ZL25XPT2046_ReadAdc_Smooth_XYP26strType_XPT2046_Coordinate+0x76>
 800444e:	2301      	movs	r3, #1
 8004450:	e000      	b.n	8004454 <_ZL25XPT2046_ReadAdc_Smooth_XYP26strType_XPT2046_Coordinate+0x78>
 8004452:	2300      	movs	r3, #0
 8004454:	2b00      	cmp	r3, #0
 8004456:	d000      	beq.n	800445a <_ZL25XPT2046_ReadAdc_Smooth_XYP26strType_XPT2046_Coordinate+0x7e>
	do					       				
 8004458:	e7ce      	b.n	80043f8 <_ZL25XPT2046_ReadAdc_Smooth_XYP26strType_XPT2046_Coordinate+0x1c>
	

	if ( macXPT2046_EXTI_Read() != macXPT2046_EXTI_ActiveLevel )
 800445a:	2110      	movs	r1, #16
 800445c:	486d      	ldr	r0, [pc, #436]	; (8004614 <_ZL25XPT2046_ReadAdc_Smooth_XYP26strType_XPT2046_Coordinate+0x238>)
 800445e:	f001 f9a3 	bl	80057a8 <HAL_GPIO_ReadPin>
 8004462:	4603      	mov	r3, r0
 8004464:	2b00      	cmp	r3, #0
 8004466:	bf14      	ite	ne
 8004468:	2301      	movne	r3, #1
 800446a:	2300      	moveq	r3, #0
 800446c:	b2db      	uxtb	r3, r3
 800446e:	2b00      	cmp	r3, #0
 8004470:	d002      	beq.n	8004478 <_ZL25XPT2046_ReadAdc_Smooth_XYP26strType_XPT2046_Coordinate+0x9c>
		ucXPT2046_TouchFlag = 0;			
 8004472:	4b69      	ldr	r3, [pc, #420]	; (8004618 <_ZL25XPT2046_ReadAdc_Smooth_XYP26strType_XPT2046_Coordinate+0x23c>)
 8004474:	2200      	movs	r2, #0
 8004476:	701a      	strb	r2, [r3, #0]


	if ( ucCount ==10 )		 					
 8004478:	f897 3047 	ldrb.w	r3, [r7, #71]	; 0x47
 800447c:	2b0a      	cmp	r3, #10
 800447e:	f040 80c4 	bne.w	800460a <_ZL25XPT2046_ReadAdc_Smooth_XYP26strType_XPT2046_Coordinate+0x22e>
	{
		lX_Max = lX_Min = sBufferArray [ 0 ] [ 0 ];
 8004482:	f9b7 3008 	ldrsh.w	r3, [r7, #8]
 8004486:	643b      	str	r3, [r7, #64]	; 0x40
 8004488:	6c3b      	ldr	r3, [r7, #64]	; 0x40
 800448a:	63fb      	str	r3, [r7, #60]	; 0x3c
		lY_Max = lY_Min = sBufferArray [ 1 ] [ 0 ];       
 800448c:	f9b7 301c 	ldrsh.w	r3, [r7, #28]
 8004490:	63bb      	str	r3, [r7, #56]	; 0x38
 8004492:	6bbb      	ldr	r3, [r7, #56]	; 0x38
 8004494:	637b      	str	r3, [r7, #52]	; 0x34
		
		for ( i = 1; i < 10; i ++ )
 8004496:	2301      	movs	r3, #1
 8004498:	f887 3046 	strb.w	r3, [r7, #70]	; 0x46
 800449c:	f897 3046 	ldrb.w	r3, [r7, #70]	; 0x46
 80044a0:	2b09      	cmp	r3, #9
 80044a2:	d82c      	bhi.n	80044fe <_ZL25XPT2046_ReadAdc_Smooth_XYP26strType_XPT2046_Coordinate+0x122>
		{
			if ( sBufferArray [ 0 ] [ i ] < lX_Min )
 80044a4:	f897 3046 	ldrb.w	r3, [r7, #70]	; 0x46
 80044a8:	005b      	lsls	r3, r3, #1
 80044aa:	3348      	adds	r3, #72	; 0x48
 80044ac:	443b      	add	r3, r7
 80044ae:	f933 3c40 	ldrsh.w	r3, [r3, #-64]
 80044b2:	461a      	mov	r2, r3
 80044b4:	6c3b      	ldr	r3, [r7, #64]	; 0x40
 80044b6:	4293      	cmp	r3, r2
 80044b8:	dd08      	ble.n	80044cc <_ZL25XPT2046_ReadAdc_Smooth_XYP26strType_XPT2046_Coordinate+0xf0>
				lX_Min = sBufferArray [ 0 ] [ i ];
 80044ba:	f897 3046 	ldrb.w	r3, [r7, #70]	; 0x46
 80044be:	005b      	lsls	r3, r3, #1
 80044c0:	3348      	adds	r3, #72	; 0x48
 80044c2:	443b      	add	r3, r7
 80044c4:	f933 3c40 	ldrsh.w	r3, [r3, #-64]
 80044c8:	643b      	str	r3, [r7, #64]	; 0x40
 80044ca:	e012      	b.n	80044f2 <_ZL25XPT2046_ReadAdc_Smooth_XYP26strType_XPT2046_Coordinate+0x116>
			
			else if ( sBufferArray [ 0 ] [ i ] > lX_Max )
 80044cc:	f897 3046 	ldrb.w	r3, [r7, #70]	; 0x46
 80044d0:	005b      	lsls	r3, r3, #1
 80044d2:	3348      	adds	r3, #72	; 0x48
 80044d4:	443b      	add	r3, r7
 80044d6:	f933 3c40 	ldrsh.w	r3, [r3, #-64]
 80044da:	461a      	mov	r2, r3
 80044dc:	6bfb      	ldr	r3, [r7, #60]	; 0x3c
 80044de:	4293      	cmp	r3, r2
 80044e0:	da07      	bge.n	80044f2 <_ZL25XPT2046_ReadAdc_Smooth_XYP26strType_XPT2046_Coordinate+0x116>
				lX_Max = sBufferArray [ 0 ] [ i ];
 80044e2:	f897 3046 	ldrb.w	r3, [r7, #70]	; 0x46
 80044e6:	005b      	lsls	r3, r3, #1
 80044e8:	3348      	adds	r3, #72	; 0x48
 80044ea:	443b      	add	r3, r7
 80044ec:	f933 3c40 	ldrsh.w	r3, [r3, #-64]
 80044f0:	63fb      	str	r3, [r7, #60]	; 0x3c
		for ( i = 1; i < 10; i ++ )
 80044f2:	f897 3046 	ldrb.w	r3, [r7, #70]	; 0x46
 80044f6:	3301      	adds	r3, #1
 80044f8:	f887 3046 	strb.w	r3, [r7, #70]	; 0x46
 80044fc:	e7ce      	b.n	800449c <_ZL25XPT2046_ReadAdc_Smooth_XYP26strType_XPT2046_Coordinate+0xc0>

		}
		
		for ( i = 1; i < 10; i ++ )
 80044fe:	2301      	movs	r3, #1
 8004500:	f887 3046 	strb.w	r3, [r7, #70]	; 0x46
 8004504:	f897 3046 	ldrb.w	r3, [r7, #70]	; 0x46
 8004508:	2b09      	cmp	r3, #9
 800450a:	d830      	bhi.n	800456e <_ZL25XPT2046_ReadAdc_Smooth_XYP26strType_XPT2046_Coordinate+0x192>
		{
			if ( sBufferArray [ 1 ] [ i ] < lY_Min )
 800450c:	f897 3046 	ldrb.w	r3, [r7, #70]	; 0x46
 8004510:	330a      	adds	r3, #10
 8004512:	005b      	lsls	r3, r3, #1
 8004514:	3348      	adds	r3, #72	; 0x48
 8004516:	443b      	add	r3, r7
 8004518:	f933 3c40 	ldrsh.w	r3, [r3, #-64]
 800451c:	461a      	mov	r2, r3
 800451e:	6bbb      	ldr	r3, [r7, #56]	; 0x38
 8004520:	4293      	cmp	r3, r2
 8004522:	dd09      	ble.n	8004538 <_ZL25XPT2046_ReadAdc_Smooth_XYP26strType_XPT2046_Coordinate+0x15c>
				lY_Min = sBufferArray [ 1 ] [ i ];
 8004524:	f897 3046 	ldrb.w	r3, [r7, #70]	; 0x46
 8004528:	330a      	adds	r3, #10
 800452a:	005b      	lsls	r3, r3, #1
 800452c:	3348      	adds	r3, #72	; 0x48
 800452e:	443b      	add	r3, r7
 8004530:	f933 3c40 	ldrsh.w	r3, [r3, #-64]
 8004534:	63bb      	str	r3, [r7, #56]	; 0x38
 8004536:	e014      	b.n	8004562 <_ZL25XPT2046_ReadAdc_Smooth_XYP26strType_XPT2046_Coordinate+0x186>
			
			else if ( sBufferArray [ 1 ] [ i ] > lY_Max )
 8004538:	f897 3046 	ldrb.w	r3, [r7, #70]	; 0x46
 800453c:	330a      	adds	r3, #10
 800453e:	005b      	lsls	r3, r3, #1
 8004540:	3348      	adds	r3, #72	; 0x48
 8004542:	443b      	add	r3, r7
 8004544:	f933 3c40 	ldrsh.w	r3, [r3, #-64]
 8004548:	461a      	mov	r2, r3
 800454a:	6b7b      	ldr	r3, [r7, #52]	; 0x34
 800454c:	4293      	cmp	r3, r2
 800454e:	da08      	bge.n	8004562 <_ZL25XPT2046_ReadAdc_Smooth_XYP26strType_XPT2046_Coordinate+0x186>
				lY_Max = sBufferArray [ 1 ] [ i ];
 8004550:	f897 3046 	ldrb.w	r3, [r7, #70]	; 0x46
 8004554:	330a      	adds	r3, #10
 8004556:	005b      	lsls	r3, r3, #1
 8004558:	3348      	adds	r3, #72	; 0x48
 800455a:	443b      	add	r3, r7
 800455c:	f933 3c40 	ldrsh.w	r3, [r3, #-64]
 8004560:	637b      	str	r3, [r7, #52]	; 0x34
		for ( i = 1; i < 10; i ++ )
 8004562:	f897 3046 	ldrb.w	r3, [r7, #70]	; 0x46
 8004566:	3301      	adds	r3, #1
 8004568:	f887 3046 	strb.w	r3, [r7, #70]	; 0x46
 800456c:	e7ca      	b.n	8004504 <_ZL25XPT2046_ReadAdc_Smooth_XYP26strType_XPT2046_Coordinate+0x128>

		}
		

		pScreenCoordinate ->x =  ( sBufferArray [ 0 ] [ 0 ] + sBufferArray [ 0 ] [ 1 ] + sBufferArray [ 0 ] [ 2 ] + sBufferArray [ 0 ] [ 3 ] + sBufferArray [ 0 ] [ 4 ] + 
 800456e:	f9b7 3008 	ldrsh.w	r3, [r7, #8]
 8004572:	461a      	mov	r2, r3
 8004574:	f9b7 300a 	ldrsh.w	r3, [r7, #10]
 8004578:	4413      	add	r3, r2
 800457a:	f9b7 200c 	ldrsh.w	r2, [r7, #12]
 800457e:	4413      	add	r3, r2
 8004580:	f9b7 200e 	ldrsh.w	r2, [r7, #14]
 8004584:	4413      	add	r3, r2
 8004586:	f9b7 2010 	ldrsh.w	r2, [r7, #16]
 800458a:	4413      	add	r3, r2
		                           sBufferArray [ 0 ] [ 5 ] + sBufferArray [ 0 ] [ 6 ] + sBufferArray [ 0 ] [ 7 ] + sBufferArray [ 0 ] [ 8 ] + sBufferArray [ 0 ] [ 9 ] - lX_Min-lX_Max ) >> 3;
 800458c:	f9b7 2012 	ldrsh.w	r2, [r7, #18]
		pScreenCoordinate ->x =  ( sBufferArray [ 0 ] [ 0 ] + sBufferArray [ 0 ] [ 1 ] + sBufferArray [ 0 ] [ 2 ] + sBufferArray [ 0 ] [ 3 ] + sBufferArray [ 0 ] [ 4 ] + 
 8004590:	4413      	add	r3, r2
		                           sBufferArray [ 0 ] [ 5 ] + sBufferArray [ 0 ] [ 6 ] + sBufferArray [ 0 ] [ 7 ] + sBufferArray [ 0 ] [ 8 ] + sBufferArray [ 0 ] [ 9 ] - lX_Min-lX_Max ) >> 3;
 8004592:	f9b7 2014 	ldrsh.w	r2, [r7, #20]
 8004596:	4413      	add	r3, r2
 8004598:	f9b7 2016 	ldrsh.w	r2, [r7, #22]
 800459c:	4413      	add	r3, r2
 800459e:	f9b7 2018 	ldrsh.w	r2, [r7, #24]
 80045a2:	4413      	add	r3, r2
 80045a4:	f9b7 201a 	ldrsh.w	r2, [r7, #26]
 80045a8:	441a      	add	r2, r3
 80045aa:	6c3b      	ldr	r3, [r7, #64]	; 0x40
 80045ac:	1ad2      	subs	r2, r2, r3
 80045ae:	6bfb      	ldr	r3, [r7, #60]	; 0x3c
 80045b0:	1ad3      	subs	r3, r2, r3
 80045b2:	10db      	asrs	r3, r3, #3
		pScreenCoordinate ->x =  ( sBufferArray [ 0 ] [ 0 ] + sBufferArray [ 0 ] [ 1 ] + sBufferArray [ 0 ] [ 2 ] + sBufferArray [ 0 ] [ 3 ] + sBufferArray [ 0 ] [ 4 ] + 
 80045b4:	b29a      	uxth	r2, r3
 80045b6:	687b      	ldr	r3, [r7, #4]
 80045b8:	801a      	strh	r2, [r3, #0]
		
		pScreenCoordinate ->y =  ( sBufferArray [ 1 ] [ 0 ] + sBufferArray [ 1 ] [ 1 ] + sBufferArray [ 1 ] [ 2 ] + sBufferArray [ 1 ] [ 3 ] + sBufferArray [ 1 ] [ 4 ] + 
 80045ba:	f9b7 301c 	ldrsh.w	r3, [r7, #28]
 80045be:	461a      	mov	r2, r3
 80045c0:	f9b7 301e 	ldrsh.w	r3, [r7, #30]
 80045c4:	4413      	add	r3, r2
 80045c6:	f9b7 2020 	ldrsh.w	r2, [r7, #32]
 80045ca:	4413      	add	r3, r2
 80045cc:	f9b7 2022 	ldrsh.w	r2, [r7, #34]	; 0x22
 80045d0:	4413      	add	r3, r2
 80045d2:	f9b7 2024 	ldrsh.w	r2, [r7, #36]	; 0x24
 80045d6:	4413      	add	r3, r2
		                           sBufferArray [ 1 ] [ 5 ] + sBufferArray [ 1 ] [ 6 ] + sBufferArray [ 1 ] [ 7 ] + sBufferArray [ 1 ] [ 8 ] + sBufferArray [ 1 ] [ 9 ] - lY_Min-lY_Max ) >> 3; 
 80045d8:	f9b7 2026 	ldrsh.w	r2, [r7, #38]	; 0x26
		pScreenCoordinate ->y =  ( sBufferArray [ 1 ] [ 0 ] + sBufferArray [ 1 ] [ 1 ] + sBufferArray [ 1 ] [ 2 ] + sBufferArray [ 1 ] [ 3 ] + sBufferArray [ 1 ] [ 4 ] + 
 80045dc:	4413      	add	r3, r2
		                           sBufferArray [ 1 ] [ 5 ] + sBufferArray [ 1 ] [ 6 ] + sBufferArray [ 1 ] [ 7 ] + sBufferArray [ 1 ] [ 8 ] + sBufferArray [ 1 ] [ 9 ] - lY_Min-lY_Max ) >> 3; 
 80045de:	f9b7 2028 	ldrsh.w	r2, [r7, #40]	; 0x28
 80045e2:	4413      	add	r3, r2
 80045e4:	f9b7 202a 	ldrsh.w	r2, [r7, #42]	; 0x2a
 80045e8:	4413      	add	r3, r2
 80045ea:	f9b7 202c 	ldrsh.w	r2, [r7, #44]	; 0x2c
 80045ee:	4413      	add	r3, r2
 80045f0:	f9b7 202e 	ldrsh.w	r2, [r7, #46]	; 0x2e
 80045f4:	441a      	add	r2, r3
 80045f6:	6bbb      	ldr	r3, [r7, #56]	; 0x38
 80045f8:	1ad2      	subs	r2, r2, r3
 80045fa:	6b7b      	ldr	r3, [r7, #52]	; 0x34
 80045fc:	1ad3      	subs	r3, r2, r3
 80045fe:	10db      	asrs	r3, r3, #3
		pScreenCoordinate ->y =  ( sBufferArray [ 1 ] [ 0 ] + sBufferArray [ 1 ] [ 1 ] + sBufferArray [ 1 ] [ 2 ] + sBufferArray [ 1 ] [ 3 ] + sBufferArray [ 1 ] [ 4 ] + 
 8004600:	b29a      	uxth	r2, r3
 8004602:	687b      	ldr	r3, [r7, #4]
 8004604:	805a      	strh	r2, [r3, #2]
		
		
		return 1;
 8004606:	2301      	movs	r3, #1
 8004608:	e000      	b.n	800460c <_ZL25XPT2046_ReadAdc_Smooth_XYP26strType_XPT2046_Coordinate+0x230>
		

	}   
	
	
	return 0;    
 800460a:	2300      	movs	r3, #0
	
	
}
 800460c:	4618      	mov	r0, r3
 800460e:	3748      	adds	r7, #72	; 0x48
 8004610:	46bd      	mov	sp, r7
 8004612:	bd80      	pop	{r7, pc}
 8004614:	40011800 	.word	0x40011800
 8004618:	200001b8 	.word	0x200001b8

0800461c <_Z24XPT2046_Get_TouchedPointP26strType_XPT2046_CoordinateP25strType_XPT2046_TouchPara>:
//}

   

uint8_t XPT2046_Get_TouchedPoint ( strType_XPT2046_Coordinate * pDisplayCoordinate, strType_XPT2046_TouchPara * pTouchPara )
{
 800461c:	e92d 43b0 	stmdb	sp!, {r4, r5, r7, r8, r9, lr}
 8004620:	b084      	sub	sp, #16
 8004622:	af00      	add	r7, sp, #0
 8004624:	6078      	str	r0, [r7, #4]
 8004626:	6039      	str	r1, [r7, #0]
	uint8_t ucRet = 1;           
 8004628:	2301      	movs	r3, #1
 800462a:	73fb      	strb	r3, [r7, #15]
	
	strType_XPT2046_Coordinate strScreenCoordinate; 
	

  if ( XPT2046_ReadAdc_Smooth_XY ( & strScreenCoordinate ) )
 800462c:	f107 0308 	add.w	r3, r7, #8
 8004630:	4618      	mov	r0, r3
 8004632:	f7ff fed3 	bl	80043dc <_ZL25XPT2046_ReadAdc_Smooth_XYP26strType_XPT2046_Coordinate>
 8004636:	4603      	mov	r3, r0
 8004638:	2b00      	cmp	r3, #0
 800463a:	bf14      	ite	ne
 800463c:	2301      	movne	r3, #1
 800463e:	2300      	moveq	r3, #0
 8004640:	b2db      	uxtb	r3, r3
 8004642:	2b00      	cmp	r3, #0
 8004644:	d06e      	beq.n	8004724 <_Z24XPT2046_Get_TouchedPointP26strType_XPT2046_CoordinateP25strType_XPT2046_TouchPara+0x108>
  {    
		pDisplayCoordinate ->x = ( ( pTouchPara ->dX_X * strScreenCoordinate .x ) + ( pTouchPara ->dX_Y * strScreenCoordinate .y ) + pTouchPara ->dX );        
 8004646:	683b      	ldr	r3, [r7, #0]
 8004648:	e9d3 4500 	ldrd	r4, r5, [r3]
 800464c:	893b      	ldrh	r3, [r7, #8]
 800464e:	4618      	mov	r0, r3
 8004650:	f7fc f864 	bl	800071c <__aeabi_i2d>
 8004654:	4602      	mov	r2, r0
 8004656:	460b      	mov	r3, r1
 8004658:	4620      	mov	r0, r4
 800465a:	4629      	mov	r1, r5
 800465c:	f7fb fde2 	bl	8000224 <__aeabi_dmul>
 8004660:	4602      	mov	r2, r0
 8004662:	460b      	mov	r3, r1
 8004664:	4690      	mov	r8, r2
 8004666:	4699      	mov	r9, r3
 8004668:	683b      	ldr	r3, [r7, #0]
 800466a:	e9d3 4502 	ldrd	r4, r5, [r3, #8]
 800466e:	897b      	ldrh	r3, [r7, #10]
 8004670:	4618      	mov	r0, r3
 8004672:	f7fc f853 	bl	800071c <__aeabi_i2d>
 8004676:	4602      	mov	r2, r0
 8004678:	460b      	mov	r3, r1
 800467a:	4620      	mov	r0, r4
 800467c:	4629      	mov	r1, r5
 800467e:	f7fb fdd1 	bl	8000224 <__aeabi_dmul>
 8004682:	4602      	mov	r2, r0
 8004684:	460b      	mov	r3, r1
 8004686:	4640      	mov	r0, r8
 8004688:	4649      	mov	r1, r9
 800468a:	f7fb fefb 	bl	8000484 <__adddf3>
 800468e:	4602      	mov	r2, r0
 8004690:	460b      	mov	r3, r1
 8004692:	4610      	mov	r0, r2
 8004694:	4619      	mov	r1, r3
 8004696:	683b      	ldr	r3, [r7, #0]
 8004698:	e9d3 2304 	ldrd	r2, r3, [r3, #16]
 800469c:	f7fb fef2 	bl	8000484 <__adddf3>
 80046a0:	4602      	mov	r2, r0
 80046a2:	460b      	mov	r3, r1
 80046a4:	4610      	mov	r0, r2
 80046a6:	4619      	mov	r1, r3
 80046a8:	f7fc f92a 	bl	8000900 <__aeabi_d2uiz>
 80046ac:	4603      	mov	r3, r0
 80046ae:	b29a      	uxth	r2, r3
 80046b0:	687b      	ldr	r3, [r7, #4]
 80046b2:	801a      	strh	r2, [r3, #0]
		pDisplayCoordinate ->y = ( ( pTouchPara ->dY_X * strScreenCoordinate .x ) + ( pTouchPara ->dY_Y * strScreenCoordinate .y ) + pTouchPara ->dY );
 80046b4:	683b      	ldr	r3, [r7, #0]
 80046b6:	e9d3 4506 	ldrd	r4, r5, [r3, #24]
 80046ba:	893b      	ldrh	r3, [r7, #8]
 80046bc:	4618      	mov	r0, r3
 80046be:	f7fc f82d 	bl	800071c <__aeabi_i2d>
 80046c2:	4602      	mov	r2, r0
 80046c4:	460b      	mov	r3, r1
 80046c6:	4620      	mov	r0, r4
 80046c8:	4629      	mov	r1, r5
 80046ca:	f7fb fdab 	bl	8000224 <__aeabi_dmul>
 80046ce:	4602      	mov	r2, r0
 80046d0:	460b      	mov	r3, r1
 80046d2:	4690      	mov	r8, r2
 80046d4:	4699      	mov	r9, r3
 80046d6:	683b      	ldr	r3, [r7, #0]
 80046d8:	e9d3 4508 	ldrd	r4, r5, [r3, #32]
 80046dc:	897b      	ldrh	r3, [r7, #10]
 80046de:	4618      	mov	r0, r3
 80046e0:	f7fc f81c 	bl	800071c <__aeabi_i2d>
 80046e4:	4602      	mov	r2, r0
 80046e6:	460b      	mov	r3, r1
 80046e8:	4620      	mov	r0, r4
 80046ea:	4629      	mov	r1, r5
 80046ec:	f7fb fd9a 	bl	8000224 <__aeabi_dmul>
 80046f0:	4602      	mov	r2, r0
 80046f2:	460b      	mov	r3, r1
 80046f4:	4640      	mov	r0, r8
 80046f6:	4649      	mov	r1, r9
 80046f8:	f7fb fec4 	bl	8000484 <__adddf3>
 80046fc:	4602      	mov	r2, r0
 80046fe:	460b      	mov	r3, r1
 8004700:	4610      	mov	r0, r2
 8004702:	4619      	mov	r1, r3
 8004704:	683b      	ldr	r3, [r7, #0]
 8004706:	e9d3 230a 	ldrd	r2, r3, [r3, #40]	; 0x28
 800470a:	f7fb febb 	bl	8000484 <__adddf3>
 800470e:	4602      	mov	r2, r0
 8004710:	460b      	mov	r3, r1
 8004712:	4610      	mov	r0, r2
 8004714:	4619      	mov	r1, r3
 8004716:	f7fc f8f3 	bl	8000900 <__aeabi_d2uiz>
 800471a:	4603      	mov	r3, r0
 800471c:	b29a      	uxth	r2, r3
 800471e:	687b      	ldr	r3, [r7, #4]
 8004720:	805a      	strh	r2, [r3, #2]
 8004722:	e001      	b.n	8004728 <_Z24XPT2046_Get_TouchedPointP26strType_XPT2046_CoordinateP25strType_XPT2046_TouchPara+0x10c>

  }
	 
	else ucRet = 0;            
 8004724:	2300      	movs	r3, #0
 8004726:	73fb      	strb	r3, [r7, #15]
	
	return ucRet;
 8004728:	7bfb      	ldrb	r3, [r7, #15]
	
	
} 
 800472a:	4618      	mov	r0, r3
 800472c:	3710      	adds	r7, #16
 800472e:	46bd      	mov	sp, r7
 8004730:	e8bd 83b0 	ldmia.w	sp!, {r4, r5, r7, r8, r9, pc}

08004734 <Reset_Handler>:
  .weak Reset_Handler
  .type Reset_Handler, %function
Reset_Handler:

/* Call the clock system initialization function.*/
    bl  SystemInit
 8004734:	f7ff fd7a 	bl	800422c <SystemInit>

/* Copy the data segment initializers from flash to SRAM */
  ldr r0, =_sdata
 8004738:	480b      	ldr	r0, [pc, #44]	; (8004768 <LoopFillZerobss+0xe>)
  ldr r1, =_edata
 800473a:	490c      	ldr	r1, [pc, #48]	; (800476c <LoopFillZerobss+0x12>)
  ldr r2, =_sidata
 800473c:	4a0c      	ldr	r2, [pc, #48]	; (8004770 <LoopFillZerobss+0x16>)
  movs r3, #0
 800473e:	2300      	movs	r3, #0
  b LoopCopyDataInit
 8004740:	e002      	b.n	8004748 <LoopCopyDataInit>

08004742 <CopyDataInit>:

CopyDataInit:
  ldr r4, [r2, r3]
 8004742:	58d4      	ldr	r4, [r2, r3]
  str r4, [r0, r3]
 8004744:	50c4      	str	r4, [r0, r3]
  adds r3, r3, #4
 8004746:	3304      	adds	r3, #4

08004748 <LoopCopyDataInit>:

LoopCopyDataInit:
  adds r4, r0, r3
 8004748:	18c4      	adds	r4, r0, r3
  cmp r4, r1
 800474a:	428c      	cmp	r4, r1
  bcc CopyDataInit
 800474c:	d3f9      	bcc.n	8004742 <CopyDataInit>
  
/* Zero fill the bss segment. */
  ldr r2, =_sbss
 800474e:	4a09      	ldr	r2, [pc, #36]	; (8004774 <LoopFillZerobss+0x1a>)
  ldr r4, =_ebss
 8004750:	4c09      	ldr	r4, [pc, #36]	; (8004778 <LoopFillZerobss+0x1e>)
  movs r3, #0
 8004752:	2300      	movs	r3, #0
  b LoopFillZerobss
 8004754:	e001      	b.n	800475a <LoopFillZerobss>

08004756 <FillZerobss>:

FillZerobss:
  str  r3, [r2]
 8004756:	6013      	str	r3, [r2, #0]
  adds r2, r2, #4
 8004758:	3204      	adds	r2, #4

0800475a <LoopFillZerobss>:

LoopFillZerobss:
  cmp r2, r4
 800475a:	42a2      	cmp	r2, r4
  bcc FillZerobss
 800475c:	d3fb      	bcc.n	8004756 <FillZerobss>

/* Call static constructors */
    bl __libc_init_array
 800475e:	f002 fdd3 	bl	8007308 <__libc_init_array>
/* Call the application's entry point.*/
  bl main
 8004762:	f7ff f863 	bl	800382c <main>
  bx lr
 8004766:	4770      	bx	lr
  ldr r0, =_sdata
 8004768:	20000000 	.word	0x20000000
  ldr r1, =_edata
 800476c:	200000a4 	.word	0x200000a4
  ldr r2, =_sidata
 8004770:	08008400 	.word	0x08008400
  ldr r2, =_sbss
 8004774:	200000a4 	.word	0x200000a4
  ldr r4, =_ebss
 8004778:	200001d0 	.word	0x200001d0

0800477c <ADC1_2_IRQHandler>:
 * @retval : None
*/
    .section .text.Default_Handler,"ax",%progbits
Default_Handler:
Infinite_Loop:
  b Infinite_Loop
 800477c:	e7fe      	b.n	800477c <ADC1_2_IRQHandler>
	...

08004780 <HAL_Init>:
  *         need to ensure that the SysTick time base is always set to 1 millisecond
  *         to have correct HAL operation.
  * @retval HAL status
  */
HAL_StatusTypeDef HAL_Init(void)
{
 8004780:	b580      	push	{r7, lr}
 8004782:	af00      	add	r7, sp, #0
    defined(STM32F102x6) || defined(STM32F102xB) || \
    defined(STM32F103x6) || defined(STM32F103xB) || defined(STM32F103xE) || defined(STM32F103xG) || \
    defined(STM32F105xC) || defined(STM32F107xC)

  /* Prefetch buffer is not available on value line devices */
  __HAL_FLASH_PREFETCH_BUFFER_ENABLE();
 8004784:	4b08      	ldr	r3, [pc, #32]	; (80047a8 <HAL_Init+0x28>)
 8004786:	681b      	ldr	r3, [r3, #0]
 8004788:	4a07      	ldr	r2, [pc, #28]	; (80047a8 <HAL_Init+0x28>)
 800478a:	f043 0310 	orr.w	r3, r3, #16
 800478e:	6013      	str	r3, [r2, #0]
#endif
#endif /* PREFETCH_ENABLE */

  /* Set Interrupt Group Priority */
  HAL_NVIC_SetPriorityGrouping(NVIC_PRIORITYGROUP_4);
 8004790:	2003      	movs	r0, #3
 8004792:	f000 fe33 	bl	80053fc <HAL_NVIC_SetPriorityGrouping>

  /* Use systick as time base source and configure 1ms tick (default clock after Reset is HSI) */
  HAL_InitTick(TICK_INT_PRIORITY);
 8004796:	200f      	movs	r0, #15
 8004798:	f000 f808 	bl	80047ac <HAL_InitTick>

  /* Init the low level hardware */
  HAL_MspInit();
 800479c:	f7ff fb66 	bl	8003e6c <HAL_MspInit>

  /* Return function status */
  return HAL_OK;
 80047a0:	2300      	movs	r3, #0
}
 80047a2:	4618      	mov	r0, r3
 80047a4:	bd80      	pop	{r7, pc}
 80047a6:	bf00      	nop
 80047a8:	40022000 	.word	0x40022000

080047ac <HAL_InitTick>:
  *       implementation  in user file.
  * @param TickPriority Tick interrupt priority.
  * @retval HAL status
  */
__weak HAL_StatusTypeDef HAL_InitTick(uint32_t TickPriority)
{
 80047ac:	b580      	push	{r7, lr}
 80047ae:	b082      	sub	sp, #8
 80047b0:	af00      	add	r7, sp, #0
 80047b2:	6078      	str	r0, [r7, #4]
  /* Configure the SysTick to have interrupt in 1ms time basis*/
  if (HAL_SYSTICK_Config(SystemCoreClock / (1000U / uwTickFreq)) > 0U)
 80047b4:	4b12      	ldr	r3, [pc, #72]	; (8004800 <HAL_InitTick+0x54>)
 80047b6:	681a      	ldr	r2, [r3, #0]
 80047b8:	4b12      	ldr	r3, [pc, #72]	; (8004804 <HAL_InitTick+0x58>)
 80047ba:	781b      	ldrb	r3, [r3, #0]
 80047bc:	4619      	mov	r1, r3
 80047be:	f44f 737a 	mov.w	r3, #1000	; 0x3e8
 80047c2:	fbb3 f3f1 	udiv	r3, r3, r1
 80047c6:	fbb2 f3f3 	udiv	r3, r2, r3
 80047ca:	4618      	mov	r0, r3
 80047cc:	f000 fe4b 	bl	8005466 <HAL_SYSTICK_Config>
 80047d0:	4603      	mov	r3, r0
 80047d2:	2b00      	cmp	r3, #0
 80047d4:	d001      	beq.n	80047da <HAL_InitTick+0x2e>
  {
    return HAL_ERROR;
 80047d6:	2301      	movs	r3, #1
 80047d8:	e00e      	b.n	80047f8 <HAL_InitTick+0x4c>
  }

  /* Configure the SysTick IRQ priority */
  if (TickPriority < (1UL << __NVIC_PRIO_BITS))
 80047da:	687b      	ldr	r3, [r7, #4]
 80047dc:	2b0f      	cmp	r3, #15
 80047de:	d80a      	bhi.n	80047f6 <HAL_InitTick+0x4a>
  {
    HAL_NVIC_SetPriority(SysTick_IRQn, TickPriority, 0U);
 80047e0:	2200      	movs	r2, #0
 80047e2:	6879      	ldr	r1, [r7, #4]
 80047e4:	f04f 30ff 	mov.w	r0, #4294967295
 80047e8:	f000 fe13 	bl	8005412 <HAL_NVIC_SetPriority>
    uwTickPrio = TickPriority;
 80047ec:	4a06      	ldr	r2, [pc, #24]	; (8004808 <HAL_InitTick+0x5c>)
 80047ee:	687b      	ldr	r3, [r7, #4]
 80047f0:	6013      	str	r3, [r2, #0]
  {
    return HAL_ERROR;
  }

  /* Return function status */
  return HAL_OK;
 80047f2:	2300      	movs	r3, #0
 80047f4:	e000      	b.n	80047f8 <HAL_InitTick+0x4c>
    return HAL_ERROR;
 80047f6:	2301      	movs	r3, #1
}
 80047f8:	4618      	mov	r0, r3
 80047fa:	3708      	adds	r7, #8
 80047fc:	46bd      	mov	sp, r7
 80047fe:	bd80      	pop	{r7, pc}
 8004800:	20000000 	.word	0x20000000
 8004804:	2000003c 	.word	0x2000003c
 8004808:	20000038 	.word	0x20000038

0800480c <HAL_IncTick>:
  * @note This function is declared as __weak to be overwritten in case of other
  *      implementations in user file.
  * @retval None
  */
__weak void HAL_IncTick(void)
{
 800480c:	b480      	push	{r7}
 800480e:	af00      	add	r7, sp, #0
  uwTick += uwTickFreq;
 8004810:	4b05      	ldr	r3, [pc, #20]	; (8004828 <HAL_IncTick+0x1c>)
 8004812:	781b      	ldrb	r3, [r3, #0]
 8004814:	461a      	mov	r2, r3
 8004816:	4b05      	ldr	r3, [pc, #20]	; (800482c <HAL_IncTick+0x20>)
 8004818:	681b      	ldr	r3, [r3, #0]
 800481a:	4413      	add	r3, r2
 800481c:	4a03      	ldr	r2, [pc, #12]	; (800482c <HAL_IncTick+0x20>)
 800481e:	6013      	str	r3, [r2, #0]
}
 8004820:	bf00      	nop
 8004822:	46bd      	mov	sp, r7
 8004824:	bc80      	pop	{r7}
 8004826:	4770      	bx	lr
 8004828:	2000003c 	.word	0x2000003c
 800482c:	200001bc 	.word	0x200001bc

08004830 <HAL_GetTick>:
  * @note  This function is declared as __weak to be overwritten in case of other
  *       implementations in user file.
  * @retval tick value
  */
__weak uint32_t HAL_GetTick(void)
{
 8004830:	b480      	push	{r7}
 8004832:	af00      	add	r7, sp, #0
  return uwTick;
 8004834:	4b02      	ldr	r3, [pc, #8]	; (8004840 <HAL_GetTick+0x10>)
 8004836:	681b      	ldr	r3, [r3, #0]
}
 8004838:	4618      	mov	r0, r3
 800483a:	46bd      	mov	sp, r7
 800483c:	bc80      	pop	{r7}
 800483e:	4770      	bx	lr
 8004840:	200001bc 	.word	0x200001bc

08004844 <HAL_Delay>:
  *       implementations in user file.
  * @param Delay specifies the delay time length, in milliseconds.
  * @retval None
  */
__weak void HAL_Delay(uint32_t Delay)
{
 8004844:	b580      	push	{r7, lr}
 8004846:	b084      	sub	sp, #16
 8004848:	af00      	add	r7, sp, #0
 800484a:	6078      	str	r0, [r7, #4]
  uint32_t tickstart = HAL_GetTick();
 800484c:	f7ff fff0 	bl	8004830 <HAL_GetTick>
 8004850:	60b8      	str	r0, [r7, #8]
  uint32_t wait = Delay;
 8004852:	687b      	ldr	r3, [r7, #4]
 8004854:	60fb      	str	r3, [r7, #12]

  /* Add a freq to guarantee minimum wait */
  if (wait < HAL_MAX_DELAY)
 8004856:	68fb      	ldr	r3, [r7, #12]
 8004858:	f1b3 3fff 	cmp.w	r3, #4294967295
 800485c:	d005      	beq.n	800486a <HAL_Delay+0x26>
  {
    wait += (uint32_t)(uwTickFreq);
 800485e:	4b0a      	ldr	r3, [pc, #40]	; (8004888 <HAL_Delay+0x44>)
 8004860:	781b      	ldrb	r3, [r3, #0]
 8004862:	461a      	mov	r2, r3
 8004864:	68fb      	ldr	r3, [r7, #12]
 8004866:	4413      	add	r3, r2
 8004868:	60fb      	str	r3, [r7, #12]
  }

  while ((HAL_GetTick() - tickstart) < wait)
 800486a:	bf00      	nop
 800486c:	f7ff ffe0 	bl	8004830 <HAL_GetTick>
 8004870:	4602      	mov	r2, r0
 8004872:	68bb      	ldr	r3, [r7, #8]
 8004874:	1ad3      	subs	r3, r2, r3
 8004876:	68fa      	ldr	r2, [r7, #12]
 8004878:	429a      	cmp	r2, r3
 800487a:	d8f7      	bhi.n	800486c <HAL_Delay+0x28>
  {
  }
}
 800487c:	bf00      	nop
 800487e:	bf00      	nop
 8004880:	3710      	adds	r7, #16
 8004882:	46bd      	mov	sp, r7
 8004884:	bd80      	pop	{r7, pc}
 8004886:	bf00      	nop
 8004888:	2000003c 	.word	0x2000003c

0800488c <HAL_ADC_Init>:
  *         of structure "ADC_InitTypeDef".
  * @param  hadc: ADC handle
  * @retval HAL status
  */
HAL_StatusTypeDef HAL_ADC_Init(ADC_HandleTypeDef* hadc)
{
 800488c:	b580      	push	{r7, lr}
 800488e:	b086      	sub	sp, #24
 8004890:	af00      	add	r7, sp, #0
 8004892:	6078      	str	r0, [r7, #4]
  HAL_StatusTypeDef tmp_hal_status = HAL_OK;
 8004894:	2300      	movs	r3, #0
 8004896:	75fb      	strb	r3, [r7, #23]
  uint32_t tmp_cr1 = 0U;
 8004898:	2300      	movs	r3, #0
 800489a:	613b      	str	r3, [r7, #16]
  uint32_t tmp_cr2 = 0U;
 800489c:	2300      	movs	r3, #0
 800489e:	60bb      	str	r3, [r7, #8]
  uint32_t tmp_sqr1 = 0U;
 80048a0:	2300      	movs	r3, #0
 80048a2:	60fb      	str	r3, [r7, #12]
  
  /* Check ADC handle */
  if(hadc == NULL)
 80048a4:	687b      	ldr	r3, [r7, #4]
 80048a6:	2b00      	cmp	r3, #0
 80048a8:	d101      	bne.n	80048ae <HAL_ADC_Init+0x22>
  {
    return HAL_ERROR;
 80048aa:	2301      	movs	r3, #1
 80048ac:	e0ce      	b.n	8004a4c <HAL_ADC_Init+0x1c0>
  assert_param(IS_ADC_DATA_ALIGN(hadc->Init.DataAlign));
  assert_param(IS_ADC_SCAN_MODE(hadc->Init.ScanConvMode));
  assert_param(IS_FUNCTIONAL_STATE(hadc->Init.ContinuousConvMode));
  assert_param(IS_ADC_EXTTRIG(hadc->Init.ExternalTrigConv));
  
  if(hadc->Init.ScanConvMode != ADC_SCAN_DISABLE)
 80048ae:	687b      	ldr	r3, [r7, #4]
 80048b0:	689b      	ldr	r3, [r3, #8]
 80048b2:	2b00      	cmp	r3, #0
  /* Refer to header of this file for more details on clock enabling          */
  /* procedure.                                                               */

  /* Actions performed only if ADC is coming from state reset:                */
  /* - Initialization of ADC MSP                                              */
  if (hadc->State == HAL_ADC_STATE_RESET)
 80048b4:	687b      	ldr	r3, [r7, #4]
 80048b6:	6a9b      	ldr	r3, [r3, #40]	; 0x28
 80048b8:	2b00      	cmp	r3, #0
 80048ba:	d109      	bne.n	80048d0 <HAL_ADC_Init+0x44>
  {
    /* Initialize ADC error code */
    ADC_CLEAR_ERRORCODE(hadc);
 80048bc:	687b      	ldr	r3, [r7, #4]
 80048be:	2200      	movs	r2, #0
 80048c0:	62da      	str	r2, [r3, #44]	; 0x2c
    
    /* Allocate lock resource and initialize it */
    hadc->Lock = HAL_UNLOCKED;
 80048c2:	687b      	ldr	r3, [r7, #4]
 80048c4:	2200      	movs	r2, #0
 80048c6:	f883 2024 	strb.w	r2, [r3, #36]	; 0x24
    
    /* Init the low level hardware */
    hadc->MspInitCallback(hadc);
#else
    /* Init the low level hardware */
    HAL_ADC_MspInit(hadc);
 80048ca:	6878      	ldr	r0, [r7, #4]
 80048cc:	f7ff fb00 	bl	8003ed0 <HAL_ADC_MspInit>
  /* Stop potential conversion on going, on regular and injected groups */
  /* Disable ADC peripheral */
  /* Note: In case of ADC already enabled, precaution to not launch an        */
  /*       unwanted conversion while modifying register CR2 by writing 1 to   */
  /*       bit ADON.                                                          */
  tmp_hal_status = ADC_ConversionStop_Disable(hadc);
 80048d0:	6878      	ldr	r0, [r7, #4]
 80048d2:	f000 fbd7 	bl	8005084 <ADC_ConversionStop_Disable>
 80048d6:	4603      	mov	r3, r0
 80048d8:	75fb      	strb	r3, [r7, #23]
  
  
  /* Configuration of ADC parameters if previous preliminary actions are      */ 
  /* correctly completed.                                                     */
  if (HAL_IS_BIT_CLR(hadc->State, HAL_ADC_STATE_ERROR_INTERNAL) &&
 80048da:	687b      	ldr	r3, [r7, #4]
 80048dc:	6a9b      	ldr	r3, [r3, #40]	; 0x28
 80048de:	f003 0310 	and.w	r3, r3, #16
 80048e2:	2b00      	cmp	r3, #0
 80048e4:	f040 80a9 	bne.w	8004a3a <HAL_ADC_Init+0x1ae>
 80048e8:	7dfb      	ldrb	r3, [r7, #23]
 80048ea:	2b00      	cmp	r3, #0
 80048ec:	f040 80a5 	bne.w	8004a3a <HAL_ADC_Init+0x1ae>
      (tmp_hal_status == HAL_OK)                                  )
  {
    /* Set ADC state */
    ADC_STATE_CLR_SET(hadc->State,
 80048f0:	687b      	ldr	r3, [r7, #4]
 80048f2:	6a9b      	ldr	r3, [r3, #40]	; 0x28
 80048f4:	f423 5388 	bic.w	r3, r3, #4352	; 0x1100
 80048f8:	f023 0302 	bic.w	r3, r3, #2
 80048fc:	f043 0202 	orr.w	r2, r3, #2
 8004900:	687b      	ldr	r3, [r7, #4]
 8004902:	629a      	str	r2, [r3, #40]	; 0x28
    /*  - continuous conversion mode                                          */
    /* Note: External trigger polarity (ADC_CR2_EXTTRIG) is set into          */
    /*       HAL_ADC_Start_xxx functions because if set in this function,     */
    /*       a conversion on injected group would start a conversion also on  */
    /*       regular group after ADC enabling.                                */
    tmp_cr2 |= (hadc->Init.DataAlign                                          |
 8004904:	687b      	ldr	r3, [r7, #4]
 8004906:	685a      	ldr	r2, [r3, #4]
                ADC_CFGR_EXTSEL(hadc, hadc->Init.ExternalTrigConv)            |
 8004908:	687b      	ldr	r3, [r7, #4]
 800490a:	681b      	ldr	r3, [r3, #0]
 800490c:	4951      	ldr	r1, [pc, #324]	; (8004a54 <HAL_ADC_Init+0x1c8>)
 800490e:	428b      	cmp	r3, r1
 8004910:	d10a      	bne.n	8004928 <HAL_ADC_Init+0x9c>
 8004912:	687b      	ldr	r3, [r7, #4]
 8004914:	69db      	ldr	r3, [r3, #28]
 8004916:	f5b3 2f40 	cmp.w	r3, #786432	; 0xc0000
 800491a:	d002      	beq.n	8004922 <HAL_ADC_Init+0x96>
 800491c:	687b      	ldr	r3, [r7, #4]
 800491e:	69db      	ldr	r3, [r3, #28]
 8004920:	e004      	b.n	800492c <HAL_ADC_Init+0xa0>
 8004922:	f44f 2300 	mov.w	r3, #524288	; 0x80000
 8004926:	e001      	b.n	800492c <HAL_ADC_Init+0xa0>
 8004928:	687b      	ldr	r3, [r7, #4]
 800492a:	69db      	ldr	r3, [r3, #28]
    tmp_cr2 |= (hadc->Init.DataAlign                                          |
 800492c:	431a      	orrs	r2, r3
                ADC_CR2_CONTINUOUS((uint32_t)hadc->Init.ContinuousConvMode)   );
 800492e:	687b      	ldr	r3, [r7, #4]
 8004930:	7b1b      	ldrb	r3, [r3, #12]
 8004932:	005b      	lsls	r3, r3, #1
                ADC_CFGR_EXTSEL(hadc, hadc->Init.ExternalTrigConv)            |
 8004934:	4313      	orrs	r3, r2
    tmp_cr2 |= (hadc->Init.DataAlign                                          |
 8004936:	68ba      	ldr	r2, [r7, #8]
 8004938:	4313      	orrs	r3, r2
 800493a:	60bb      	str	r3, [r7, #8]

    /* Configuration of ADC:                                                  */
    /*  - scan mode                                                           */
    /*  - discontinuous mode disable/enable                                   */
    /*  - discontinuous mode number of conversions                            */
    tmp_cr1 |= (ADC_CR1_SCAN_SET(hadc->Init.ScanConvMode));
 800493c:	687b      	ldr	r3, [r7, #4]
 800493e:	689b      	ldr	r3, [r3, #8]
 8004940:	f5b3 7f80 	cmp.w	r3, #256	; 0x100
 8004944:	d003      	beq.n	800494e <HAL_ADC_Init+0xc2>
 8004946:	687b      	ldr	r3, [r7, #4]
 8004948:	689b      	ldr	r3, [r3, #8]
 800494a:	2b01      	cmp	r3, #1
 800494c:	d102      	bne.n	8004954 <HAL_ADC_Init+0xc8>
 800494e:	f44f 7380 	mov.w	r3, #256	; 0x100
 8004952:	e000      	b.n	8004956 <HAL_ADC_Init+0xca>
 8004954:	2300      	movs	r3, #0
 8004956:	693a      	ldr	r2, [r7, #16]
 8004958:	4313      	orrs	r3, r2
 800495a:	613b      	str	r3, [r7, #16]
    
    /* Enable discontinuous mode only if continuous mode is disabled */
    /* Note: If parameter "Init.ScanConvMode" is set to disable, parameter    */
    /*       discontinuous is set anyway, but will have no effect on ADC HW.  */
    if (hadc->Init.DiscontinuousConvMode == ENABLE)
 800495c:	687b      	ldr	r3, [r7, #4]
 800495e:	7d1b      	ldrb	r3, [r3, #20]
 8004960:	2b01      	cmp	r3, #1
 8004962:	d119      	bne.n	8004998 <HAL_ADC_Init+0x10c>
    {
      if (hadc->Init.ContinuousConvMode == DISABLE)
 8004964:	687b      	ldr	r3, [r7, #4]
 8004966:	7b1b      	ldrb	r3, [r3, #12]
 8004968:	2b00      	cmp	r3, #0
 800496a:	d109      	bne.n	8004980 <HAL_ADC_Init+0xf4>
      {
        /* Enable the selected ADC regular discontinuous mode */
        /* Set the number of channels to be converted in discontinuous mode */
        SET_BIT(tmp_cr1, ADC_CR1_DISCEN                                            |
 800496c:	687b      	ldr	r3, [r7, #4]
 800496e:	699b      	ldr	r3, [r3, #24]
 8004970:	3b01      	subs	r3, #1
 8004972:	035a      	lsls	r2, r3, #13
 8004974:	693b      	ldr	r3, [r7, #16]
 8004976:	4313      	orrs	r3, r2
 8004978:	f443 6300 	orr.w	r3, r3, #2048	; 0x800
 800497c:	613b      	str	r3, [r7, #16]
 800497e:	e00b      	b.n	8004998 <HAL_ADC_Init+0x10c>
      {
        /* ADC regular group settings continuous and sequencer discontinuous*/
        /* cannot be enabled simultaneously.                                */
        
        /* Update ADC state machine to error */
        SET_BIT(hadc->State, HAL_ADC_STATE_ERROR_CONFIG);
 8004980:	687b      	ldr	r3, [r7, #4]
 8004982:	6a9b      	ldr	r3, [r3, #40]	; 0x28
 8004984:	f043 0220 	orr.w	r2, r3, #32
 8004988:	687b      	ldr	r3, [r7, #4]
 800498a:	629a      	str	r2, [r3, #40]	; 0x28
        
        /* Set ADC error code to ADC IP internal error */
        SET_BIT(hadc->ErrorCode, HAL_ADC_ERROR_INTERNAL);
 800498c:	687b      	ldr	r3, [r7, #4]
 800498e:	6adb      	ldr	r3, [r3, #44]	; 0x2c
 8004990:	f043 0201 	orr.w	r2, r3, #1
 8004994:	687b      	ldr	r3, [r7, #4]
 8004996:	62da      	str	r2, [r3, #44]	; 0x2c
      }
    }
    
    /* Update ADC configuration register CR1 with previous settings */
      MODIFY_REG(hadc->Instance->CR1,
 8004998:	687b      	ldr	r3, [r7, #4]
 800499a:	681b      	ldr	r3, [r3, #0]
 800499c:	685b      	ldr	r3, [r3, #4]
 800499e:	f423 4169 	bic.w	r1, r3, #59648	; 0xe900
 80049a2:	687b      	ldr	r3, [r7, #4]
 80049a4:	681b      	ldr	r3, [r3, #0]
 80049a6:	693a      	ldr	r2, [r7, #16]
 80049a8:	430a      	orrs	r2, r1
 80049aa:	605a      	str	r2, [r3, #4]
                 ADC_CR1_DISCEN  |
                 ADC_CR1_DISCNUM    ,
                 tmp_cr1             );
    
    /* Update ADC configuration register CR2 with previous settings */
      MODIFY_REG(hadc->Instance->CR2,
 80049ac:	687b      	ldr	r3, [r7, #4]
 80049ae:	681b      	ldr	r3, [r3, #0]
 80049b0:	689a      	ldr	r2, [r3, #8]
 80049b2:	4b29      	ldr	r3, [pc, #164]	; (8004a58 <HAL_ADC_Init+0x1cc>)
 80049b4:	4013      	ands	r3, r2
 80049b6:	687a      	ldr	r2, [r7, #4]
 80049b8:	6812      	ldr	r2, [r2, #0]
 80049ba:	68b9      	ldr	r1, [r7, #8]
 80049bc:	430b      	orrs	r3, r1
 80049be:	6093      	str	r3, [r2, #8]
    /*   Note: Scan mode is present by hardware on this device and, if        */
    /*   disabled, discards automatically nb of conversions. Anyway, nb of    */
    /*   conversions is forced to 0x00 for alignment over all STM32 devices.  */
    /* - if scan mode is enabled, regular channels sequence length is set to  */
    /*   parameter "NbrOfConversion"                                          */
    if (ADC_CR1_SCAN_SET(hadc->Init.ScanConvMode) == ADC_SCAN_ENABLE)
 80049c0:	687b      	ldr	r3, [r7, #4]
 80049c2:	689b      	ldr	r3, [r3, #8]
 80049c4:	f5b3 7f80 	cmp.w	r3, #256	; 0x100
 80049c8:	d003      	beq.n	80049d2 <HAL_ADC_Init+0x146>
 80049ca:	687b      	ldr	r3, [r7, #4]
 80049cc:	689b      	ldr	r3, [r3, #8]
 80049ce:	2b01      	cmp	r3, #1
 80049d0:	d104      	bne.n	80049dc <HAL_ADC_Init+0x150>
    {
      tmp_sqr1 = ADC_SQR1_L_SHIFT(hadc->Init.NbrOfConversion);
 80049d2:	687b      	ldr	r3, [r7, #4]
 80049d4:	691b      	ldr	r3, [r3, #16]
 80049d6:	3b01      	subs	r3, #1
 80049d8:	051b      	lsls	r3, r3, #20
 80049da:	60fb      	str	r3, [r7, #12]
    }
      
    MODIFY_REG(hadc->Instance->SQR1,
 80049dc:	687b      	ldr	r3, [r7, #4]
 80049de:	681b      	ldr	r3, [r3, #0]
 80049e0:	6adb      	ldr	r3, [r3, #44]	; 0x2c
 80049e2:	f423 0170 	bic.w	r1, r3, #15728640	; 0xf00000
 80049e6:	687b      	ldr	r3, [r7, #4]
 80049e8:	681b      	ldr	r3, [r3, #0]
 80049ea:	68fa      	ldr	r2, [r7, #12]
 80049ec:	430a      	orrs	r2, r1
 80049ee:	62da      	str	r2, [r3, #44]	; 0x2c
    /* ensure of no potential problem of ADC core IP clocking.                */
    /* Check through register CR2 (excluding bits set in other functions:     */
    /* execution control bits (ADON, JSWSTART, SWSTART), regular group bits   */
    /* (DMA), injected group bits (JEXTTRIG and JEXTSEL), channel internal    */
    /* measurement path bit (TSVREFE).                                        */
    if (READ_BIT(hadc->Instance->CR2, ~(ADC_CR2_ADON | ADC_CR2_DMA |
 80049f0:	687b      	ldr	r3, [r7, #4]
 80049f2:	681b      	ldr	r3, [r3, #0]
 80049f4:	689a      	ldr	r2, [r3, #8]
 80049f6:	4b19      	ldr	r3, [pc, #100]	; (8004a5c <HAL_ADC_Init+0x1d0>)
 80049f8:	4013      	ands	r3, r2
 80049fa:	68ba      	ldr	r2, [r7, #8]
 80049fc:	429a      	cmp	r2, r3
 80049fe:	d10b      	bne.n	8004a18 <HAL_ADC_Init+0x18c>
                                        ADC_CR2_JEXTTRIG | ADC_CR2_JEXTSEL |
                                        ADC_CR2_TSVREFE                     ))
         == tmp_cr2)
    {
      /* Set ADC error code to none */
      ADC_CLEAR_ERRORCODE(hadc);
 8004a00:	687b      	ldr	r3, [r7, #4]
 8004a02:	2200      	movs	r2, #0
 8004a04:	62da      	str	r2, [r3, #44]	; 0x2c
      
      /* Set the ADC state */
      ADC_STATE_CLR_SET(hadc->State,
 8004a06:	687b      	ldr	r3, [r7, #4]
 8004a08:	6a9b      	ldr	r3, [r3, #40]	; 0x28
 8004a0a:	f023 0303 	bic.w	r3, r3, #3
 8004a0e:	f043 0201 	orr.w	r2, r3, #1
 8004a12:	687b      	ldr	r3, [r7, #4]
 8004a14:	629a      	str	r2, [r3, #40]	; 0x28
    if (READ_BIT(hadc->Instance->CR2, ~(ADC_CR2_ADON | ADC_CR2_DMA |
 8004a16:	e018      	b.n	8004a4a <HAL_ADC_Init+0x1be>
                        HAL_ADC_STATE_READY);
    }
    else
    {
      /* Update ADC state machine to error */
      ADC_STATE_CLR_SET(hadc->State,
 8004a18:	687b      	ldr	r3, [r7, #4]
 8004a1a:	6a9b      	ldr	r3, [r3, #40]	; 0x28
 8004a1c:	f023 0312 	bic.w	r3, r3, #18
 8004a20:	f043 0210 	orr.w	r2, r3, #16
 8004a24:	687b      	ldr	r3, [r7, #4]
 8004a26:	629a      	str	r2, [r3, #40]	; 0x28
                        HAL_ADC_STATE_BUSY_INTERNAL,
                        HAL_ADC_STATE_ERROR_INTERNAL);
      
      /* Set ADC error code to ADC IP internal error */
      SET_BIT(hadc->ErrorCode, HAL_ADC_ERROR_INTERNAL);
 8004a28:	687b      	ldr	r3, [r7, #4]
 8004a2a:	6adb      	ldr	r3, [r3, #44]	; 0x2c
 8004a2c:	f043 0201 	orr.w	r2, r3, #1
 8004a30:	687b      	ldr	r3, [r7, #4]
 8004a32:	62da      	str	r2, [r3, #44]	; 0x2c
      
      tmp_hal_status = HAL_ERROR;
 8004a34:	2301      	movs	r3, #1
 8004a36:	75fb      	strb	r3, [r7, #23]
    if (READ_BIT(hadc->Instance->CR2, ~(ADC_CR2_ADON | ADC_CR2_DMA |
 8004a38:	e007      	b.n	8004a4a <HAL_ADC_Init+0x1be>
  
  }
  else
  {
    /* Update ADC state machine to error */
    SET_BIT(hadc->State, HAL_ADC_STATE_ERROR_INTERNAL);
 8004a3a:	687b      	ldr	r3, [r7, #4]
 8004a3c:	6a9b      	ldr	r3, [r3, #40]	; 0x28
 8004a3e:	f043 0210 	orr.w	r2, r3, #16
 8004a42:	687b      	ldr	r3, [r7, #4]
 8004a44:	629a      	str	r2, [r3, #40]	; 0x28
        
    tmp_hal_status = HAL_ERROR;
 8004a46:	2301      	movs	r3, #1
 8004a48:	75fb      	strb	r3, [r7, #23]
  }
  
  /* Return function status */
  return tmp_hal_status;
 8004a4a:	7dfb      	ldrb	r3, [r7, #23]
}
 8004a4c:	4618      	mov	r0, r3
 8004a4e:	3718      	adds	r7, #24
 8004a50:	46bd      	mov	sp, r7
 8004a52:	bd80      	pop	{r7, pc}
 8004a54:	40013c00 	.word	0x40013c00
 8004a58:	ffe1f7fd 	.word	0xffe1f7fd
 8004a5c:	ff1f0efe 	.word	0xff1f0efe

08004a60 <HAL_ADC_Start>:
  *         Interruptions enabled in this function: None.
  * @param  hadc: ADC handle
  * @retval HAL status
  */
HAL_StatusTypeDef HAL_ADC_Start(ADC_HandleTypeDef* hadc)
{
 8004a60:	b580      	push	{r7, lr}
 8004a62:	b084      	sub	sp, #16
 8004a64:	af00      	add	r7, sp, #0
 8004a66:	6078      	str	r0, [r7, #4]
  HAL_StatusTypeDef tmp_hal_status = HAL_OK;
 8004a68:	2300      	movs	r3, #0
 8004a6a:	73fb      	strb	r3, [r7, #15]
  
  /* Check the parameters */
  assert_param(IS_ADC_ALL_INSTANCE(hadc->Instance));
  
  /* Process locked */
  __HAL_LOCK(hadc);
 8004a6c:	687b      	ldr	r3, [r7, #4]
 8004a6e:	f893 3024 	ldrb.w	r3, [r3, #36]	; 0x24
 8004a72:	2b01      	cmp	r3, #1
 8004a74:	d101      	bne.n	8004a7a <HAL_ADC_Start+0x1a>
 8004a76:	2302      	movs	r3, #2
 8004a78:	e098      	b.n	8004bac <HAL_ADC_Start+0x14c>
 8004a7a:	687b      	ldr	r3, [r7, #4]
 8004a7c:	2201      	movs	r2, #1
 8004a7e:	f883 2024 	strb.w	r2, [r3, #36]	; 0x24
   
  /* Enable the ADC peripheral */
  tmp_hal_status = ADC_Enable(hadc);
 8004a82:	6878      	ldr	r0, [r7, #4]
 8004a84:	f000 faa4 	bl	8004fd0 <ADC_Enable>
 8004a88:	4603      	mov	r3, r0
 8004a8a:	73fb      	strb	r3, [r7, #15]
  
  /* Start conversion if ADC is effectively enabled */
  if (tmp_hal_status == HAL_OK)
 8004a8c:	7bfb      	ldrb	r3, [r7, #15]
 8004a8e:	2b00      	cmp	r3, #0
 8004a90:	f040 8087 	bne.w	8004ba2 <HAL_ADC_Start+0x142>
  {
    /* Set ADC state                                                          */
    /* - Clear state bitfield related to regular group conversion results     */
    /* - Set state bitfield related to regular operation                      */
    ADC_STATE_CLR_SET(hadc->State,
 8004a94:	687b      	ldr	r3, [r7, #4]
 8004a96:	6a9b      	ldr	r3, [r3, #40]	; 0x28
 8004a98:	f423 7340 	bic.w	r3, r3, #768	; 0x300
 8004a9c:	f023 0301 	bic.w	r3, r3, #1
 8004aa0:	f443 7280 	orr.w	r2, r3, #256	; 0x100
 8004aa4:	687b      	ldr	r3, [r7, #4]
 8004aa6:	629a      	str	r2, [r3, #40]	; 0x28
                      HAL_ADC_STATE_REG_BUSY);
    
    /* Set group injected state (from auto-injection) and multimode state     */
    /* for all cases of multimode: independent mode, multimode ADC master     */
    /* or multimode ADC slave (for devices with several ADCs):                */
    if (ADC_NONMULTIMODE_OR_MULTIMODEMASTER(hadc))
 8004aa8:	687b      	ldr	r3, [r7, #4]
 8004aaa:	681b      	ldr	r3, [r3, #0]
 8004aac:	4a41      	ldr	r2, [pc, #260]	; (8004bb4 <HAL_ADC_Start+0x154>)
 8004aae:	4293      	cmp	r3, r2
 8004ab0:	d105      	bne.n	8004abe <HAL_ADC_Start+0x5e>
 8004ab2:	4b41      	ldr	r3, [pc, #260]	; (8004bb8 <HAL_ADC_Start+0x158>)
 8004ab4:	685b      	ldr	r3, [r3, #4]
 8004ab6:	f403 2370 	and.w	r3, r3, #983040	; 0xf0000
 8004aba:	2b00      	cmp	r3, #0
 8004abc:	d115      	bne.n	8004aea <HAL_ADC_Start+0x8a>
    {
      /* Set ADC state (ADC independent or master) */
      CLEAR_BIT(hadc->State, HAL_ADC_STATE_MULTIMODE_SLAVE);
 8004abe:	687b      	ldr	r3, [r7, #4]
 8004ac0:	6a9b      	ldr	r3, [r3, #40]	; 0x28
 8004ac2:	f423 1280 	bic.w	r2, r3, #1048576	; 0x100000
 8004ac6:	687b      	ldr	r3, [r7, #4]
 8004ac8:	629a      	str	r2, [r3, #40]	; 0x28
      
      /* If conversions on group regular are also triggering group injected,  */
      /* update ADC state.                                                    */
      if (READ_BIT(hadc->Instance->CR1, ADC_CR1_JAUTO) != RESET)
 8004aca:	687b      	ldr	r3, [r7, #4]
 8004acc:	681b      	ldr	r3, [r3, #0]
 8004ace:	685b      	ldr	r3, [r3, #4]
 8004ad0:	f403 6380 	and.w	r3, r3, #1024	; 0x400
 8004ad4:	2b00      	cmp	r3, #0
 8004ad6:	d026      	beq.n	8004b26 <HAL_ADC_Start+0xc6>
      {
        ADC_STATE_CLR_SET(hadc->State, HAL_ADC_STATE_INJ_EOC, HAL_ADC_STATE_INJ_BUSY);  
 8004ad8:	687b      	ldr	r3, [r7, #4]
 8004ada:	6a9b      	ldr	r3, [r3, #40]	; 0x28
 8004adc:	f423 5340 	bic.w	r3, r3, #12288	; 0x3000
 8004ae0:	f443 5280 	orr.w	r2, r3, #4096	; 0x1000
 8004ae4:	687b      	ldr	r3, [r7, #4]
 8004ae6:	629a      	str	r2, [r3, #40]	; 0x28
      if (READ_BIT(hadc->Instance->CR1, ADC_CR1_JAUTO) != RESET)
 8004ae8:	e01d      	b.n	8004b26 <HAL_ADC_Start+0xc6>
      }
    }
    else
    {
      /* Set ADC state (ADC slave) */
      SET_BIT(hadc->State, HAL_ADC_STATE_MULTIMODE_SLAVE);
 8004aea:	687b      	ldr	r3, [r7, #4]
 8004aec:	6a9b      	ldr	r3, [r3, #40]	; 0x28
 8004aee:	f443 1280 	orr.w	r2, r3, #1048576	; 0x100000
 8004af2:	687b      	ldr	r3, [r7, #4]
 8004af4:	629a      	str	r2, [r3, #40]	; 0x28
      
      /* If conversions on group regular are also triggering group injected,  */
      /* update ADC state.                                                    */
      if (ADC_MULTIMODE_AUTO_INJECTED(hadc))
 8004af6:	687b      	ldr	r3, [r7, #4]
 8004af8:	681b      	ldr	r3, [r3, #0]
 8004afa:	4a2f      	ldr	r2, [pc, #188]	; (8004bb8 <HAL_ADC_Start+0x158>)
 8004afc:	4293      	cmp	r3, r2
 8004afe:	d004      	beq.n	8004b0a <HAL_ADC_Start+0xaa>
 8004b00:	687b      	ldr	r3, [r7, #4]
 8004b02:	681b      	ldr	r3, [r3, #0]
 8004b04:	4a2b      	ldr	r2, [pc, #172]	; (8004bb4 <HAL_ADC_Start+0x154>)
 8004b06:	4293      	cmp	r3, r2
 8004b08:	d10d      	bne.n	8004b26 <HAL_ADC_Start+0xc6>
 8004b0a:	4b2b      	ldr	r3, [pc, #172]	; (8004bb8 <HAL_ADC_Start+0x158>)
 8004b0c:	685b      	ldr	r3, [r3, #4]
 8004b0e:	f403 6380 	and.w	r3, r3, #1024	; 0x400
 8004b12:	2b00      	cmp	r3, #0
 8004b14:	d007      	beq.n	8004b26 <HAL_ADC_Start+0xc6>
      {
        ADC_STATE_CLR_SET(hadc->State, HAL_ADC_STATE_INJ_EOC, HAL_ADC_STATE_INJ_BUSY);
 8004b16:	687b      	ldr	r3, [r7, #4]
 8004b18:	6a9b      	ldr	r3, [r3, #40]	; 0x28
 8004b1a:	f423 5340 	bic.w	r3, r3, #12288	; 0x3000
 8004b1e:	f443 5280 	orr.w	r2, r3, #4096	; 0x1000
 8004b22:	687b      	ldr	r3, [r7, #4]
 8004b24:	629a      	str	r2, [r3, #40]	; 0x28
      }
    }
    
    /* State machine update: Check if an injected conversion is ongoing */
    if (HAL_IS_BIT_SET(hadc->State, HAL_ADC_STATE_INJ_BUSY))
 8004b26:	687b      	ldr	r3, [r7, #4]
 8004b28:	6a9b      	ldr	r3, [r3, #40]	; 0x28
 8004b2a:	f403 5380 	and.w	r3, r3, #4096	; 0x1000
 8004b2e:	2b00      	cmp	r3, #0
 8004b30:	d006      	beq.n	8004b40 <HAL_ADC_Start+0xe0>
    {
      /* Reset ADC error code fields related to conversions on group regular */
      CLEAR_BIT(hadc->ErrorCode, (HAL_ADC_ERROR_OVR | HAL_ADC_ERROR_DMA));         
 8004b32:	687b      	ldr	r3, [r7, #4]
 8004b34:	6adb      	ldr	r3, [r3, #44]	; 0x2c
 8004b36:	f023 0206 	bic.w	r2, r3, #6
 8004b3a:	687b      	ldr	r3, [r7, #4]
 8004b3c:	62da      	str	r2, [r3, #44]	; 0x2c
 8004b3e:	e002      	b.n	8004b46 <HAL_ADC_Start+0xe6>
    }
    else
    {
      /* Reset ADC all error code fields */
      ADC_CLEAR_ERRORCODE(hadc);
 8004b40:	687b      	ldr	r3, [r7, #4]
 8004b42:	2200      	movs	r2, #0
 8004b44:	62da      	str	r2, [r3, #44]	; 0x2c
    }
    
    /* Process unlocked */
    /* Unlock before starting ADC conversions: in case of potential           */
    /* interruption, to let the process to ADC IRQ Handler.                   */
    __HAL_UNLOCK(hadc);
 8004b46:	687b      	ldr	r3, [r7, #4]
 8004b48:	2200      	movs	r2, #0
 8004b4a:	f883 2024 	strb.w	r2, [r3, #36]	; 0x24
  
    /* Clear regular group conversion flag */
    /* (To ensure of no unknown state from potential previous ADC operations) */
    __HAL_ADC_CLEAR_FLAG(hadc, ADC_FLAG_EOC);
 8004b4e:	687b      	ldr	r3, [r7, #4]
 8004b50:	681b      	ldr	r3, [r3, #0]
 8004b52:	f06f 0202 	mvn.w	r2, #2
 8004b56:	601a      	str	r2, [r3, #0]
    /*  - if ADC is slave, ADC is enabled only (conversion is not started).   */
    /*  - if ADC is master, ADC is enabled and conversion is started.         */
    /* If ADC is master, ADC is enabled and conversion is started.            */
    /* Note: Alternate trigger for single conversion could be to force an     */
    /*       additional set of bit ADON "hadc->Instance->CR2 |= ADC_CR2_ADON;"*/
    if (ADC_IS_SOFTWARE_START_REGULAR(hadc)      &&
 8004b58:	687b      	ldr	r3, [r7, #4]
 8004b5a:	681b      	ldr	r3, [r3, #0]
 8004b5c:	689b      	ldr	r3, [r3, #8]
 8004b5e:	f403 2360 	and.w	r3, r3, #917504	; 0xe0000
 8004b62:	f5b3 2f60 	cmp.w	r3, #917504	; 0xe0000
 8004b66:	d113      	bne.n	8004b90 <HAL_ADC_Start+0x130>
        ADC_NONMULTIMODE_OR_MULTIMODEMASTER(hadc)  )
 8004b68:	687b      	ldr	r3, [r7, #4]
 8004b6a:	681b      	ldr	r3, [r3, #0]
    if (ADC_IS_SOFTWARE_START_REGULAR(hadc)      &&
 8004b6c:	4a11      	ldr	r2, [pc, #68]	; (8004bb4 <HAL_ADC_Start+0x154>)
 8004b6e:	4293      	cmp	r3, r2
 8004b70:	d105      	bne.n	8004b7e <HAL_ADC_Start+0x11e>
        ADC_NONMULTIMODE_OR_MULTIMODEMASTER(hadc)  )
 8004b72:	4b11      	ldr	r3, [pc, #68]	; (8004bb8 <HAL_ADC_Start+0x158>)
 8004b74:	685b      	ldr	r3, [r3, #4]
 8004b76:	f403 2370 	and.w	r3, r3, #983040	; 0xf0000
    if (ADC_IS_SOFTWARE_START_REGULAR(hadc)      &&
 8004b7a:	2b00      	cmp	r3, #0
 8004b7c:	d108      	bne.n	8004b90 <HAL_ADC_Start+0x130>
    {
      /* Start ADC conversion on regular group with SW start */
      SET_BIT(hadc->Instance->CR2, (ADC_CR2_SWSTART | ADC_CR2_EXTTRIG));
 8004b7e:	687b      	ldr	r3, [r7, #4]
 8004b80:	681b      	ldr	r3, [r3, #0]
 8004b82:	689a      	ldr	r2, [r3, #8]
 8004b84:	687b      	ldr	r3, [r7, #4]
 8004b86:	681b      	ldr	r3, [r3, #0]
 8004b88:	f442 02a0 	orr.w	r2, r2, #5242880	; 0x500000
 8004b8c:	609a      	str	r2, [r3, #8]
 8004b8e:	e00c      	b.n	8004baa <HAL_ADC_Start+0x14a>
    }
    else
    {
      /* Start ADC conversion on regular group with external trigger */
      SET_BIT(hadc->Instance->CR2, ADC_CR2_EXTTRIG);
 8004b90:	687b      	ldr	r3, [r7, #4]
 8004b92:	681b      	ldr	r3, [r3, #0]
 8004b94:	689a      	ldr	r2, [r3, #8]
 8004b96:	687b      	ldr	r3, [r7, #4]
 8004b98:	681b      	ldr	r3, [r3, #0]
 8004b9a:	f442 1280 	orr.w	r2, r2, #1048576	; 0x100000
 8004b9e:	609a      	str	r2, [r3, #8]
 8004ba0:	e003      	b.n	8004baa <HAL_ADC_Start+0x14a>
    }
  }
  else
  {
    /* Process unlocked */
    __HAL_UNLOCK(hadc);
 8004ba2:	687b      	ldr	r3, [r7, #4]
 8004ba4:	2200      	movs	r2, #0
 8004ba6:	f883 2024 	strb.w	r2, [r3, #36]	; 0x24
  }
    
  /* Return function status */
  return tmp_hal_status;
 8004baa:	7bfb      	ldrb	r3, [r7, #15]
}
 8004bac:	4618      	mov	r0, r3
 8004bae:	3710      	adds	r7, #16
 8004bb0:	46bd      	mov	sp, r7
 8004bb2:	bd80      	pop	{r7, pc}
 8004bb4:	40012800 	.word	0x40012800
 8004bb8:	40012400 	.word	0x40012400

08004bbc <HAL_ADC_PollForConversion>:
  * @param  hadc: ADC handle
  * @param  Timeout: Timeout value in millisecond.
  * @retval HAL status
  */
HAL_StatusTypeDef HAL_ADC_PollForConversion(ADC_HandleTypeDef* hadc, uint32_t Timeout)
{
 8004bbc:	b590      	push	{r4, r7, lr}
 8004bbe:	b087      	sub	sp, #28
 8004bc0:	af00      	add	r7, sp, #0
 8004bc2:	6078      	str	r0, [r7, #4]
 8004bc4:	6039      	str	r1, [r7, #0]
  uint32_t tickstart = 0U;
 8004bc6:	2300      	movs	r3, #0
 8004bc8:	617b      	str	r3, [r7, #20]
  
  /* Variables for polling in case of scan mode enabled and polling for each  */
  /* conversion.                                                              */
  __IO uint32_t Conversion_Timeout_CPU_cycles = 0U;
 8004bca:	2300      	movs	r3, #0
 8004bcc:	60fb      	str	r3, [r7, #12]
  uint32_t Conversion_Timeout_CPU_cycles_max = 0U;
 8004bce:	2300      	movs	r3, #0
 8004bd0:	613b      	str	r3, [r7, #16]
 
  /* Check the parameters */
  assert_param(IS_ADC_ALL_INSTANCE(hadc->Instance));
  
  /* Get tick count */
  tickstart = HAL_GetTick();
 8004bd2:	f7ff fe2d 	bl	8004830 <HAL_GetTick>
 8004bd6:	6178      	str	r0, [r7, #20]
  
  /* Verification that ADC configuration is compliant with polling for        */
  /* each conversion:                                                         */
  /* Particular case is ADC configured in DMA mode                            */
  if (HAL_IS_BIT_SET(hadc->Instance->CR2, ADC_CR2_DMA))
 8004bd8:	687b      	ldr	r3, [r7, #4]
 8004bda:	681b      	ldr	r3, [r3, #0]
 8004bdc:	689b      	ldr	r3, [r3, #8]
 8004bde:	f403 7380 	and.w	r3, r3, #256	; 0x100
 8004be2:	2b00      	cmp	r3, #0
 8004be4:	d00b      	beq.n	8004bfe <HAL_ADC_PollForConversion+0x42>
  {
    /* Update ADC state machine to error */
    SET_BIT(hadc->State, HAL_ADC_STATE_ERROR_CONFIG);
 8004be6:	687b      	ldr	r3, [r7, #4]
 8004be8:	6a9b      	ldr	r3, [r3, #40]	; 0x28
 8004bea:	f043 0220 	orr.w	r2, r3, #32
 8004bee:	687b      	ldr	r3, [r7, #4]
 8004bf0:	629a      	str	r2, [r3, #40]	; 0x28
    
    /* Process unlocked */
    __HAL_UNLOCK(hadc);
 8004bf2:	687b      	ldr	r3, [r7, #4]
 8004bf4:	2200      	movs	r2, #0
 8004bf6:	f883 2024 	strb.w	r2, [r3, #36]	; 0x24
    
    return HAL_ERROR;
 8004bfa:	2301      	movs	r3, #1
 8004bfc:	e0d3      	b.n	8004da6 <HAL_ADC_PollForConversion+0x1ea>
  /*    from ADC conversion time (selected sampling time + conversion time of */
  /*    12.5 ADC clock cycles) and APB2/ADC clock prescalers (depending on    */
  /*    settings, conversion time range can be from 28 to 32256 CPU cycles).  */
  /*    As flag EOC is not set after each conversion, no timeout status can   */
  /*    be set.                                                               */
  if (HAL_IS_BIT_CLR(hadc->Instance->CR1, ADC_CR1_SCAN) &&
 8004bfe:	687b      	ldr	r3, [r7, #4]
 8004c00:	681b      	ldr	r3, [r3, #0]
 8004c02:	685b      	ldr	r3, [r3, #4]
 8004c04:	f403 7380 	and.w	r3, r3, #256	; 0x100
 8004c08:	2b00      	cmp	r3, #0
 8004c0a:	d131      	bne.n	8004c70 <HAL_ADC_PollForConversion+0xb4>
      HAL_IS_BIT_CLR(hadc->Instance->SQR1, ADC_SQR1_L)    )
 8004c0c:	687b      	ldr	r3, [r7, #4]
 8004c0e:	681b      	ldr	r3, [r3, #0]
 8004c10:	6adb      	ldr	r3, [r3, #44]	; 0x2c
 8004c12:	f403 0370 	and.w	r3, r3, #15728640	; 0xf00000
  if (HAL_IS_BIT_CLR(hadc->Instance->CR1, ADC_CR1_SCAN) &&
 8004c16:	2b00      	cmp	r3, #0
 8004c18:	d12a      	bne.n	8004c70 <HAL_ADC_PollForConversion+0xb4>
  {
    /* Wait until End of Conversion flag is raised */
    while(HAL_IS_BIT_CLR(hadc->Instance->SR, ADC_FLAG_EOC))
 8004c1a:	e021      	b.n	8004c60 <HAL_ADC_PollForConversion+0xa4>
    {
      /* Check if timeout is disabled (set to infinite wait) */
      if(Timeout != HAL_MAX_DELAY)
 8004c1c:	683b      	ldr	r3, [r7, #0]
 8004c1e:	f1b3 3fff 	cmp.w	r3, #4294967295
 8004c22:	d01d      	beq.n	8004c60 <HAL_ADC_PollForConversion+0xa4>
      {
        if((Timeout == 0U) || ((HAL_GetTick() - tickstart ) > Timeout))
 8004c24:	683b      	ldr	r3, [r7, #0]
 8004c26:	2b00      	cmp	r3, #0
 8004c28:	d007      	beq.n	8004c3a <HAL_ADC_PollForConversion+0x7e>
 8004c2a:	f7ff fe01 	bl	8004830 <HAL_GetTick>
 8004c2e:	4602      	mov	r2, r0
 8004c30:	697b      	ldr	r3, [r7, #20]
 8004c32:	1ad3      	subs	r3, r2, r3
 8004c34:	683a      	ldr	r2, [r7, #0]
 8004c36:	429a      	cmp	r2, r3
 8004c38:	d212      	bcs.n	8004c60 <HAL_ADC_PollForConversion+0xa4>
        {
          /* New check to avoid false timeout detection in case of preemption */
          if(HAL_IS_BIT_CLR(hadc->Instance->SR, ADC_FLAG_EOC))
 8004c3a:	687b      	ldr	r3, [r7, #4]
 8004c3c:	681b      	ldr	r3, [r3, #0]
 8004c3e:	681b      	ldr	r3, [r3, #0]
 8004c40:	f003 0302 	and.w	r3, r3, #2
 8004c44:	2b00      	cmp	r3, #0
 8004c46:	d10b      	bne.n	8004c60 <HAL_ADC_PollForConversion+0xa4>
          {
            /* Update ADC state machine to timeout */
            SET_BIT(hadc->State, HAL_ADC_STATE_TIMEOUT);
 8004c48:	687b      	ldr	r3, [r7, #4]
 8004c4a:	6a9b      	ldr	r3, [r3, #40]	; 0x28
 8004c4c:	f043 0204 	orr.w	r2, r3, #4
 8004c50:	687b      	ldr	r3, [r7, #4]
 8004c52:	629a      	str	r2, [r3, #40]	; 0x28
            
            /* Process unlocked */
            __HAL_UNLOCK(hadc);
 8004c54:	687b      	ldr	r3, [r7, #4]
 8004c56:	2200      	movs	r2, #0
 8004c58:	f883 2024 	strb.w	r2, [r3, #36]	; 0x24
            
            return HAL_TIMEOUT;
 8004c5c:	2303      	movs	r3, #3
 8004c5e:	e0a2      	b.n	8004da6 <HAL_ADC_PollForConversion+0x1ea>
    while(HAL_IS_BIT_CLR(hadc->Instance->SR, ADC_FLAG_EOC))
 8004c60:	687b      	ldr	r3, [r7, #4]
 8004c62:	681b      	ldr	r3, [r3, #0]
 8004c64:	681b      	ldr	r3, [r3, #0]
 8004c66:	f003 0302 	and.w	r3, r3, #2
 8004c6a:	2b00      	cmp	r3, #0
 8004c6c:	d0d6      	beq.n	8004c1c <HAL_ADC_PollForConversion+0x60>
  if (HAL_IS_BIT_CLR(hadc->Instance->CR1, ADC_CR1_SCAN) &&
 8004c6e:	e070      	b.n	8004d52 <HAL_ADC_PollForConversion+0x196>
    /* Replace polling by wait for maximum conversion time */
    /*  - Computation of CPU clock cycles corresponding to ADC clock cycles   */
    /*    and ADC maximum conversion cycles on all channels.                  */
    /*  - Wait for the expected ADC clock cycles delay                        */
    Conversion_Timeout_CPU_cycles_max = ((SystemCoreClock
                                          / HAL_RCCEx_GetPeriphCLKFreq(RCC_PERIPHCLK_ADC))
 8004c70:	4b4f      	ldr	r3, [pc, #316]	; (8004db0 <HAL_ADC_PollForConversion+0x1f4>)
 8004c72:	681c      	ldr	r4, [r3, #0]
 8004c74:	2002      	movs	r0, #2
 8004c76:	f001 fa9b 	bl	80061b0 <HAL_RCCEx_GetPeriphCLKFreq>
 8004c7a:	4603      	mov	r3, r0
 8004c7c:	fbb4 f2f3 	udiv	r2, r4, r3
                                         * ADC_CONVCYCLES_MAX_RANGE(hadc)                 );
 8004c80:	687b      	ldr	r3, [r7, #4]
 8004c82:	681b      	ldr	r3, [r3, #0]
 8004c84:	6919      	ldr	r1, [r3, #16]
 8004c86:	4b4b      	ldr	r3, [pc, #300]	; (8004db4 <HAL_ADC_PollForConversion+0x1f8>)
 8004c88:	400b      	ands	r3, r1
 8004c8a:	2b00      	cmp	r3, #0
 8004c8c:	d118      	bne.n	8004cc0 <HAL_ADC_PollForConversion+0x104>
 8004c8e:	687b      	ldr	r3, [r7, #4]
 8004c90:	681b      	ldr	r3, [r3, #0]
 8004c92:	68d9      	ldr	r1, [r3, #12]
 8004c94:	4b48      	ldr	r3, [pc, #288]	; (8004db8 <HAL_ADC_PollForConversion+0x1fc>)
 8004c96:	400b      	ands	r3, r1
 8004c98:	2b00      	cmp	r3, #0
 8004c9a:	d111      	bne.n	8004cc0 <HAL_ADC_PollForConversion+0x104>
 8004c9c:	687b      	ldr	r3, [r7, #4]
 8004c9e:	681b      	ldr	r3, [r3, #0]
 8004ca0:	6919      	ldr	r1, [r3, #16]
 8004ca2:	4b46      	ldr	r3, [pc, #280]	; (8004dbc <HAL_ADC_PollForConversion+0x200>)
 8004ca4:	400b      	ands	r3, r1
 8004ca6:	2b00      	cmp	r3, #0
 8004ca8:	d108      	bne.n	8004cbc <HAL_ADC_PollForConversion+0x100>
 8004caa:	687b      	ldr	r3, [r7, #4]
 8004cac:	681b      	ldr	r3, [r3, #0]
 8004cae:	68d9      	ldr	r1, [r3, #12]
 8004cb0:	4b43      	ldr	r3, [pc, #268]	; (8004dc0 <HAL_ADC_PollForConversion+0x204>)
 8004cb2:	400b      	ands	r3, r1
 8004cb4:	2b00      	cmp	r3, #0
 8004cb6:	d101      	bne.n	8004cbc <HAL_ADC_PollForConversion+0x100>
 8004cb8:	2314      	movs	r3, #20
 8004cba:	e020      	b.n	8004cfe <HAL_ADC_PollForConversion+0x142>
 8004cbc:	2329      	movs	r3, #41	; 0x29
 8004cbe:	e01e      	b.n	8004cfe <HAL_ADC_PollForConversion+0x142>
 8004cc0:	687b      	ldr	r3, [r7, #4]
 8004cc2:	681b      	ldr	r3, [r3, #0]
 8004cc4:	6919      	ldr	r1, [r3, #16]
 8004cc6:	4b3d      	ldr	r3, [pc, #244]	; (8004dbc <HAL_ADC_PollForConversion+0x200>)
 8004cc8:	400b      	ands	r3, r1
 8004cca:	2b00      	cmp	r3, #0
 8004ccc:	d106      	bne.n	8004cdc <HAL_ADC_PollForConversion+0x120>
 8004cce:	687b      	ldr	r3, [r7, #4]
 8004cd0:	681b      	ldr	r3, [r3, #0]
 8004cd2:	68d9      	ldr	r1, [r3, #12]
 8004cd4:	4b3a      	ldr	r3, [pc, #232]	; (8004dc0 <HAL_ADC_PollForConversion+0x204>)
 8004cd6:	400b      	ands	r3, r1
 8004cd8:	2b00      	cmp	r3, #0
 8004cda:	d00d      	beq.n	8004cf8 <HAL_ADC_PollForConversion+0x13c>
 8004cdc:	687b      	ldr	r3, [r7, #4]
 8004cde:	681b      	ldr	r3, [r3, #0]
 8004ce0:	6919      	ldr	r1, [r3, #16]
 8004ce2:	4b38      	ldr	r3, [pc, #224]	; (8004dc4 <HAL_ADC_PollForConversion+0x208>)
 8004ce4:	400b      	ands	r3, r1
 8004ce6:	2b00      	cmp	r3, #0
 8004ce8:	d108      	bne.n	8004cfc <HAL_ADC_PollForConversion+0x140>
 8004cea:	687b      	ldr	r3, [r7, #4]
 8004cec:	681b      	ldr	r3, [r3, #0]
 8004cee:	68d9      	ldr	r1, [r3, #12]
 8004cf0:	4b34      	ldr	r3, [pc, #208]	; (8004dc4 <HAL_ADC_PollForConversion+0x208>)
 8004cf2:	400b      	ands	r3, r1
 8004cf4:	2b00      	cmp	r3, #0
 8004cf6:	d101      	bne.n	8004cfc <HAL_ADC_PollForConversion+0x140>
 8004cf8:	2354      	movs	r3, #84	; 0x54
 8004cfa:	e000      	b.n	8004cfe <HAL_ADC_PollForConversion+0x142>
 8004cfc:	23fc      	movs	r3, #252	; 0xfc
    Conversion_Timeout_CPU_cycles_max = ((SystemCoreClock
 8004cfe:	fb02 f303 	mul.w	r3, r2, r3
 8004d02:	613b      	str	r3, [r7, #16]
    
    while(Conversion_Timeout_CPU_cycles < Conversion_Timeout_CPU_cycles_max)
 8004d04:	e021      	b.n	8004d4a <HAL_ADC_PollForConversion+0x18e>
    {
      /* Check if timeout is disabled (set to infinite wait) */
      if(Timeout != HAL_MAX_DELAY)
 8004d06:	683b      	ldr	r3, [r7, #0]
 8004d08:	f1b3 3fff 	cmp.w	r3, #4294967295
 8004d0c:	d01a      	beq.n	8004d44 <HAL_ADC_PollForConversion+0x188>
      {
        if((Timeout == 0U) || ((HAL_GetTick() - tickstart) > Timeout))
 8004d0e:	683b      	ldr	r3, [r7, #0]
 8004d10:	2b00      	cmp	r3, #0
 8004d12:	d007      	beq.n	8004d24 <HAL_ADC_PollForConversion+0x168>
 8004d14:	f7ff fd8c 	bl	8004830 <HAL_GetTick>
 8004d18:	4602      	mov	r2, r0
 8004d1a:	697b      	ldr	r3, [r7, #20]
 8004d1c:	1ad3      	subs	r3, r2, r3
 8004d1e:	683a      	ldr	r2, [r7, #0]
 8004d20:	429a      	cmp	r2, r3
 8004d22:	d20f      	bcs.n	8004d44 <HAL_ADC_PollForConversion+0x188>
        {
          /* New check to avoid false timeout detection in case of preemption */
          if(Conversion_Timeout_CPU_cycles < Conversion_Timeout_CPU_cycles_max)
 8004d24:	68fb      	ldr	r3, [r7, #12]
 8004d26:	693a      	ldr	r2, [r7, #16]
 8004d28:	429a      	cmp	r2, r3
 8004d2a:	d90b      	bls.n	8004d44 <HAL_ADC_PollForConversion+0x188>
          {
            /* Update ADC state machine to timeout */
            SET_BIT(hadc->State, HAL_ADC_STATE_TIMEOUT);
 8004d2c:	687b      	ldr	r3, [r7, #4]
 8004d2e:	6a9b      	ldr	r3, [r3, #40]	; 0x28
 8004d30:	f043 0204 	orr.w	r2, r3, #4
 8004d34:	687b      	ldr	r3, [r7, #4]
 8004d36:	629a      	str	r2, [r3, #40]	; 0x28

            /* Process unlocked */
            __HAL_UNLOCK(hadc);
 8004d38:	687b      	ldr	r3, [r7, #4]
 8004d3a:	2200      	movs	r2, #0
 8004d3c:	f883 2024 	strb.w	r2, [r3, #36]	; 0x24

            return HAL_TIMEOUT;
 8004d40:	2303      	movs	r3, #3
 8004d42:	e030      	b.n	8004da6 <HAL_ADC_PollForConversion+0x1ea>
          }
        }
      }
      Conversion_Timeout_CPU_cycles ++;
 8004d44:	68fb      	ldr	r3, [r7, #12]
 8004d46:	3301      	adds	r3, #1
 8004d48:	60fb      	str	r3, [r7, #12]
    while(Conversion_Timeout_CPU_cycles < Conversion_Timeout_CPU_cycles_max)
 8004d4a:	68fb      	ldr	r3, [r7, #12]
 8004d4c:	693a      	ldr	r2, [r7, #16]
 8004d4e:	429a      	cmp	r2, r3
 8004d50:	d8d9      	bhi.n	8004d06 <HAL_ADC_PollForConversion+0x14a>
    }
  }
  
  /* Clear regular group conversion flag */
  __HAL_ADC_CLEAR_FLAG(hadc, ADC_FLAG_STRT | ADC_FLAG_EOC);
 8004d52:	687b      	ldr	r3, [r7, #4]
 8004d54:	681b      	ldr	r3, [r3, #0]
 8004d56:	f06f 0212 	mvn.w	r2, #18
 8004d5a:	601a      	str	r2, [r3, #0]
  
  /* Update ADC state machine */
  SET_BIT(hadc->State, HAL_ADC_STATE_REG_EOC);
 8004d5c:	687b      	ldr	r3, [r7, #4]
 8004d5e:	6a9b      	ldr	r3, [r3, #40]	; 0x28
 8004d60:	f443 7200 	orr.w	r2, r3, #512	; 0x200
 8004d64:	687b      	ldr	r3, [r7, #4]
 8004d66:	629a      	str	r2, [r3, #40]	; 0x28
  /* Determine whether any further conversion upcoming on group regular       */
  /* by external trigger, continuous mode or scan sequence on going.          */
  /* Note: On STM32F1 devices, in case of sequencer enabled                   */
  /*       (several ranks selected), end of conversion flag is raised         */
  /*       at the end of the sequence.                                        */
  if(ADC_IS_SOFTWARE_START_REGULAR(hadc)        && 
 8004d68:	687b      	ldr	r3, [r7, #4]
 8004d6a:	681b      	ldr	r3, [r3, #0]
 8004d6c:	689b      	ldr	r3, [r3, #8]
 8004d6e:	f403 2360 	and.w	r3, r3, #917504	; 0xe0000
 8004d72:	f5b3 2f60 	cmp.w	r3, #917504	; 0xe0000
 8004d76:	d115      	bne.n	8004da4 <HAL_ADC_PollForConversion+0x1e8>
     (hadc->Init.ContinuousConvMode == DISABLE)   )
 8004d78:	687b      	ldr	r3, [r7, #4]
 8004d7a:	7b1b      	ldrb	r3, [r3, #12]
  if(ADC_IS_SOFTWARE_START_REGULAR(hadc)        && 
 8004d7c:	2b00      	cmp	r3, #0
 8004d7e:	d111      	bne.n	8004da4 <HAL_ADC_PollForConversion+0x1e8>
  {   
    /* Set ADC state */
    CLEAR_BIT(hadc->State, HAL_ADC_STATE_REG_BUSY);   
 8004d80:	687b      	ldr	r3, [r7, #4]
 8004d82:	6a9b      	ldr	r3, [r3, #40]	; 0x28
 8004d84:	f423 7280 	bic.w	r2, r3, #256	; 0x100
 8004d88:	687b      	ldr	r3, [r7, #4]
 8004d8a:	629a      	str	r2, [r3, #40]	; 0x28

    if (HAL_IS_BIT_CLR(hadc->State, HAL_ADC_STATE_INJ_BUSY))
 8004d8c:	687b      	ldr	r3, [r7, #4]
 8004d8e:	6a9b      	ldr	r3, [r3, #40]	; 0x28
 8004d90:	f403 5380 	and.w	r3, r3, #4096	; 0x1000
 8004d94:	2b00      	cmp	r3, #0
 8004d96:	d105      	bne.n	8004da4 <HAL_ADC_PollForConversion+0x1e8>
    { 
      SET_BIT(hadc->State, HAL_ADC_STATE_READY);
 8004d98:	687b      	ldr	r3, [r7, #4]
 8004d9a:	6a9b      	ldr	r3, [r3, #40]	; 0x28
 8004d9c:	f043 0201 	orr.w	r2, r3, #1
 8004da0:	687b      	ldr	r3, [r7, #4]
 8004da2:	629a      	str	r2, [r3, #40]	; 0x28
    }
  }
  
  /* Return ADC state */
  return HAL_OK;
 8004da4:	2300      	movs	r3, #0
}
 8004da6:	4618      	mov	r0, r3
 8004da8:	371c      	adds	r7, #28
 8004daa:	46bd      	mov	sp, r7
 8004dac:	bd90      	pop	{r4, r7, pc}
 8004dae:	bf00      	nop
 8004db0:	20000000 	.word	0x20000000
 8004db4:	24924924 	.word	0x24924924
 8004db8:	00924924 	.word	0x00924924
 8004dbc:	12492492 	.word	0x12492492
 8004dc0:	00492492 	.word	0x00492492
 8004dc4:	00249249 	.word	0x00249249

08004dc8 <HAL_ADC_GetValue>:
  *         or @ref __HAL_ADC_CLEAR_FLAG(&hadc, ADC_FLAG_EOS).
  * @param  hadc: ADC handle
  * @retval ADC group regular conversion data
  */
uint32_t HAL_ADC_GetValue(ADC_HandleTypeDef* hadc)
{
 8004dc8:	b480      	push	{r7}
 8004dca:	b083      	sub	sp, #12
 8004dcc:	af00      	add	r7, sp, #0
 8004dce:	6078      	str	r0, [r7, #4]

  /* Note: EOC flag is not cleared here by software because automatically     */
  /*       cleared by hardware when reading register DR.                      */
  
  /* Return ADC converted value */ 
  return hadc->Instance->DR;
 8004dd0:	687b      	ldr	r3, [r7, #4]
 8004dd2:	681b      	ldr	r3, [r3, #0]
 8004dd4:	6cdb      	ldr	r3, [r3, #76]	; 0x4c
}
 8004dd6:	4618      	mov	r0, r3
 8004dd8:	370c      	adds	r7, #12
 8004dda:	46bd      	mov	sp, r7
 8004ddc:	bc80      	pop	{r7}
 8004dde:	4770      	bx	lr

08004de0 <HAL_ADC_ConfigChannel>:
  * @param  hadc: ADC handle
  * @param  sConfig: Structure of ADC channel for regular group.
  * @retval HAL status
  */
HAL_StatusTypeDef HAL_ADC_ConfigChannel(ADC_HandleTypeDef* hadc, ADC_ChannelConfTypeDef* sConfig)
{ 
 8004de0:	b480      	push	{r7}
 8004de2:	b085      	sub	sp, #20
 8004de4:	af00      	add	r7, sp, #0
 8004de6:	6078      	str	r0, [r7, #4]
 8004de8:	6039      	str	r1, [r7, #0]
  HAL_StatusTypeDef tmp_hal_status = HAL_OK;
 8004dea:	2300      	movs	r3, #0
 8004dec:	73fb      	strb	r3, [r7, #15]
  __IO uint32_t wait_loop_index = 0U;
 8004dee:	2300      	movs	r3, #0
 8004df0:	60bb      	str	r3, [r7, #8]
  assert_param(IS_ADC_CHANNEL(sConfig->Channel));
  assert_param(IS_ADC_REGULAR_RANK(sConfig->Rank));
  assert_param(IS_ADC_SAMPLE_TIME(sConfig->SamplingTime));
  
  /* Process locked */
  __HAL_LOCK(hadc);
 8004df2:	687b      	ldr	r3, [r7, #4]
 8004df4:	f893 3024 	ldrb.w	r3, [r3, #36]	; 0x24
 8004df8:	2b01      	cmp	r3, #1
 8004dfa:	d101      	bne.n	8004e00 <HAL_ADC_ConfigChannel+0x20>
 8004dfc:	2302      	movs	r3, #2
 8004dfe:	e0dc      	b.n	8004fba <HAL_ADC_ConfigChannel+0x1da>
 8004e00:	687b      	ldr	r3, [r7, #4]
 8004e02:	2201      	movs	r2, #1
 8004e04:	f883 2024 	strb.w	r2, [r3, #36]	; 0x24
  
  
  /* Regular sequence configuration */
  /* For Rank 1 to 6 */
  if (sConfig->Rank < 7U)
 8004e08:	683b      	ldr	r3, [r7, #0]
 8004e0a:	685b      	ldr	r3, [r3, #4]
 8004e0c:	2b06      	cmp	r3, #6
 8004e0e:	d81c      	bhi.n	8004e4a <HAL_ADC_ConfigChannel+0x6a>
  {
    MODIFY_REG(hadc->Instance->SQR3                        ,
 8004e10:	687b      	ldr	r3, [r7, #4]
 8004e12:	681b      	ldr	r3, [r3, #0]
 8004e14:	6b59      	ldr	r1, [r3, #52]	; 0x34
 8004e16:	683b      	ldr	r3, [r7, #0]
 8004e18:	685a      	ldr	r2, [r3, #4]
 8004e1a:	4613      	mov	r3, r2
 8004e1c:	009b      	lsls	r3, r3, #2
 8004e1e:	4413      	add	r3, r2
 8004e20:	3b05      	subs	r3, #5
 8004e22:	221f      	movs	r2, #31
 8004e24:	fa02 f303 	lsl.w	r3, r2, r3
 8004e28:	43db      	mvns	r3, r3
 8004e2a:	4019      	ands	r1, r3
 8004e2c:	683b      	ldr	r3, [r7, #0]
 8004e2e:	6818      	ldr	r0, [r3, #0]
 8004e30:	683b      	ldr	r3, [r7, #0]
 8004e32:	685a      	ldr	r2, [r3, #4]
 8004e34:	4613      	mov	r3, r2
 8004e36:	009b      	lsls	r3, r3, #2
 8004e38:	4413      	add	r3, r2
 8004e3a:	3b05      	subs	r3, #5
 8004e3c:	fa00 f203 	lsl.w	r2, r0, r3
 8004e40:	687b      	ldr	r3, [r7, #4]
 8004e42:	681b      	ldr	r3, [r3, #0]
 8004e44:	430a      	orrs	r2, r1
 8004e46:	635a      	str	r2, [r3, #52]	; 0x34
 8004e48:	e03c      	b.n	8004ec4 <HAL_ADC_ConfigChannel+0xe4>
               ADC_SQR3_RK(ADC_SQR3_SQ1, sConfig->Rank)    ,
               ADC_SQR3_RK(sConfig->Channel, sConfig->Rank) );
  }
  /* For Rank 7 to 12 */
  else if (sConfig->Rank < 13U)
 8004e4a:	683b      	ldr	r3, [r7, #0]
 8004e4c:	685b      	ldr	r3, [r3, #4]
 8004e4e:	2b0c      	cmp	r3, #12
 8004e50:	d81c      	bhi.n	8004e8c <HAL_ADC_ConfigChannel+0xac>
  {
    MODIFY_REG(hadc->Instance->SQR2                        ,
 8004e52:	687b      	ldr	r3, [r7, #4]
 8004e54:	681b      	ldr	r3, [r3, #0]
 8004e56:	6b19      	ldr	r1, [r3, #48]	; 0x30
 8004e58:	683b      	ldr	r3, [r7, #0]
 8004e5a:	685a      	ldr	r2, [r3, #4]
 8004e5c:	4613      	mov	r3, r2
 8004e5e:	009b      	lsls	r3, r3, #2
 8004e60:	4413      	add	r3, r2
 8004e62:	3b23      	subs	r3, #35	; 0x23
 8004e64:	221f      	movs	r2, #31
 8004e66:	fa02 f303 	lsl.w	r3, r2, r3
 8004e6a:	43db      	mvns	r3, r3
 8004e6c:	4019      	ands	r1, r3
 8004e6e:	683b      	ldr	r3, [r7, #0]
 8004e70:	6818      	ldr	r0, [r3, #0]
 8004e72:	683b      	ldr	r3, [r7, #0]
 8004e74:	685a      	ldr	r2, [r3, #4]
 8004e76:	4613      	mov	r3, r2
 8004e78:	009b      	lsls	r3, r3, #2
 8004e7a:	4413      	add	r3, r2
 8004e7c:	3b23      	subs	r3, #35	; 0x23
 8004e7e:	fa00 f203 	lsl.w	r2, r0, r3
 8004e82:	687b      	ldr	r3, [r7, #4]
 8004e84:	681b      	ldr	r3, [r3, #0]
 8004e86:	430a      	orrs	r2, r1
 8004e88:	631a      	str	r2, [r3, #48]	; 0x30
 8004e8a:	e01b      	b.n	8004ec4 <HAL_ADC_ConfigChannel+0xe4>
               ADC_SQR2_RK(sConfig->Channel, sConfig->Rank) );
  }
  /* For Rank 13 to 16 */
  else
  {
    MODIFY_REG(hadc->Instance->SQR1                        ,
 8004e8c:	687b      	ldr	r3, [r7, #4]
 8004e8e:	681b      	ldr	r3, [r3, #0]
 8004e90:	6ad9      	ldr	r1, [r3, #44]	; 0x2c
 8004e92:	683b      	ldr	r3, [r7, #0]
 8004e94:	685a      	ldr	r2, [r3, #4]
 8004e96:	4613      	mov	r3, r2
 8004e98:	009b      	lsls	r3, r3, #2
 8004e9a:	4413      	add	r3, r2
 8004e9c:	3b41      	subs	r3, #65	; 0x41
 8004e9e:	221f      	movs	r2, #31
 8004ea0:	fa02 f303 	lsl.w	r3, r2, r3
 8004ea4:	43db      	mvns	r3, r3
 8004ea6:	4019      	ands	r1, r3
 8004ea8:	683b      	ldr	r3, [r7, #0]
 8004eaa:	6818      	ldr	r0, [r3, #0]
 8004eac:	683b      	ldr	r3, [r7, #0]
 8004eae:	685a      	ldr	r2, [r3, #4]
 8004eb0:	4613      	mov	r3, r2
 8004eb2:	009b      	lsls	r3, r3, #2
 8004eb4:	4413      	add	r3, r2
 8004eb6:	3b41      	subs	r3, #65	; 0x41
 8004eb8:	fa00 f203 	lsl.w	r2, r0, r3
 8004ebc:	687b      	ldr	r3, [r7, #4]
 8004ebe:	681b      	ldr	r3, [r3, #0]
 8004ec0:	430a      	orrs	r2, r1
 8004ec2:	62da      	str	r2, [r3, #44]	; 0x2c
  }
  
  
  /* Channel sampling time configuration */
  /* For channels 10 to 17 */
  if (sConfig->Channel >= ADC_CHANNEL_10)
 8004ec4:	683b      	ldr	r3, [r7, #0]
 8004ec6:	681b      	ldr	r3, [r3, #0]
 8004ec8:	2b09      	cmp	r3, #9
 8004eca:	d91c      	bls.n	8004f06 <HAL_ADC_ConfigChannel+0x126>
  {
    MODIFY_REG(hadc->Instance->SMPR1                             ,
 8004ecc:	687b      	ldr	r3, [r7, #4]
 8004ece:	681b      	ldr	r3, [r3, #0]
 8004ed0:	68d9      	ldr	r1, [r3, #12]
 8004ed2:	683b      	ldr	r3, [r7, #0]
 8004ed4:	681a      	ldr	r2, [r3, #0]
 8004ed6:	4613      	mov	r3, r2
 8004ed8:	005b      	lsls	r3, r3, #1
 8004eda:	4413      	add	r3, r2
 8004edc:	3b1e      	subs	r3, #30
 8004ede:	2207      	movs	r2, #7
 8004ee0:	fa02 f303 	lsl.w	r3, r2, r3
 8004ee4:	43db      	mvns	r3, r3
 8004ee6:	4019      	ands	r1, r3
 8004ee8:	683b      	ldr	r3, [r7, #0]
 8004eea:	6898      	ldr	r0, [r3, #8]
 8004eec:	683b      	ldr	r3, [r7, #0]
 8004eee:	681a      	ldr	r2, [r3, #0]
 8004ef0:	4613      	mov	r3, r2
 8004ef2:	005b      	lsls	r3, r3, #1
 8004ef4:	4413      	add	r3, r2
 8004ef6:	3b1e      	subs	r3, #30
 8004ef8:	fa00 f203 	lsl.w	r2, r0, r3
 8004efc:	687b      	ldr	r3, [r7, #4]
 8004efe:	681b      	ldr	r3, [r3, #0]
 8004f00:	430a      	orrs	r2, r1
 8004f02:	60da      	str	r2, [r3, #12]
 8004f04:	e019      	b.n	8004f3a <HAL_ADC_ConfigChannel+0x15a>
               ADC_SMPR1(ADC_SMPR1_SMP10, sConfig->Channel)      ,
               ADC_SMPR1(sConfig->SamplingTime, sConfig->Channel) );
  }
  else /* For channels 0 to 9 */
  {
    MODIFY_REG(hadc->Instance->SMPR2                             ,
 8004f06:	687b      	ldr	r3, [r7, #4]
 8004f08:	681b      	ldr	r3, [r3, #0]
 8004f0a:	6919      	ldr	r1, [r3, #16]
 8004f0c:	683b      	ldr	r3, [r7, #0]
 8004f0e:	681a      	ldr	r2, [r3, #0]
 8004f10:	4613      	mov	r3, r2
 8004f12:	005b      	lsls	r3, r3, #1
 8004f14:	4413      	add	r3, r2
 8004f16:	2207      	movs	r2, #7
 8004f18:	fa02 f303 	lsl.w	r3, r2, r3
 8004f1c:	43db      	mvns	r3, r3
 8004f1e:	4019      	ands	r1, r3
 8004f20:	683b      	ldr	r3, [r7, #0]
 8004f22:	6898      	ldr	r0, [r3, #8]
 8004f24:	683b      	ldr	r3, [r7, #0]
 8004f26:	681a      	ldr	r2, [r3, #0]
 8004f28:	4613      	mov	r3, r2
 8004f2a:	005b      	lsls	r3, r3, #1
 8004f2c:	4413      	add	r3, r2
 8004f2e:	fa00 f203 	lsl.w	r2, r0, r3
 8004f32:	687b      	ldr	r3, [r7, #4]
 8004f34:	681b      	ldr	r3, [r3, #0]
 8004f36:	430a      	orrs	r2, r1
 8004f38:	611a      	str	r2, [r3, #16]
               ADC_SMPR2(sConfig->SamplingTime, sConfig->Channel) );
  }
  
  /* If ADC1 Channel_16 or Channel_17 is selected, enable Temperature sensor  */
  /* and VREFINT measurement path.                                            */
  if ((sConfig->Channel == ADC_CHANNEL_TEMPSENSOR) ||
 8004f3a:	683b      	ldr	r3, [r7, #0]
 8004f3c:	681b      	ldr	r3, [r3, #0]
 8004f3e:	2b10      	cmp	r3, #16
 8004f40:	d003      	beq.n	8004f4a <HAL_ADC_ConfigChannel+0x16a>
      (sConfig->Channel == ADC_CHANNEL_VREFINT)      )
 8004f42:	683b      	ldr	r3, [r7, #0]
 8004f44:	681b      	ldr	r3, [r3, #0]
  if ((sConfig->Channel == ADC_CHANNEL_TEMPSENSOR) ||
 8004f46:	2b11      	cmp	r3, #17
 8004f48:	d132      	bne.n	8004fb0 <HAL_ADC_ConfigChannel+0x1d0>
  {
    /* For STM32F1 devices with several ADC: Only ADC1 can access internal    */
    /* measurement channels (VrefInt/TempSensor). If these channels are       */
    /* intended to be set on other ADC instances, an error is reported.       */
    if (hadc->Instance == ADC1)
 8004f4a:	687b      	ldr	r3, [r7, #4]
 8004f4c:	681b      	ldr	r3, [r3, #0]
 8004f4e:	4a1d      	ldr	r2, [pc, #116]	; (8004fc4 <HAL_ADC_ConfigChannel+0x1e4>)
 8004f50:	4293      	cmp	r3, r2
 8004f52:	d125      	bne.n	8004fa0 <HAL_ADC_ConfigChannel+0x1c0>
    {
      if (READ_BIT(hadc->Instance->CR2, ADC_CR2_TSVREFE) == RESET)
 8004f54:	687b      	ldr	r3, [r7, #4]
 8004f56:	681b      	ldr	r3, [r3, #0]
 8004f58:	689b      	ldr	r3, [r3, #8]
 8004f5a:	f403 0300 	and.w	r3, r3, #8388608	; 0x800000
 8004f5e:	2b00      	cmp	r3, #0
 8004f60:	d126      	bne.n	8004fb0 <HAL_ADC_ConfigChannel+0x1d0>
      {
        SET_BIT(hadc->Instance->CR2, ADC_CR2_TSVREFE);
 8004f62:	687b      	ldr	r3, [r7, #4]
 8004f64:	681b      	ldr	r3, [r3, #0]
 8004f66:	689a      	ldr	r2, [r3, #8]
 8004f68:	687b      	ldr	r3, [r7, #4]
 8004f6a:	681b      	ldr	r3, [r3, #0]
 8004f6c:	f442 0200 	orr.w	r2, r2, #8388608	; 0x800000
 8004f70:	609a      	str	r2, [r3, #8]
        
        if (sConfig->Channel == ADC_CHANNEL_TEMPSENSOR)
 8004f72:	683b      	ldr	r3, [r7, #0]
 8004f74:	681b      	ldr	r3, [r3, #0]
 8004f76:	2b10      	cmp	r3, #16
 8004f78:	d11a      	bne.n	8004fb0 <HAL_ADC_ConfigChannel+0x1d0>
        {
          /* Delay for temperature sensor stabilization time */
          /* Compute number of CPU cycles to wait for */
          wait_loop_index = (ADC_TEMPSENSOR_DELAY_US * (SystemCoreClock / 1000000U));
 8004f7a:	4b13      	ldr	r3, [pc, #76]	; (8004fc8 <HAL_ADC_ConfigChannel+0x1e8>)
 8004f7c:	681b      	ldr	r3, [r3, #0]
 8004f7e:	4a13      	ldr	r2, [pc, #76]	; (8004fcc <HAL_ADC_ConfigChannel+0x1ec>)
 8004f80:	fba2 2303 	umull	r2, r3, r2, r3
 8004f84:	0c9a      	lsrs	r2, r3, #18
 8004f86:	4613      	mov	r3, r2
 8004f88:	009b      	lsls	r3, r3, #2
 8004f8a:	4413      	add	r3, r2
 8004f8c:	005b      	lsls	r3, r3, #1
 8004f8e:	60bb      	str	r3, [r7, #8]
          while(wait_loop_index != 0U)
 8004f90:	e002      	b.n	8004f98 <HAL_ADC_ConfigChannel+0x1b8>
          {
            wait_loop_index--;
 8004f92:	68bb      	ldr	r3, [r7, #8]
 8004f94:	3b01      	subs	r3, #1
 8004f96:	60bb      	str	r3, [r7, #8]
          while(wait_loop_index != 0U)
 8004f98:	68bb      	ldr	r3, [r7, #8]
 8004f9a:	2b00      	cmp	r3, #0
 8004f9c:	d1f9      	bne.n	8004f92 <HAL_ADC_ConfigChannel+0x1b2>
 8004f9e:	e007      	b.n	8004fb0 <HAL_ADC_ConfigChannel+0x1d0>
      }
    }
    else
    {
      /* Update ADC state machine to error */
      SET_BIT(hadc->State, HAL_ADC_STATE_ERROR_CONFIG);
 8004fa0:	687b      	ldr	r3, [r7, #4]
 8004fa2:	6a9b      	ldr	r3, [r3, #40]	; 0x28
 8004fa4:	f043 0220 	orr.w	r2, r3, #32
 8004fa8:	687b      	ldr	r3, [r7, #4]
 8004faa:	629a      	str	r2, [r3, #40]	; 0x28
      
      tmp_hal_status = HAL_ERROR;
 8004fac:	2301      	movs	r3, #1
 8004fae:	73fb      	strb	r3, [r7, #15]
    }
  }
  
  /* Process unlocked */
  __HAL_UNLOCK(hadc);
 8004fb0:	687b      	ldr	r3, [r7, #4]
 8004fb2:	2200      	movs	r2, #0
 8004fb4:	f883 2024 	strb.w	r2, [r3, #36]	; 0x24
  
  /* Return function status */
  return tmp_hal_status;
 8004fb8:	7bfb      	ldrb	r3, [r7, #15]
}
 8004fba:	4618      	mov	r0, r3
 8004fbc:	3714      	adds	r7, #20
 8004fbe:	46bd      	mov	sp, r7
 8004fc0:	bc80      	pop	{r7}
 8004fc2:	4770      	bx	lr
 8004fc4:	40012400 	.word	0x40012400
 8004fc8:	20000000 	.word	0x20000000
 8004fcc:	431bde83 	.word	0x431bde83

08004fd0 <ADC_Enable>:
  *         and voltage regulator must be enabled (done into HAL_ADC_Init()).
  * @param  hadc: ADC handle
  * @retval HAL status.
  */
HAL_StatusTypeDef ADC_Enable(ADC_HandleTypeDef* hadc)
{
 8004fd0:	b580      	push	{r7, lr}
 8004fd2:	b084      	sub	sp, #16
 8004fd4:	af00      	add	r7, sp, #0
 8004fd6:	6078      	str	r0, [r7, #4]
  uint32_t tickstart = 0U;
 8004fd8:	2300      	movs	r3, #0
 8004fda:	60fb      	str	r3, [r7, #12]
  __IO uint32_t wait_loop_index = 0U;
 8004fdc:	2300      	movs	r3, #0
 8004fde:	60bb      	str	r3, [r7, #8]
  
  /* ADC enable and wait for ADC ready (in case of ADC is disabled or         */
  /* enabling phase not yet completed: flag ADC ready not yet set).           */
  /* Timeout implemented to not be stuck if ADC cannot be enabled (possible   */
  /* causes: ADC clock not running, ...).                                     */
  if (ADC_IS_ENABLE(hadc) == RESET)
 8004fe0:	687b      	ldr	r3, [r7, #4]
 8004fe2:	681b      	ldr	r3, [r3, #0]
 8004fe4:	689b      	ldr	r3, [r3, #8]
 8004fe6:	f003 0301 	and.w	r3, r3, #1
 8004fea:	2b01      	cmp	r3, #1
 8004fec:	d040      	beq.n	8005070 <ADC_Enable+0xa0>
  {
    /* Enable the Peripheral */
    __HAL_ADC_ENABLE(hadc);
 8004fee:	687b      	ldr	r3, [r7, #4]
 8004ff0:	681b      	ldr	r3, [r3, #0]
 8004ff2:	689a      	ldr	r2, [r3, #8]
 8004ff4:	687b      	ldr	r3, [r7, #4]
 8004ff6:	681b      	ldr	r3, [r3, #0]
 8004ff8:	f042 0201 	orr.w	r2, r2, #1
 8004ffc:	609a      	str	r2, [r3, #8]
    
    /* Delay for ADC stabilization time */
    /* Compute number of CPU cycles to wait for */
    wait_loop_index = (ADC_STAB_DELAY_US * (SystemCoreClock / 1000000U));
 8004ffe:	4b1f      	ldr	r3, [pc, #124]	; (800507c <ADC_Enable+0xac>)
 8005000:	681b      	ldr	r3, [r3, #0]
 8005002:	4a1f      	ldr	r2, [pc, #124]	; (8005080 <ADC_Enable+0xb0>)
 8005004:	fba2 2303 	umull	r2, r3, r2, r3
 8005008:	0c9b      	lsrs	r3, r3, #18
 800500a:	60bb      	str	r3, [r7, #8]
    while(wait_loop_index != 0U)
 800500c:	e002      	b.n	8005014 <ADC_Enable+0x44>
    {
      wait_loop_index--;
 800500e:	68bb      	ldr	r3, [r7, #8]
 8005010:	3b01      	subs	r3, #1
 8005012:	60bb      	str	r3, [r7, #8]
    while(wait_loop_index != 0U)
 8005014:	68bb      	ldr	r3, [r7, #8]
 8005016:	2b00      	cmp	r3, #0
 8005018:	d1f9      	bne.n	800500e <ADC_Enable+0x3e>
    }
    
    /* Get tick count */
    tickstart = HAL_GetTick();
 800501a:	f7ff fc09 	bl	8004830 <HAL_GetTick>
 800501e:	60f8      	str	r0, [r7, #12]

    /* Wait for ADC effectively enabled */
    while(ADC_IS_ENABLE(hadc) == RESET)
 8005020:	e01f      	b.n	8005062 <ADC_Enable+0x92>
    {
      if((HAL_GetTick() - tickstart) > ADC_ENABLE_TIMEOUT)
 8005022:	f7ff fc05 	bl	8004830 <HAL_GetTick>
 8005026:	4602      	mov	r2, r0
 8005028:	68fb      	ldr	r3, [r7, #12]
 800502a:	1ad3      	subs	r3, r2, r3
 800502c:	2b02      	cmp	r3, #2
 800502e:	d918      	bls.n	8005062 <ADC_Enable+0x92>
      {
        /* New check to avoid false timeout detection in case of preemption */
        if(ADC_IS_ENABLE(hadc) == RESET)
 8005030:	687b      	ldr	r3, [r7, #4]
 8005032:	681b      	ldr	r3, [r3, #0]
 8005034:	689b      	ldr	r3, [r3, #8]
 8005036:	f003 0301 	and.w	r3, r3, #1
 800503a:	2b01      	cmp	r3, #1
 800503c:	d011      	beq.n	8005062 <ADC_Enable+0x92>
        {
          /* Update ADC state machine to error */
          SET_BIT(hadc->State, HAL_ADC_STATE_ERROR_INTERNAL);
 800503e:	687b      	ldr	r3, [r7, #4]
 8005040:	6a9b      	ldr	r3, [r3, #40]	; 0x28
 8005042:	f043 0210 	orr.w	r2, r3, #16
 8005046:	687b      	ldr	r3, [r7, #4]
 8005048:	629a      	str	r2, [r3, #40]	; 0x28

          /* Set ADC error code to ADC IP internal error */
          SET_BIT(hadc->ErrorCode, HAL_ADC_ERROR_INTERNAL);
 800504a:	687b      	ldr	r3, [r7, #4]
 800504c:	6adb      	ldr	r3, [r3, #44]	; 0x2c
 800504e:	f043 0201 	orr.w	r2, r3, #1
 8005052:	687b      	ldr	r3, [r7, #4]
 8005054:	62da      	str	r2, [r3, #44]	; 0x2c

          /* Process unlocked */
          __HAL_UNLOCK(hadc);
 8005056:	687b      	ldr	r3, [r7, #4]
 8005058:	2200      	movs	r2, #0
 800505a:	f883 2024 	strb.w	r2, [r3, #36]	; 0x24

          return HAL_ERROR;
 800505e:	2301      	movs	r3, #1
 8005060:	e007      	b.n	8005072 <ADC_Enable+0xa2>
    while(ADC_IS_ENABLE(hadc) == RESET)
 8005062:	687b      	ldr	r3, [r7, #4]
 8005064:	681b      	ldr	r3, [r3, #0]
 8005066:	689b      	ldr	r3, [r3, #8]
 8005068:	f003 0301 	and.w	r3, r3, #1
 800506c:	2b01      	cmp	r3, #1
 800506e:	d1d8      	bne.n	8005022 <ADC_Enable+0x52>
      }
    }
  }
   
  /* Return HAL status */
  return HAL_OK;
 8005070:	2300      	movs	r3, #0
}
 8005072:	4618      	mov	r0, r3
 8005074:	3710      	adds	r7, #16
 8005076:	46bd      	mov	sp, r7
 8005078:	bd80      	pop	{r7, pc}
 800507a:	bf00      	nop
 800507c:	20000000 	.word	0x20000000
 8005080:	431bde83 	.word	0x431bde83

08005084 <ADC_ConversionStop_Disable>:
  *         stopped to disable the ADC.
  * @param  hadc: ADC handle
  * @retval HAL status.
  */
HAL_StatusTypeDef ADC_ConversionStop_Disable(ADC_HandleTypeDef* hadc)
{
 8005084:	b580      	push	{r7, lr}
 8005086:	b084      	sub	sp, #16
 8005088:	af00      	add	r7, sp, #0
 800508a:	6078      	str	r0, [r7, #4]
  uint32_t tickstart = 0U;
 800508c:	2300      	movs	r3, #0
 800508e:	60fb      	str	r3, [r7, #12]
  
  /* Verification if ADC is not already disabled */
  if (ADC_IS_ENABLE(hadc) != RESET)
 8005090:	687b      	ldr	r3, [r7, #4]
 8005092:	681b      	ldr	r3, [r3, #0]
 8005094:	689b      	ldr	r3, [r3, #8]
 8005096:	f003 0301 	and.w	r3, r3, #1
 800509a:	2b01      	cmp	r3, #1
 800509c:	d12e      	bne.n	80050fc <ADC_ConversionStop_Disable+0x78>
  {
    /* Disable the ADC peripheral */
    __HAL_ADC_DISABLE(hadc);
 800509e:	687b      	ldr	r3, [r7, #4]
 80050a0:	681b      	ldr	r3, [r3, #0]
 80050a2:	689a      	ldr	r2, [r3, #8]
 80050a4:	687b      	ldr	r3, [r7, #4]
 80050a6:	681b      	ldr	r3, [r3, #0]
 80050a8:	f022 0201 	bic.w	r2, r2, #1
 80050ac:	609a      	str	r2, [r3, #8]
     
    /* Get tick count */
    tickstart = HAL_GetTick();
 80050ae:	f7ff fbbf 	bl	8004830 <HAL_GetTick>
 80050b2:	60f8      	str	r0, [r7, #12]
    
    /* Wait for ADC effectively disabled */
    while(ADC_IS_ENABLE(hadc) != RESET)
 80050b4:	e01b      	b.n	80050ee <ADC_ConversionStop_Disable+0x6a>
    {
      if((HAL_GetTick() - tickstart) > ADC_DISABLE_TIMEOUT)
 80050b6:	f7ff fbbb 	bl	8004830 <HAL_GetTick>
 80050ba:	4602      	mov	r2, r0
 80050bc:	68fb      	ldr	r3, [r7, #12]
 80050be:	1ad3      	subs	r3, r2, r3
 80050c0:	2b02      	cmp	r3, #2
 80050c2:	d914      	bls.n	80050ee <ADC_ConversionStop_Disable+0x6a>
      {
        /* New check to avoid false timeout detection in case of preemption */
        if(ADC_IS_ENABLE(hadc) != RESET)
 80050c4:	687b      	ldr	r3, [r7, #4]
 80050c6:	681b      	ldr	r3, [r3, #0]
 80050c8:	689b      	ldr	r3, [r3, #8]
 80050ca:	f003 0301 	and.w	r3, r3, #1
 80050ce:	2b01      	cmp	r3, #1
 80050d0:	d10d      	bne.n	80050ee <ADC_ConversionStop_Disable+0x6a>
        {
          /* Update ADC state machine to error */
          SET_BIT(hadc->State, HAL_ADC_STATE_ERROR_INTERNAL);
 80050d2:	687b      	ldr	r3, [r7, #4]
 80050d4:	6a9b      	ldr	r3, [r3, #40]	; 0x28
 80050d6:	f043 0210 	orr.w	r2, r3, #16
 80050da:	687b      	ldr	r3, [r7, #4]
 80050dc:	629a      	str	r2, [r3, #40]	; 0x28

          /* Set ADC error code to ADC IP internal error */
          SET_BIT(hadc->ErrorCode, HAL_ADC_ERROR_INTERNAL);
 80050de:	687b      	ldr	r3, [r7, #4]
 80050e0:	6adb      	ldr	r3, [r3, #44]	; 0x2c
 80050e2:	f043 0201 	orr.w	r2, r3, #1
 80050e6:	687b      	ldr	r3, [r7, #4]
 80050e8:	62da      	str	r2, [r3, #44]	; 0x2c

          return HAL_ERROR;
 80050ea:	2301      	movs	r3, #1
 80050ec:	e007      	b.n	80050fe <ADC_ConversionStop_Disable+0x7a>
    while(ADC_IS_ENABLE(hadc) != RESET)
 80050ee:	687b      	ldr	r3, [r7, #4]
 80050f0:	681b      	ldr	r3, [r3, #0]
 80050f2:	689b      	ldr	r3, [r3, #8]
 80050f4:	f003 0301 	and.w	r3, r3, #1
 80050f8:	2b01      	cmp	r3, #1
 80050fa:	d0dc      	beq.n	80050b6 <ADC_ConversionStop_Disable+0x32>
      }
    }
  }
  
  /* Return HAL status */
  return HAL_OK;
 80050fc:	2300      	movs	r3, #0
}
 80050fe:	4618      	mov	r0, r3
 8005100:	3710      	adds	r7, #16
 8005102:	46bd      	mov	sp, r7
 8005104:	bd80      	pop	{r7, pc}
	...

08005108 <HAL_ADCEx_Calibration_Start>:
  *         the completion of this function.
  * @param  hadc: ADC handle
  * @retval HAL status
  */
HAL_StatusTypeDef HAL_ADCEx_Calibration_Start(ADC_HandleTypeDef* hadc)
{
 8005108:	b590      	push	{r4, r7, lr}
 800510a:	b087      	sub	sp, #28
 800510c:	af00      	add	r7, sp, #0
 800510e:	6078      	str	r0, [r7, #4]
  HAL_StatusTypeDef tmp_hal_status = HAL_OK;
 8005110:	2300      	movs	r3, #0
 8005112:	75fb      	strb	r3, [r7, #23]
  uint32_t tickstart;
  __IO uint32_t wait_loop_index = 0U;
 8005114:	2300      	movs	r3, #0
 8005116:	60fb      	str	r3, [r7, #12]
  
  /* Check the parameters */
  assert_param(IS_ADC_ALL_INSTANCE(hadc->Instance));

  /* Process locked */
  __HAL_LOCK(hadc);
 8005118:	687b      	ldr	r3, [r7, #4]
 800511a:	f893 3024 	ldrb.w	r3, [r3, #36]	; 0x24
 800511e:	2b01      	cmp	r3, #1
 8005120:	d101      	bne.n	8005126 <HAL_ADCEx_Calibration_Start+0x1e>
 8005122:	2302      	movs	r3, #2
 8005124:	e097      	b.n	8005256 <HAL_ADCEx_Calibration_Start+0x14e>
 8005126:	687b      	ldr	r3, [r7, #4]
 8005128:	2201      	movs	r2, #1
 800512a:	f883 2024 	strb.w	r2, [r3, #36]	; 0x24
    
   /* 1. Disable ADC peripheral                                                 */
   tmp_hal_status = ADC_ConversionStop_Disable(hadc);
 800512e:	6878      	ldr	r0, [r7, #4]
 8005130:	f7ff ffa8 	bl	8005084 <ADC_ConversionStop_Disable>
 8005134:	4603      	mov	r3, r0
 8005136:	75fb      	strb	r3, [r7, #23]
  
   /* 2. Calibration prerequisite delay before starting the calibration.       */
   /*    - ADC must be enabled for at least two ADC clock cycles               */
   tmp_hal_status = ADC_Enable(hadc);
 8005138:	6878      	ldr	r0, [r7, #4]
 800513a:	f7ff ff49 	bl	8004fd0 <ADC_Enable>
 800513e:	4603      	mov	r3, r0
 8005140:	75fb      	strb	r3, [r7, #23]

   /* Check if ADC is effectively enabled */
   if (tmp_hal_status == HAL_OK)
 8005142:	7dfb      	ldrb	r3, [r7, #23]
 8005144:	2b00      	cmp	r3, #0
 8005146:	f040 8081 	bne.w	800524c <HAL_ADCEx_Calibration_Start+0x144>
   {
     /* Set ADC state */
     ADC_STATE_CLR_SET(hadc->State,
 800514a:	687b      	ldr	r3, [r7, #4]
 800514c:	6a9b      	ldr	r3, [r3, #40]	; 0x28
 800514e:	f423 5388 	bic.w	r3, r3, #4352	; 0x1100
 8005152:	f023 0302 	bic.w	r3, r3, #2
 8005156:	f043 0202 	orr.w	r2, r3, #2
 800515a:	687b      	ldr	r3, [r7, #4]
 800515c:	629a      	str	r2, [r3, #40]	; 0x28
    
    /* Hardware prerequisite: delay before starting the calibration.          */
    /*  - Computation of CPU clock cycles corresponding to ADC clock cycles.  */
    /*  - Wait for the expected ADC clock cycles delay */
    wait_loop_index = ((SystemCoreClock
                        / HAL_RCCEx_GetPeriphCLKFreq(RCC_PERIPHCLK_ADC))
 800515e:	4b40      	ldr	r3, [pc, #256]	; (8005260 <HAL_ADCEx_Calibration_Start+0x158>)
 8005160:	681c      	ldr	r4, [r3, #0]
 8005162:	2002      	movs	r0, #2
 8005164:	f001 f824 	bl	80061b0 <HAL_RCCEx_GetPeriphCLKFreq>
 8005168:	4603      	mov	r3, r0
 800516a:	fbb4 f3f3 	udiv	r3, r4, r3
                       * ADC_PRECALIBRATION_DELAY_ADCCLOCKCYCLES        );
 800516e:	005b      	lsls	r3, r3, #1
    wait_loop_index = ((SystemCoreClock
 8005170:	60fb      	str	r3, [r7, #12]

    while(wait_loop_index != 0U)
 8005172:	e002      	b.n	800517a <HAL_ADCEx_Calibration_Start+0x72>
    {
      wait_loop_index--;
 8005174:	68fb      	ldr	r3, [r7, #12]
 8005176:	3b01      	subs	r3, #1
 8005178:	60fb      	str	r3, [r7, #12]
    while(wait_loop_index != 0U)
 800517a:	68fb      	ldr	r3, [r7, #12]
 800517c:	2b00      	cmp	r3, #0
 800517e:	d1f9      	bne.n	8005174 <HAL_ADCEx_Calibration_Start+0x6c>
    }

    /* 3. Resets ADC calibration registers */  
    SET_BIT(hadc->Instance->CR2, ADC_CR2_RSTCAL);
 8005180:	687b      	ldr	r3, [r7, #4]
 8005182:	681b      	ldr	r3, [r3, #0]
 8005184:	689a      	ldr	r2, [r3, #8]
 8005186:	687b      	ldr	r3, [r7, #4]
 8005188:	681b      	ldr	r3, [r3, #0]
 800518a:	f042 0208 	orr.w	r2, r2, #8
 800518e:	609a      	str	r2, [r3, #8]
    
    tickstart = HAL_GetTick();  
 8005190:	f7ff fb4e 	bl	8004830 <HAL_GetTick>
 8005194:	6138      	str	r0, [r7, #16]

    /* Wait for calibration reset completion */
    while(HAL_IS_BIT_SET(hadc->Instance->CR2, ADC_CR2_RSTCAL))
 8005196:	e01b      	b.n	80051d0 <HAL_ADCEx_Calibration_Start+0xc8>
    {
      if((HAL_GetTick() - tickstart) > ADC_CALIBRATION_TIMEOUT)
 8005198:	f7ff fb4a 	bl	8004830 <HAL_GetTick>
 800519c:	4602      	mov	r2, r0
 800519e:	693b      	ldr	r3, [r7, #16]
 80051a0:	1ad3      	subs	r3, r2, r3
 80051a2:	2b0a      	cmp	r3, #10
 80051a4:	d914      	bls.n	80051d0 <HAL_ADCEx_Calibration_Start+0xc8>
      {
        /* New check to avoid false timeout detection in case of preemption */
        if(HAL_IS_BIT_SET(hadc->Instance->CR2, ADC_CR2_RSTCAL))
 80051a6:	687b      	ldr	r3, [r7, #4]
 80051a8:	681b      	ldr	r3, [r3, #0]
 80051aa:	689b      	ldr	r3, [r3, #8]
 80051ac:	f003 0308 	and.w	r3, r3, #8
 80051b0:	2b00      	cmp	r3, #0
 80051b2:	d00d      	beq.n	80051d0 <HAL_ADCEx_Calibration_Start+0xc8>
        {
          /* Update ADC state machine to error */
          ADC_STATE_CLR_SET(hadc->State,
 80051b4:	687b      	ldr	r3, [r7, #4]
 80051b6:	6a9b      	ldr	r3, [r3, #40]	; 0x28
 80051b8:	f023 0312 	bic.w	r3, r3, #18
 80051bc:	f043 0210 	orr.w	r2, r3, #16
 80051c0:	687b      	ldr	r3, [r7, #4]
 80051c2:	629a      	str	r2, [r3, #40]	; 0x28
                            HAL_ADC_STATE_BUSY_INTERNAL,
                            HAL_ADC_STATE_ERROR_INTERNAL);

          /* Process unlocked */
          __HAL_UNLOCK(hadc);
 80051c4:	687b      	ldr	r3, [r7, #4]
 80051c6:	2200      	movs	r2, #0
 80051c8:	f883 2024 	strb.w	r2, [r3, #36]	; 0x24

          return HAL_ERROR;
 80051cc:	2301      	movs	r3, #1
 80051ce:	e042      	b.n	8005256 <HAL_ADCEx_Calibration_Start+0x14e>
    while(HAL_IS_BIT_SET(hadc->Instance->CR2, ADC_CR2_RSTCAL))
 80051d0:	687b      	ldr	r3, [r7, #4]
 80051d2:	681b      	ldr	r3, [r3, #0]
 80051d4:	689b      	ldr	r3, [r3, #8]
 80051d6:	f003 0308 	and.w	r3, r3, #8
 80051da:	2b00      	cmp	r3, #0
 80051dc:	d1dc      	bne.n	8005198 <HAL_ADCEx_Calibration_Start+0x90>
        }
      }
    }
    
    /* 4. Start ADC calibration */
    SET_BIT(hadc->Instance->CR2, ADC_CR2_CAL);
 80051de:	687b      	ldr	r3, [r7, #4]
 80051e0:	681b      	ldr	r3, [r3, #0]
 80051e2:	689a      	ldr	r2, [r3, #8]
 80051e4:	687b      	ldr	r3, [r7, #4]
 80051e6:	681b      	ldr	r3, [r3, #0]
 80051e8:	f042 0204 	orr.w	r2, r2, #4
 80051ec:	609a      	str	r2, [r3, #8]
    
    tickstart = HAL_GetTick();  
 80051ee:	f7ff fb1f 	bl	8004830 <HAL_GetTick>
 80051f2:	6138      	str	r0, [r7, #16]

    /* Wait for calibration completion */
    while(HAL_IS_BIT_SET(hadc->Instance->CR2, ADC_CR2_CAL))
 80051f4:	e01b      	b.n	800522e <HAL_ADCEx_Calibration_Start+0x126>
    {
      if((HAL_GetTick() - tickstart) > ADC_CALIBRATION_TIMEOUT)
 80051f6:	f7ff fb1b 	bl	8004830 <HAL_GetTick>
 80051fa:	4602      	mov	r2, r0
 80051fc:	693b      	ldr	r3, [r7, #16]
 80051fe:	1ad3      	subs	r3, r2, r3
 8005200:	2b0a      	cmp	r3, #10
 8005202:	d914      	bls.n	800522e <HAL_ADCEx_Calibration_Start+0x126>
      {
        /* New check to avoid false timeout detection in case of preemption */
        if(HAL_IS_BIT_SET(hadc->Instance->CR2, ADC_CR2_CAL))
 8005204:	687b      	ldr	r3, [r7, #4]
 8005206:	681b      	ldr	r3, [r3, #0]
 8005208:	689b      	ldr	r3, [r3, #8]
 800520a:	f003 0304 	and.w	r3, r3, #4
 800520e:	2b00      	cmp	r3, #0
 8005210:	d00d      	beq.n	800522e <HAL_ADCEx_Calibration_Start+0x126>
        {
          /* Update ADC state machine to error */
          ADC_STATE_CLR_SET(hadc->State,
 8005212:	687b      	ldr	r3, [r7, #4]
 8005214:	6a9b      	ldr	r3, [r3, #40]	; 0x28
 8005216:	f023 0312 	bic.w	r3, r3, #18
 800521a:	f043 0210 	orr.w	r2, r3, #16
 800521e:	687b      	ldr	r3, [r7, #4]
 8005220:	629a      	str	r2, [r3, #40]	; 0x28
                            HAL_ADC_STATE_BUSY_INTERNAL,
                            HAL_ADC_STATE_ERROR_INTERNAL);

          /* Process unlocked */
          __HAL_UNLOCK(hadc);
 8005222:	687b      	ldr	r3, [r7, #4]
 8005224:	2200      	movs	r2, #0
 8005226:	f883 2024 	strb.w	r2, [r3, #36]	; 0x24

          return HAL_ERROR;
 800522a:	2301      	movs	r3, #1
 800522c:	e013      	b.n	8005256 <HAL_ADCEx_Calibration_Start+0x14e>
    while(HAL_IS_BIT_SET(hadc->Instance->CR2, ADC_CR2_CAL))
 800522e:	687b      	ldr	r3, [r7, #4]
 8005230:	681b      	ldr	r3, [r3, #0]
 8005232:	689b      	ldr	r3, [r3, #8]
 8005234:	f003 0304 	and.w	r3, r3, #4
 8005238:	2b00      	cmp	r3, #0
 800523a:	d1dc      	bne.n	80051f6 <HAL_ADCEx_Calibration_Start+0xee>
        }
      }
    }
    
    /* Set ADC state */
    ADC_STATE_CLR_SET(hadc->State,
 800523c:	687b      	ldr	r3, [r7, #4]
 800523e:	6a9b      	ldr	r3, [r3, #40]	; 0x28
 8005240:	f023 0303 	bic.w	r3, r3, #3
 8005244:	f043 0201 	orr.w	r2, r3, #1
 8005248:	687b      	ldr	r3, [r7, #4]
 800524a:	629a      	str	r2, [r3, #40]	; 0x28
                      HAL_ADC_STATE_BUSY_INTERNAL,
                      HAL_ADC_STATE_READY);
  }
  
  /* Process unlocked */
  __HAL_UNLOCK(hadc);
 800524c:	687b      	ldr	r3, [r7, #4]
 800524e:	2200      	movs	r2, #0
 8005250:	f883 2024 	strb.w	r2, [r3, #36]	; 0x24
  
  /* Return function status */
  return tmp_hal_status;
 8005254:	7dfb      	ldrb	r3, [r7, #23]
}
 8005256:	4618      	mov	r0, r3
 8005258:	371c      	adds	r7, #28
 800525a:	46bd      	mov	sp, r7
 800525c:	bd90      	pop	{r4, r7, pc}
 800525e:	bf00      	nop
 8005260:	20000000 	.word	0x20000000

08005264 <__NVIC_SetPriorityGrouping>:
           In case of a conflict between priority grouping and available
           priority bits (__NVIC_PRIO_BITS), the smallest possible priority group is set.
  \param [in]      PriorityGroup  Priority grouping field.
 */
__STATIC_INLINE void __NVIC_SetPriorityGrouping(uint32_t PriorityGroup)
{
 8005264:	b480      	push	{r7}
 8005266:	b085      	sub	sp, #20
 8005268:	af00      	add	r7, sp, #0
 800526a:	6078      	str	r0, [r7, #4]
  uint32_t reg_value;
  uint32_t PriorityGroupTmp = (PriorityGroup & (uint32_t)0x07UL);             /* only values 0..7 are used          */
 800526c:	687b      	ldr	r3, [r7, #4]
 800526e:	f003 0307 	and.w	r3, r3, #7
 8005272:	60fb      	str	r3, [r7, #12]

  reg_value  =  SCB->AIRCR;                                                   /* read old register configuration    */
 8005274:	4b0c      	ldr	r3, [pc, #48]	; (80052a8 <__NVIC_SetPriorityGrouping+0x44>)
 8005276:	68db      	ldr	r3, [r3, #12]
 8005278:	60bb      	str	r3, [r7, #8]
  reg_value &= ~((uint32_t)(SCB_AIRCR_VECTKEY_Msk | SCB_AIRCR_PRIGROUP_Msk)); /* clear bits to change               */
 800527a:	68ba      	ldr	r2, [r7, #8]
 800527c:	f64f 03ff 	movw	r3, #63743	; 0xf8ff
 8005280:	4013      	ands	r3, r2
 8005282:	60bb      	str	r3, [r7, #8]
  reg_value  =  (reg_value                                   |
                ((uint32_t)0x5FAUL << SCB_AIRCR_VECTKEY_Pos) |
                (PriorityGroupTmp << SCB_AIRCR_PRIGROUP_Pos) );               /* Insert write key and priority group */
 8005284:	68fb      	ldr	r3, [r7, #12]
 8005286:	021a      	lsls	r2, r3, #8
                ((uint32_t)0x5FAUL << SCB_AIRCR_VECTKEY_Pos) |
 8005288:	68bb      	ldr	r3, [r7, #8]
 800528a:	4313      	orrs	r3, r2
  reg_value  =  (reg_value                                   |
 800528c:	f043 63bf 	orr.w	r3, r3, #100139008	; 0x5f80000
 8005290:	f443 3300 	orr.w	r3, r3, #131072	; 0x20000
 8005294:	60bb      	str	r3, [r7, #8]
  SCB->AIRCR =  reg_value;
 8005296:	4a04      	ldr	r2, [pc, #16]	; (80052a8 <__NVIC_SetPriorityGrouping+0x44>)
 8005298:	68bb      	ldr	r3, [r7, #8]
 800529a:	60d3      	str	r3, [r2, #12]
}
 800529c:	bf00      	nop
 800529e:	3714      	adds	r7, #20
 80052a0:	46bd      	mov	sp, r7
 80052a2:	bc80      	pop	{r7}
 80052a4:	4770      	bx	lr
 80052a6:	bf00      	nop
 80052a8:	e000ed00 	.word	0xe000ed00

080052ac <__NVIC_GetPriorityGrouping>:
  \brief   Get Priority Grouping
  \details Reads the priority grouping field from the NVIC Interrupt Controller.
  \return                Priority grouping field (SCB->AIRCR [10:8] PRIGROUP field).
 */
__STATIC_INLINE uint32_t __NVIC_GetPriorityGrouping(void)
{
 80052ac:	b480      	push	{r7}
 80052ae:	af00      	add	r7, sp, #0
  return ((uint32_t)((SCB->AIRCR & SCB_AIRCR_PRIGROUP_Msk) >> SCB_AIRCR_PRIGROUP_Pos));
 80052b0:	4b04      	ldr	r3, [pc, #16]	; (80052c4 <__NVIC_GetPriorityGrouping+0x18>)
 80052b2:	68db      	ldr	r3, [r3, #12]
 80052b4:	0a1b      	lsrs	r3, r3, #8
 80052b6:	f003 0307 	and.w	r3, r3, #7
}
 80052ba:	4618      	mov	r0, r3
 80052bc:	46bd      	mov	sp, r7
 80052be:	bc80      	pop	{r7}
 80052c0:	4770      	bx	lr
 80052c2:	bf00      	nop
 80052c4:	e000ed00 	.word	0xe000ed00

080052c8 <__NVIC_EnableIRQ>:
  \details Enables a device specific interrupt in the NVIC interrupt controller.
  \param [in]      IRQn  Device specific interrupt number.
  \note    IRQn must not be negative.
 */
__STATIC_INLINE void __NVIC_EnableIRQ(IRQn_Type IRQn)
{
 80052c8:	b480      	push	{r7}
 80052ca:	b083      	sub	sp, #12
 80052cc:	af00      	add	r7, sp, #0
 80052ce:	4603      	mov	r3, r0
 80052d0:	71fb      	strb	r3, [r7, #7]
  if ((int32_t)(IRQn) >= 0)
 80052d2:	f997 3007 	ldrsb.w	r3, [r7, #7]
 80052d6:	2b00      	cmp	r3, #0
 80052d8:	db0b      	blt.n	80052f2 <__NVIC_EnableIRQ+0x2a>
  {
    NVIC->ISER[(((uint32_t)IRQn) >> 5UL)] = (uint32_t)(1UL << (((uint32_t)IRQn) & 0x1FUL));
 80052da:	79fb      	ldrb	r3, [r7, #7]
 80052dc:	f003 021f 	and.w	r2, r3, #31
 80052e0:	4906      	ldr	r1, [pc, #24]	; (80052fc <__NVIC_EnableIRQ+0x34>)
 80052e2:	f997 3007 	ldrsb.w	r3, [r7, #7]
 80052e6:	095b      	lsrs	r3, r3, #5
 80052e8:	2001      	movs	r0, #1
 80052ea:	fa00 f202 	lsl.w	r2, r0, r2
 80052ee:	f841 2023 	str.w	r2, [r1, r3, lsl #2]
  }
}
 80052f2:	bf00      	nop
 80052f4:	370c      	adds	r7, #12
 80052f6:	46bd      	mov	sp, r7
 80052f8:	bc80      	pop	{r7}
 80052fa:	4770      	bx	lr
 80052fc:	e000e100 	.word	0xe000e100

08005300 <__NVIC_SetPriority>:
  \param [in]      IRQn  Interrupt number.
  \param [in]  priority  Priority to set.
  \note    The priority cannot be set for every processor exception.
 */
__STATIC_INLINE void __NVIC_SetPriority(IRQn_Type IRQn, uint32_t priority)
{
 8005300:	b480      	push	{r7}
 8005302:	b083      	sub	sp, #12
 8005304:	af00      	add	r7, sp, #0
 8005306:	4603      	mov	r3, r0
 8005308:	6039      	str	r1, [r7, #0]
 800530a:	71fb      	strb	r3, [r7, #7]
  if ((int32_t)(IRQn) >= 0)
 800530c:	f997 3007 	ldrsb.w	r3, [r7, #7]
 8005310:	2b00      	cmp	r3, #0
 8005312:	db0a      	blt.n	800532a <__NVIC_SetPriority+0x2a>
  {
    NVIC->IP[((uint32_t)IRQn)]               = (uint8_t)((priority << (8U - __NVIC_PRIO_BITS)) & (uint32_t)0xFFUL);
 8005314:	683b      	ldr	r3, [r7, #0]
 8005316:	b2da      	uxtb	r2, r3
 8005318:	490c      	ldr	r1, [pc, #48]	; (800534c <__NVIC_SetPriority+0x4c>)
 800531a:	f997 3007 	ldrsb.w	r3, [r7, #7]
 800531e:	0112      	lsls	r2, r2, #4
 8005320:	b2d2      	uxtb	r2, r2
 8005322:	440b      	add	r3, r1
 8005324:	f883 2300 	strb.w	r2, [r3, #768]	; 0x300
  }
  else
  {
    SCB->SHP[(((uint32_t)IRQn) & 0xFUL)-4UL] = (uint8_t)((priority << (8U - __NVIC_PRIO_BITS)) & (uint32_t)0xFFUL);
  }
}
 8005328:	e00a      	b.n	8005340 <__NVIC_SetPriority+0x40>
    SCB->SHP[(((uint32_t)IRQn) & 0xFUL)-4UL] = (uint8_t)((priority << (8U - __NVIC_PRIO_BITS)) & (uint32_t)0xFFUL);
 800532a:	683b      	ldr	r3, [r7, #0]
 800532c:	b2da      	uxtb	r2, r3
 800532e:	4908      	ldr	r1, [pc, #32]	; (8005350 <__NVIC_SetPriority+0x50>)
 8005330:	79fb      	ldrb	r3, [r7, #7]
 8005332:	f003 030f 	and.w	r3, r3, #15
 8005336:	3b04      	subs	r3, #4
 8005338:	0112      	lsls	r2, r2, #4
 800533a:	b2d2      	uxtb	r2, r2
 800533c:	440b      	add	r3, r1
 800533e:	761a      	strb	r2, [r3, #24]
}
 8005340:	bf00      	nop
 8005342:	370c      	adds	r7, #12
 8005344:	46bd      	mov	sp, r7
 8005346:	bc80      	pop	{r7}
 8005348:	4770      	bx	lr
 800534a:	bf00      	nop
 800534c:	e000e100 	.word	0xe000e100
 8005350:	e000ed00 	.word	0xe000ed00

08005354 <NVIC_EncodePriority>:
  \param [in]   PreemptPriority  Preemptive priority value (starting from 0).
  \param [in]       SubPriority  Subpriority value (starting from 0).
  \return                        Encoded priority. Value can be used in the function \ref NVIC_SetPriority().
 */
__STATIC_INLINE uint32_t NVIC_EncodePriority (uint32_t PriorityGroup, uint32_t PreemptPriority, uint32_t SubPriority)
{
 8005354:	b480      	push	{r7}
 8005356:	b089      	sub	sp, #36	; 0x24
 8005358:	af00      	add	r7, sp, #0
 800535a:	60f8      	str	r0, [r7, #12]
 800535c:	60b9      	str	r1, [r7, #8]
 800535e:	607a      	str	r2, [r7, #4]
  uint32_t PriorityGroupTmp = (PriorityGroup & (uint32_t)0x07UL);   /* only values 0..7 are used          */
 8005360:	68fb      	ldr	r3, [r7, #12]
 8005362:	f003 0307 	and.w	r3, r3, #7
 8005366:	61fb      	str	r3, [r7, #28]
  uint32_t PreemptPriorityBits;
  uint32_t SubPriorityBits;

  PreemptPriorityBits = ((7UL - PriorityGroupTmp) > (uint32_t)(__NVIC_PRIO_BITS)) ? (uint32_t)(__NVIC_PRIO_BITS) : (uint32_t)(7UL - PriorityGroupTmp);
 8005368:	69fb      	ldr	r3, [r7, #28]
 800536a:	f1c3 0307 	rsb	r3, r3, #7
 800536e:	2b04      	cmp	r3, #4
 8005370:	bf28      	it	cs
 8005372:	2304      	movcs	r3, #4
 8005374:	61bb      	str	r3, [r7, #24]
  SubPriorityBits     = ((PriorityGroupTmp + (uint32_t)(__NVIC_PRIO_BITS)) < (uint32_t)7UL) ? (uint32_t)0UL : (uint32_t)((PriorityGroupTmp - 7UL) + (uint32_t)(__NVIC_PRIO_BITS));
 8005376:	69fb      	ldr	r3, [r7, #28]
 8005378:	3304      	adds	r3, #4
 800537a:	2b06      	cmp	r3, #6
 800537c:	d902      	bls.n	8005384 <NVIC_EncodePriority+0x30>
 800537e:	69fb      	ldr	r3, [r7, #28]
 8005380:	3b03      	subs	r3, #3
 8005382:	e000      	b.n	8005386 <NVIC_EncodePriority+0x32>
 8005384:	2300      	movs	r3, #0
 8005386:	617b      	str	r3, [r7, #20]

  return (
           ((PreemptPriority & (uint32_t)((1UL << (PreemptPriorityBits)) - 1UL)) << SubPriorityBits) |
 8005388:	f04f 32ff 	mov.w	r2, #4294967295
 800538c:	69bb      	ldr	r3, [r7, #24]
 800538e:	fa02 f303 	lsl.w	r3, r2, r3
 8005392:	43da      	mvns	r2, r3
 8005394:	68bb      	ldr	r3, [r7, #8]
 8005396:	401a      	ands	r2, r3
 8005398:	697b      	ldr	r3, [r7, #20]
 800539a:	409a      	lsls	r2, r3
           ((SubPriority     & (uint32_t)((1UL << (SubPriorityBits    )) - 1UL)))
 800539c:	f04f 31ff 	mov.w	r1, #4294967295
 80053a0:	697b      	ldr	r3, [r7, #20]
 80053a2:	fa01 f303 	lsl.w	r3, r1, r3
 80053a6:	43d9      	mvns	r1, r3
 80053a8:	687b      	ldr	r3, [r7, #4]
 80053aa:	400b      	ands	r3, r1
           ((PreemptPriority & (uint32_t)((1UL << (PreemptPriorityBits)) - 1UL)) << SubPriorityBits) |
 80053ac:	4313      	orrs	r3, r2
         );
}
 80053ae:	4618      	mov	r0, r3
 80053b0:	3724      	adds	r7, #36	; 0x24
 80053b2:	46bd      	mov	sp, r7
 80053b4:	bc80      	pop	{r7}
 80053b6:	4770      	bx	lr

080053b8 <SysTick_Config>:
  \note    When the variable <b>__Vendor_SysTickConfig</b> is set to 1, then the
           function <b>SysTick_Config</b> is not included. In this case, the file <b><i>device</i>.h</b>
           must contain a vendor-specific implementation of this function.
 */
__STATIC_INLINE uint32_t SysTick_Config(uint32_t ticks)
{
 80053b8:	b580      	push	{r7, lr}
 80053ba:	b082      	sub	sp, #8
 80053bc:	af00      	add	r7, sp, #0
 80053be:	6078      	str	r0, [r7, #4]
  if ((ticks - 1UL) > SysTick_LOAD_RELOAD_Msk)
 80053c0:	687b      	ldr	r3, [r7, #4]
 80053c2:	3b01      	subs	r3, #1
 80053c4:	f1b3 7f80 	cmp.w	r3, #16777216	; 0x1000000
 80053c8:	d301      	bcc.n	80053ce <SysTick_Config+0x16>
  {
    return (1UL);                                                   /* Reload value impossible */
 80053ca:	2301      	movs	r3, #1
 80053cc:	e00f      	b.n	80053ee <SysTick_Config+0x36>
  }

  SysTick->LOAD  = (uint32_t)(ticks - 1UL);                         /* set reload register */
 80053ce:	4a0a      	ldr	r2, [pc, #40]	; (80053f8 <SysTick_Config+0x40>)
 80053d0:	687b      	ldr	r3, [r7, #4]
 80053d2:	3b01      	subs	r3, #1
 80053d4:	6053      	str	r3, [r2, #4]
  NVIC_SetPriority (SysTick_IRQn, (1UL << __NVIC_PRIO_BITS) - 1UL); /* set Priority for Systick Interrupt */
 80053d6:	210f      	movs	r1, #15
 80053d8:	f04f 30ff 	mov.w	r0, #4294967295
 80053dc:	f7ff ff90 	bl	8005300 <__NVIC_SetPriority>
  SysTick->VAL   = 0UL;                                             /* Load the SysTick Counter Value */
 80053e0:	4b05      	ldr	r3, [pc, #20]	; (80053f8 <SysTick_Config+0x40>)
 80053e2:	2200      	movs	r2, #0
 80053e4:	609a      	str	r2, [r3, #8]
  SysTick->CTRL  = SysTick_CTRL_CLKSOURCE_Msk |
 80053e6:	4b04      	ldr	r3, [pc, #16]	; (80053f8 <SysTick_Config+0x40>)
 80053e8:	2207      	movs	r2, #7
 80053ea:	601a      	str	r2, [r3, #0]
                   SysTick_CTRL_TICKINT_Msk   |
                   SysTick_CTRL_ENABLE_Msk;                         /* Enable SysTick IRQ and SysTick Timer */
  return (0UL);                                                     /* Function successful */
 80053ec:	2300      	movs	r3, #0
}
 80053ee:	4618      	mov	r0, r3
 80053f0:	3708      	adds	r7, #8
 80053f2:	46bd      	mov	sp, r7
 80053f4:	bd80      	pop	{r7, pc}
 80053f6:	bf00      	nop
 80053f8:	e000e010 	.word	0xe000e010

080053fc <HAL_NVIC_SetPriorityGrouping>:
  * @note   When the NVIC_PriorityGroup_0 is selected, IRQ preemption is no more possible. 
  *         The pending IRQ priority will be managed only by the subpriority. 
  * @retval None
  */
void HAL_NVIC_SetPriorityGrouping(uint32_t PriorityGroup)
{
 80053fc:	b580      	push	{r7, lr}
 80053fe:	b082      	sub	sp, #8
 8005400:	af00      	add	r7, sp, #0
 8005402:	6078      	str	r0, [r7, #4]
  /* Check the parameters */
  assert_param(IS_NVIC_PRIORITY_GROUP(PriorityGroup));
  
  /* Set the PRIGROUP[10:8] bits according to the PriorityGroup parameter value */
  NVIC_SetPriorityGrouping(PriorityGroup);
 8005404:	6878      	ldr	r0, [r7, #4]
 8005406:	f7ff ff2d 	bl	8005264 <__NVIC_SetPriorityGrouping>
}
 800540a:	bf00      	nop
 800540c:	3708      	adds	r7, #8
 800540e:	46bd      	mov	sp, r7
 8005410:	bd80      	pop	{r7, pc}

08005412 <HAL_NVIC_SetPriority>:
  *         This parameter can be a value between 0 and 15
  *         A lower priority value indicates a higher priority.          
  * @retval None
  */
void HAL_NVIC_SetPriority(IRQn_Type IRQn, uint32_t PreemptPriority, uint32_t SubPriority)
{ 
 8005412:	b580      	push	{r7, lr}
 8005414:	b086      	sub	sp, #24
 8005416:	af00      	add	r7, sp, #0
 8005418:	4603      	mov	r3, r0
 800541a:	60b9      	str	r1, [r7, #8]
 800541c:	607a      	str	r2, [r7, #4]
 800541e:	73fb      	strb	r3, [r7, #15]
  uint32_t prioritygroup = 0x00U;
 8005420:	2300      	movs	r3, #0
 8005422:	617b      	str	r3, [r7, #20]
  
  /* Check the parameters */
  assert_param(IS_NVIC_SUB_PRIORITY(SubPriority));
  assert_param(IS_NVIC_PREEMPTION_PRIORITY(PreemptPriority));
  
  prioritygroup = NVIC_GetPriorityGrouping();
 8005424:	f7ff ff42 	bl	80052ac <__NVIC_GetPriorityGrouping>
 8005428:	6178      	str	r0, [r7, #20]
  
  NVIC_SetPriority(IRQn, NVIC_EncodePriority(prioritygroup, PreemptPriority, SubPriority));
 800542a:	687a      	ldr	r2, [r7, #4]
 800542c:	68b9      	ldr	r1, [r7, #8]
 800542e:	6978      	ldr	r0, [r7, #20]
 8005430:	f7ff ff90 	bl	8005354 <NVIC_EncodePriority>
 8005434:	4602      	mov	r2, r0
 8005436:	f997 300f 	ldrsb.w	r3, [r7, #15]
 800543a:	4611      	mov	r1, r2
 800543c:	4618      	mov	r0, r3
 800543e:	f7ff ff5f 	bl	8005300 <__NVIC_SetPriority>
}
 8005442:	bf00      	nop
 8005444:	3718      	adds	r7, #24
 8005446:	46bd      	mov	sp, r7
 8005448:	bd80      	pop	{r7, pc}

0800544a <HAL_NVIC_EnableIRQ>:
  *         This parameter can be an enumerator of IRQn_Type enumeration
  *         (For the complete STM32 Devices IRQ Channels list, please refer to the appropriate CMSIS device file (stm32f10xxx.h))
  * @retval None
  */
void HAL_NVIC_EnableIRQ(IRQn_Type IRQn)
{
 800544a:	b580      	push	{r7, lr}
 800544c:	b082      	sub	sp, #8
 800544e:	af00      	add	r7, sp, #0
 8005450:	4603      	mov	r3, r0
 8005452:	71fb      	strb	r3, [r7, #7]
  /* Check the parameters */
  assert_param(IS_NVIC_DEVICE_IRQ(IRQn));

  /* Enable interrupt */
  NVIC_EnableIRQ(IRQn);
 8005454:	f997 3007 	ldrsb.w	r3, [r7, #7]
 8005458:	4618      	mov	r0, r3
 800545a:	f7ff ff35 	bl	80052c8 <__NVIC_EnableIRQ>
}
 800545e:	bf00      	nop
 8005460:	3708      	adds	r7, #8
 8005462:	46bd      	mov	sp, r7
 8005464:	bd80      	pop	{r7, pc}

08005466 <HAL_SYSTICK_Config>:
  * @param  TicksNumb: Specifies the ticks Number of ticks between two interrupts.
  * @retval status:  - 0  Function succeeded.
  *                  - 1  Function failed.
  */
uint32_t HAL_SYSTICK_Config(uint32_t TicksNumb)
{
 8005466:	b580      	push	{r7, lr}
 8005468:	b082      	sub	sp, #8
 800546a:	af00      	add	r7, sp, #0
 800546c:	6078      	str	r0, [r7, #4]
   return SysTick_Config(TicksNumb);
 800546e:	6878      	ldr	r0, [r7, #4]
 8005470:	f7ff ffa2 	bl	80053b8 <SysTick_Config>
 8005474:	4603      	mov	r3, r0
}
 8005476:	4618      	mov	r0, r3
 8005478:	3708      	adds	r7, #8
 800547a:	46bd      	mov	sp, r7
 800547c:	bd80      	pop	{r7, pc}
	...

08005480 <HAL_GPIO_Init>:
  * @param  GPIO_Init: pointer to a GPIO_InitTypeDef structure that contains
  *         the configuration information for the specified GPIO peripheral.
  * @retval None
  */
void HAL_GPIO_Init(GPIO_TypeDef  *GPIOx, GPIO_InitTypeDef *GPIO_Init)
{
 8005480:	b480      	push	{r7}
 8005482:	b08b      	sub	sp, #44	; 0x2c
 8005484:	af00      	add	r7, sp, #0
 8005486:	6078      	str	r0, [r7, #4]
 8005488:	6039      	str	r1, [r7, #0]
  uint32_t position = 0x00u;
 800548a:	2300      	movs	r3, #0
 800548c:	627b      	str	r3, [r7, #36]	; 0x24
  uint32_t ioposition;
  uint32_t iocurrent;
  uint32_t temp;
  uint32_t config = 0x00u;
 800548e:	2300      	movs	r3, #0
 8005490:	623b      	str	r3, [r7, #32]
  assert_param(IS_GPIO_ALL_INSTANCE(GPIOx));
  assert_param(IS_GPIO_PIN(GPIO_Init->Pin));
  assert_param(IS_GPIO_MODE(GPIO_Init->Mode));

  /* Configure the port pins */
  while (((GPIO_Init->Pin) >> position) != 0x00u)
 8005492:	e179      	b.n	8005788 <HAL_GPIO_Init+0x308>
  {
    /* Get the IO position */
    ioposition = (0x01uL << position);
 8005494:	2201      	movs	r2, #1
 8005496:	6a7b      	ldr	r3, [r7, #36]	; 0x24
 8005498:	fa02 f303 	lsl.w	r3, r2, r3
 800549c:	61fb      	str	r3, [r7, #28]

    /* Get the current IO position */
    iocurrent = (uint32_t)(GPIO_Init->Pin) & ioposition;
 800549e:	683b      	ldr	r3, [r7, #0]
 80054a0:	681b      	ldr	r3, [r3, #0]
 80054a2:	69fa      	ldr	r2, [r7, #28]
 80054a4:	4013      	ands	r3, r2
 80054a6:	61bb      	str	r3, [r7, #24]

    if (iocurrent == ioposition)
 80054a8:	69ba      	ldr	r2, [r7, #24]
 80054aa:	69fb      	ldr	r3, [r7, #28]
 80054ac:	429a      	cmp	r2, r3
 80054ae:	f040 8168 	bne.w	8005782 <HAL_GPIO_Init+0x302>
    {
      /* Check the Alternate function parameters */
      assert_param(IS_GPIO_AF_INSTANCE(GPIOx));

      /* Based on the required mode, filling config variable with MODEy[1:0] and CNFy[3:2] corresponding bits */
      switch (GPIO_Init->Mode)
 80054b2:	683b      	ldr	r3, [r7, #0]
 80054b4:	685b      	ldr	r3, [r3, #4]
 80054b6:	4a96      	ldr	r2, [pc, #600]	; (8005710 <HAL_GPIO_Init+0x290>)
 80054b8:	4293      	cmp	r3, r2
 80054ba:	d05e      	beq.n	800557a <HAL_GPIO_Init+0xfa>
 80054bc:	4a94      	ldr	r2, [pc, #592]	; (8005710 <HAL_GPIO_Init+0x290>)
 80054be:	4293      	cmp	r3, r2
 80054c0:	d875      	bhi.n	80055ae <HAL_GPIO_Init+0x12e>
 80054c2:	4a94      	ldr	r2, [pc, #592]	; (8005714 <HAL_GPIO_Init+0x294>)
 80054c4:	4293      	cmp	r3, r2
 80054c6:	d058      	beq.n	800557a <HAL_GPIO_Init+0xfa>
 80054c8:	4a92      	ldr	r2, [pc, #584]	; (8005714 <HAL_GPIO_Init+0x294>)
 80054ca:	4293      	cmp	r3, r2
 80054cc:	d86f      	bhi.n	80055ae <HAL_GPIO_Init+0x12e>
 80054ce:	4a92      	ldr	r2, [pc, #584]	; (8005718 <HAL_GPIO_Init+0x298>)
 80054d0:	4293      	cmp	r3, r2
 80054d2:	d052      	beq.n	800557a <HAL_GPIO_Init+0xfa>
 80054d4:	4a90      	ldr	r2, [pc, #576]	; (8005718 <HAL_GPIO_Init+0x298>)
 80054d6:	4293      	cmp	r3, r2
 80054d8:	d869      	bhi.n	80055ae <HAL_GPIO_Init+0x12e>
 80054da:	4a90      	ldr	r2, [pc, #576]	; (800571c <HAL_GPIO_Init+0x29c>)
 80054dc:	4293      	cmp	r3, r2
 80054de:	d04c      	beq.n	800557a <HAL_GPIO_Init+0xfa>
 80054e0:	4a8e      	ldr	r2, [pc, #568]	; (800571c <HAL_GPIO_Init+0x29c>)
 80054e2:	4293      	cmp	r3, r2
 80054e4:	d863      	bhi.n	80055ae <HAL_GPIO_Init+0x12e>
 80054e6:	4a8e      	ldr	r2, [pc, #568]	; (8005720 <HAL_GPIO_Init+0x2a0>)
 80054e8:	4293      	cmp	r3, r2
 80054ea:	d046      	beq.n	800557a <HAL_GPIO_Init+0xfa>
 80054ec:	4a8c      	ldr	r2, [pc, #560]	; (8005720 <HAL_GPIO_Init+0x2a0>)
 80054ee:	4293      	cmp	r3, r2
 80054f0:	d85d      	bhi.n	80055ae <HAL_GPIO_Init+0x12e>
 80054f2:	2b12      	cmp	r3, #18
 80054f4:	d82a      	bhi.n	800554c <HAL_GPIO_Init+0xcc>
 80054f6:	2b12      	cmp	r3, #18
 80054f8:	d859      	bhi.n	80055ae <HAL_GPIO_Init+0x12e>
 80054fa:	a201      	add	r2, pc, #4	; (adr r2, 8005500 <HAL_GPIO_Init+0x80>)
 80054fc:	f852 f023 	ldr.w	pc, [r2, r3, lsl #2]
 8005500:	0800557b 	.word	0x0800557b
 8005504:	08005555 	.word	0x08005555
 8005508:	08005567 	.word	0x08005567
 800550c:	080055a9 	.word	0x080055a9
 8005510:	080055af 	.word	0x080055af
 8005514:	080055af 	.word	0x080055af
 8005518:	080055af 	.word	0x080055af
 800551c:	080055af 	.word	0x080055af
 8005520:	080055af 	.word	0x080055af
 8005524:	080055af 	.word	0x080055af
 8005528:	080055af 	.word	0x080055af
 800552c:	080055af 	.word	0x080055af
 8005530:	080055af 	.word	0x080055af
 8005534:	080055af 	.word	0x080055af
 8005538:	080055af 	.word	0x080055af
 800553c:	080055af 	.word	0x080055af
 8005540:	080055af 	.word	0x080055af
 8005544:	0800555d 	.word	0x0800555d
 8005548:	08005571 	.word	0x08005571
 800554c:	4a75      	ldr	r2, [pc, #468]	; (8005724 <HAL_GPIO_Init+0x2a4>)
 800554e:	4293      	cmp	r3, r2
 8005550:	d013      	beq.n	800557a <HAL_GPIO_Init+0xfa>
          config = GPIO_CR_MODE_INPUT + GPIO_CR_CNF_ANALOG;
          break;

        /* Parameters are checked with assert_param */
        default:
          break;
 8005552:	e02c      	b.n	80055ae <HAL_GPIO_Init+0x12e>
          config = GPIO_Init->Speed + GPIO_CR_CNF_GP_OUTPUT_PP;
 8005554:	683b      	ldr	r3, [r7, #0]
 8005556:	68db      	ldr	r3, [r3, #12]
 8005558:	623b      	str	r3, [r7, #32]
          break;
 800555a:	e029      	b.n	80055b0 <HAL_GPIO_Init+0x130>
          config = GPIO_Init->Speed + GPIO_CR_CNF_GP_OUTPUT_OD;
 800555c:	683b      	ldr	r3, [r7, #0]
 800555e:	68db      	ldr	r3, [r3, #12]
 8005560:	3304      	adds	r3, #4
 8005562:	623b      	str	r3, [r7, #32]
          break;
 8005564:	e024      	b.n	80055b0 <HAL_GPIO_Init+0x130>
          config = GPIO_Init->Speed + GPIO_CR_CNF_AF_OUTPUT_PP;
 8005566:	683b      	ldr	r3, [r7, #0]
 8005568:	68db      	ldr	r3, [r3, #12]
 800556a:	3308      	adds	r3, #8
 800556c:	623b      	str	r3, [r7, #32]
          break;
 800556e:	e01f      	b.n	80055b0 <HAL_GPIO_Init+0x130>
          config = GPIO_Init->Speed + GPIO_CR_CNF_AF_OUTPUT_OD;
 8005570:	683b      	ldr	r3, [r7, #0]
 8005572:	68db      	ldr	r3, [r3, #12]
 8005574:	330c      	adds	r3, #12
 8005576:	623b      	str	r3, [r7, #32]
          break;
 8005578:	e01a      	b.n	80055b0 <HAL_GPIO_Init+0x130>
          if (GPIO_Init->Pull == GPIO_NOPULL)
 800557a:	683b      	ldr	r3, [r7, #0]
 800557c:	689b      	ldr	r3, [r3, #8]
 800557e:	2b00      	cmp	r3, #0
 8005580:	d102      	bne.n	8005588 <HAL_GPIO_Init+0x108>
            config = GPIO_CR_MODE_INPUT + GPIO_CR_CNF_INPUT_FLOATING;
 8005582:	2304      	movs	r3, #4
 8005584:	623b      	str	r3, [r7, #32]
          break;
 8005586:	e013      	b.n	80055b0 <HAL_GPIO_Init+0x130>
          else if (GPIO_Init->Pull == GPIO_PULLUP)
 8005588:	683b      	ldr	r3, [r7, #0]
 800558a:	689b      	ldr	r3, [r3, #8]
 800558c:	2b01      	cmp	r3, #1
 800558e:	d105      	bne.n	800559c <HAL_GPIO_Init+0x11c>
            config = GPIO_CR_MODE_INPUT + GPIO_CR_CNF_INPUT_PU_PD;
 8005590:	2308      	movs	r3, #8
 8005592:	623b      	str	r3, [r7, #32]
            GPIOx->BSRR = ioposition;
 8005594:	687b      	ldr	r3, [r7, #4]
 8005596:	69fa      	ldr	r2, [r7, #28]
 8005598:	611a      	str	r2, [r3, #16]
          break;
 800559a:	e009      	b.n	80055b0 <HAL_GPIO_Init+0x130>
            config = GPIO_CR_MODE_INPUT + GPIO_CR_CNF_INPUT_PU_PD;
 800559c:	2308      	movs	r3, #8
 800559e:	623b      	str	r3, [r7, #32]
            GPIOx->BRR = ioposition;
 80055a0:	687b      	ldr	r3, [r7, #4]
 80055a2:	69fa      	ldr	r2, [r7, #28]
 80055a4:	615a      	str	r2, [r3, #20]
          break;
 80055a6:	e003      	b.n	80055b0 <HAL_GPIO_Init+0x130>
          config = GPIO_CR_MODE_INPUT + GPIO_CR_CNF_ANALOG;
 80055a8:	2300      	movs	r3, #0
 80055aa:	623b      	str	r3, [r7, #32]
          break;
 80055ac:	e000      	b.n	80055b0 <HAL_GPIO_Init+0x130>
          break;
 80055ae:	bf00      	nop
      }

      /* Check if the current bit belongs to first half or last half of the pin count number
       in order to address CRH or CRL register*/
      configregister = (iocurrent < GPIO_PIN_8) ? &GPIOx->CRL     : &GPIOx->CRH;
 80055b0:	69bb      	ldr	r3, [r7, #24]
 80055b2:	2bff      	cmp	r3, #255	; 0xff
 80055b4:	d801      	bhi.n	80055ba <HAL_GPIO_Init+0x13a>
 80055b6:	687b      	ldr	r3, [r7, #4]
 80055b8:	e001      	b.n	80055be <HAL_GPIO_Init+0x13e>
 80055ba:	687b      	ldr	r3, [r7, #4]
 80055bc:	3304      	adds	r3, #4
 80055be:	617b      	str	r3, [r7, #20]
      registeroffset = (iocurrent < GPIO_PIN_8) ? (position << 2u) : ((position - 8u) << 2u);
 80055c0:	69bb      	ldr	r3, [r7, #24]
 80055c2:	2bff      	cmp	r3, #255	; 0xff
 80055c4:	d802      	bhi.n	80055cc <HAL_GPIO_Init+0x14c>
 80055c6:	6a7b      	ldr	r3, [r7, #36]	; 0x24
 80055c8:	009b      	lsls	r3, r3, #2
 80055ca:	e002      	b.n	80055d2 <HAL_GPIO_Init+0x152>
 80055cc:	6a7b      	ldr	r3, [r7, #36]	; 0x24
 80055ce:	3b08      	subs	r3, #8
 80055d0:	009b      	lsls	r3, r3, #2
 80055d2:	613b      	str	r3, [r7, #16]

      /* Apply the new configuration of the pin to the register */
      MODIFY_REG((*configregister), ((GPIO_CRL_MODE0 | GPIO_CRL_CNF0) << registeroffset), (config << registeroffset));
 80055d4:	697b      	ldr	r3, [r7, #20]
 80055d6:	681a      	ldr	r2, [r3, #0]
 80055d8:	210f      	movs	r1, #15
 80055da:	693b      	ldr	r3, [r7, #16]
 80055dc:	fa01 f303 	lsl.w	r3, r1, r3
 80055e0:	43db      	mvns	r3, r3
 80055e2:	401a      	ands	r2, r3
 80055e4:	6a39      	ldr	r1, [r7, #32]
 80055e6:	693b      	ldr	r3, [r7, #16]
 80055e8:	fa01 f303 	lsl.w	r3, r1, r3
 80055ec:	431a      	orrs	r2, r3
 80055ee:	697b      	ldr	r3, [r7, #20]
 80055f0:	601a      	str	r2, [r3, #0]

      /*--------------------- EXTI Mode Configuration ------------------------*/
      /* Configure the External Interrupt or event for the current IO */
      if ((GPIO_Init->Mode & EXTI_MODE) == EXTI_MODE)
 80055f2:	683b      	ldr	r3, [r7, #0]
 80055f4:	685b      	ldr	r3, [r3, #4]
 80055f6:	f003 5380 	and.w	r3, r3, #268435456	; 0x10000000
 80055fa:	2b00      	cmp	r3, #0
 80055fc:	f000 80c1 	beq.w	8005782 <HAL_GPIO_Init+0x302>
      {
        /* Enable AFIO Clock */
        __HAL_RCC_AFIO_CLK_ENABLE();
 8005600:	4b49      	ldr	r3, [pc, #292]	; (8005728 <HAL_GPIO_Init+0x2a8>)
 8005602:	699b      	ldr	r3, [r3, #24]
 8005604:	4a48      	ldr	r2, [pc, #288]	; (8005728 <HAL_GPIO_Init+0x2a8>)
 8005606:	f043 0301 	orr.w	r3, r3, #1
 800560a:	6193      	str	r3, [r2, #24]
 800560c:	4b46      	ldr	r3, [pc, #280]	; (8005728 <HAL_GPIO_Init+0x2a8>)
 800560e:	699b      	ldr	r3, [r3, #24]
 8005610:	f003 0301 	and.w	r3, r3, #1
 8005614:	60bb      	str	r3, [r7, #8]
 8005616:	68bb      	ldr	r3, [r7, #8]
        temp = AFIO->EXTICR[position >> 2u];
 8005618:	4a44      	ldr	r2, [pc, #272]	; (800572c <HAL_GPIO_Init+0x2ac>)
 800561a:	6a7b      	ldr	r3, [r7, #36]	; 0x24
 800561c:	089b      	lsrs	r3, r3, #2
 800561e:	3302      	adds	r3, #2
 8005620:	f852 3023 	ldr.w	r3, [r2, r3, lsl #2]
 8005624:	60fb      	str	r3, [r7, #12]
        CLEAR_BIT(temp, (0x0Fu) << (4u * (position & 0x03u)));
 8005626:	6a7b      	ldr	r3, [r7, #36]	; 0x24
 8005628:	f003 0303 	and.w	r3, r3, #3
 800562c:	009b      	lsls	r3, r3, #2
 800562e:	220f      	movs	r2, #15
 8005630:	fa02 f303 	lsl.w	r3, r2, r3
 8005634:	43db      	mvns	r3, r3
 8005636:	68fa      	ldr	r2, [r7, #12]
 8005638:	4013      	ands	r3, r2
 800563a:	60fb      	str	r3, [r7, #12]
        SET_BIT(temp, (GPIO_GET_INDEX(GPIOx)) << (4u * (position & 0x03u)));
 800563c:	687b      	ldr	r3, [r7, #4]
 800563e:	4a3c      	ldr	r2, [pc, #240]	; (8005730 <HAL_GPIO_Init+0x2b0>)
 8005640:	4293      	cmp	r3, r2
 8005642:	d01f      	beq.n	8005684 <HAL_GPIO_Init+0x204>
 8005644:	687b      	ldr	r3, [r7, #4]
 8005646:	4a3b      	ldr	r2, [pc, #236]	; (8005734 <HAL_GPIO_Init+0x2b4>)
 8005648:	4293      	cmp	r3, r2
 800564a:	d019      	beq.n	8005680 <HAL_GPIO_Init+0x200>
 800564c:	687b      	ldr	r3, [r7, #4]
 800564e:	4a3a      	ldr	r2, [pc, #232]	; (8005738 <HAL_GPIO_Init+0x2b8>)
 8005650:	4293      	cmp	r3, r2
 8005652:	d013      	beq.n	800567c <HAL_GPIO_Init+0x1fc>
 8005654:	687b      	ldr	r3, [r7, #4]
 8005656:	4a39      	ldr	r2, [pc, #228]	; (800573c <HAL_GPIO_Init+0x2bc>)
 8005658:	4293      	cmp	r3, r2
 800565a:	d00d      	beq.n	8005678 <HAL_GPIO_Init+0x1f8>
 800565c:	687b      	ldr	r3, [r7, #4]
 800565e:	4a38      	ldr	r2, [pc, #224]	; (8005740 <HAL_GPIO_Init+0x2c0>)
 8005660:	4293      	cmp	r3, r2
 8005662:	d007      	beq.n	8005674 <HAL_GPIO_Init+0x1f4>
 8005664:	687b      	ldr	r3, [r7, #4]
 8005666:	4a37      	ldr	r2, [pc, #220]	; (8005744 <HAL_GPIO_Init+0x2c4>)
 8005668:	4293      	cmp	r3, r2
 800566a:	d101      	bne.n	8005670 <HAL_GPIO_Init+0x1f0>
 800566c:	2305      	movs	r3, #5
 800566e:	e00a      	b.n	8005686 <HAL_GPIO_Init+0x206>
 8005670:	2306      	movs	r3, #6
 8005672:	e008      	b.n	8005686 <HAL_GPIO_Init+0x206>
 8005674:	2304      	movs	r3, #4
 8005676:	e006      	b.n	8005686 <HAL_GPIO_Init+0x206>
 8005678:	2303      	movs	r3, #3
 800567a:	e004      	b.n	8005686 <HAL_GPIO_Init+0x206>
 800567c:	2302      	movs	r3, #2
 800567e:	e002      	b.n	8005686 <HAL_GPIO_Init+0x206>
 8005680:	2301      	movs	r3, #1
 8005682:	e000      	b.n	8005686 <HAL_GPIO_Init+0x206>
 8005684:	2300      	movs	r3, #0
 8005686:	6a7a      	ldr	r2, [r7, #36]	; 0x24
 8005688:	f002 0203 	and.w	r2, r2, #3
 800568c:	0092      	lsls	r2, r2, #2
 800568e:	4093      	lsls	r3, r2
 8005690:	68fa      	ldr	r2, [r7, #12]
 8005692:	4313      	orrs	r3, r2
 8005694:	60fb      	str	r3, [r7, #12]
        AFIO->EXTICR[position >> 2u] = temp;
 8005696:	4925      	ldr	r1, [pc, #148]	; (800572c <HAL_GPIO_Init+0x2ac>)
 8005698:	6a7b      	ldr	r3, [r7, #36]	; 0x24
 800569a:	089b      	lsrs	r3, r3, #2
 800569c:	3302      	adds	r3, #2
 800569e:	68fa      	ldr	r2, [r7, #12]
 80056a0:	f841 2023 	str.w	r2, [r1, r3, lsl #2]


        /* Enable or disable the rising trigger */
        if ((GPIO_Init->Mode & RISING_EDGE) == RISING_EDGE)
 80056a4:	683b      	ldr	r3, [r7, #0]
 80056a6:	685b      	ldr	r3, [r3, #4]
 80056a8:	f403 1380 	and.w	r3, r3, #1048576	; 0x100000
 80056ac:	2b00      	cmp	r3, #0
 80056ae:	d006      	beq.n	80056be <HAL_GPIO_Init+0x23e>
        {
          SET_BIT(EXTI->RTSR, iocurrent);
 80056b0:	4b25      	ldr	r3, [pc, #148]	; (8005748 <HAL_GPIO_Init+0x2c8>)
 80056b2:	689a      	ldr	r2, [r3, #8]
 80056b4:	4924      	ldr	r1, [pc, #144]	; (8005748 <HAL_GPIO_Init+0x2c8>)
 80056b6:	69bb      	ldr	r3, [r7, #24]
 80056b8:	4313      	orrs	r3, r2
 80056ba:	608b      	str	r3, [r1, #8]
 80056bc:	e006      	b.n	80056cc <HAL_GPIO_Init+0x24c>
        }
        else
        {
          CLEAR_BIT(EXTI->RTSR, iocurrent);
 80056be:	4b22      	ldr	r3, [pc, #136]	; (8005748 <HAL_GPIO_Init+0x2c8>)
 80056c0:	689a      	ldr	r2, [r3, #8]
 80056c2:	69bb      	ldr	r3, [r7, #24]
 80056c4:	43db      	mvns	r3, r3
 80056c6:	4920      	ldr	r1, [pc, #128]	; (8005748 <HAL_GPIO_Init+0x2c8>)
 80056c8:	4013      	ands	r3, r2
 80056ca:	608b      	str	r3, [r1, #8]
        }

        /* Enable or disable the falling trigger */
        if ((GPIO_Init->Mode & FALLING_EDGE) == FALLING_EDGE)
 80056cc:	683b      	ldr	r3, [r7, #0]
 80056ce:	685b      	ldr	r3, [r3, #4]
 80056d0:	f403 1300 	and.w	r3, r3, #2097152	; 0x200000
 80056d4:	2b00      	cmp	r3, #0
 80056d6:	d006      	beq.n	80056e6 <HAL_GPIO_Init+0x266>
        {
          SET_BIT(EXTI->FTSR, iocurrent);
 80056d8:	4b1b      	ldr	r3, [pc, #108]	; (8005748 <HAL_GPIO_Init+0x2c8>)
 80056da:	68da      	ldr	r2, [r3, #12]
 80056dc:	491a      	ldr	r1, [pc, #104]	; (8005748 <HAL_GPIO_Init+0x2c8>)
 80056de:	69bb      	ldr	r3, [r7, #24]
 80056e0:	4313      	orrs	r3, r2
 80056e2:	60cb      	str	r3, [r1, #12]
 80056e4:	e006      	b.n	80056f4 <HAL_GPIO_Init+0x274>
        }
        else
        {
          CLEAR_BIT(EXTI->FTSR, iocurrent);
 80056e6:	4b18      	ldr	r3, [pc, #96]	; (8005748 <HAL_GPIO_Init+0x2c8>)
 80056e8:	68da      	ldr	r2, [r3, #12]
 80056ea:	69bb      	ldr	r3, [r7, #24]
 80056ec:	43db      	mvns	r3, r3
 80056ee:	4916      	ldr	r1, [pc, #88]	; (8005748 <HAL_GPIO_Init+0x2c8>)
 80056f0:	4013      	ands	r3, r2
 80056f2:	60cb      	str	r3, [r1, #12]
        }

        /* Configure the event mask */
        if ((GPIO_Init->Mode & GPIO_MODE_EVT) == GPIO_MODE_EVT)
 80056f4:	683b      	ldr	r3, [r7, #0]
 80056f6:	685b      	ldr	r3, [r3, #4]
 80056f8:	f403 3300 	and.w	r3, r3, #131072	; 0x20000
 80056fc:	2b00      	cmp	r3, #0
 80056fe:	d025      	beq.n	800574c <HAL_GPIO_Init+0x2cc>
        {
          SET_BIT(EXTI->EMR, iocurrent);
 8005700:	4b11      	ldr	r3, [pc, #68]	; (8005748 <HAL_GPIO_Init+0x2c8>)
 8005702:	685a      	ldr	r2, [r3, #4]
 8005704:	4910      	ldr	r1, [pc, #64]	; (8005748 <HAL_GPIO_Init+0x2c8>)
 8005706:	69bb      	ldr	r3, [r7, #24]
 8005708:	4313      	orrs	r3, r2
 800570a:	604b      	str	r3, [r1, #4]
 800570c:	e025      	b.n	800575a <HAL_GPIO_Init+0x2da>
 800570e:	bf00      	nop
 8005710:	10320000 	.word	0x10320000
 8005714:	10310000 	.word	0x10310000
 8005718:	10220000 	.word	0x10220000
 800571c:	10210000 	.word	0x10210000
 8005720:	10120000 	.word	0x10120000
 8005724:	10110000 	.word	0x10110000
 8005728:	40021000 	.word	0x40021000
 800572c:	40010000 	.word	0x40010000
 8005730:	40010800 	.word	0x40010800
 8005734:	40010c00 	.word	0x40010c00
 8005738:	40011000 	.word	0x40011000
 800573c:	40011400 	.word	0x40011400
 8005740:	40011800 	.word	0x40011800
 8005744:	40011c00 	.word	0x40011c00
 8005748:	40010400 	.word	0x40010400
        }
        else
        {
          CLEAR_BIT(EXTI->EMR, iocurrent);
 800574c:	4b15      	ldr	r3, [pc, #84]	; (80057a4 <HAL_GPIO_Init+0x324>)
 800574e:	685a      	ldr	r2, [r3, #4]
 8005750:	69bb      	ldr	r3, [r7, #24]
 8005752:	43db      	mvns	r3, r3
 8005754:	4913      	ldr	r1, [pc, #76]	; (80057a4 <HAL_GPIO_Init+0x324>)
 8005756:	4013      	ands	r3, r2
 8005758:	604b      	str	r3, [r1, #4]
        }

        /* Configure the interrupt mask */
        if ((GPIO_Init->Mode & GPIO_MODE_IT) == GPIO_MODE_IT)
 800575a:	683b      	ldr	r3, [r7, #0]
 800575c:	685b      	ldr	r3, [r3, #4]
 800575e:	f403 3380 	and.w	r3, r3, #65536	; 0x10000
 8005762:	2b00      	cmp	r3, #0
 8005764:	d006      	beq.n	8005774 <HAL_GPIO_Init+0x2f4>
        {
          SET_BIT(EXTI->IMR, iocurrent);
 8005766:	4b0f      	ldr	r3, [pc, #60]	; (80057a4 <HAL_GPIO_Init+0x324>)
 8005768:	681a      	ldr	r2, [r3, #0]
 800576a:	490e      	ldr	r1, [pc, #56]	; (80057a4 <HAL_GPIO_Init+0x324>)
 800576c:	69bb      	ldr	r3, [r7, #24]
 800576e:	4313      	orrs	r3, r2
 8005770:	600b      	str	r3, [r1, #0]
 8005772:	e006      	b.n	8005782 <HAL_GPIO_Init+0x302>
        }
        else
        {
          CLEAR_BIT(EXTI->IMR, iocurrent);
 8005774:	4b0b      	ldr	r3, [pc, #44]	; (80057a4 <HAL_GPIO_Init+0x324>)
 8005776:	681a      	ldr	r2, [r3, #0]
 8005778:	69bb      	ldr	r3, [r7, #24]
 800577a:	43db      	mvns	r3, r3
 800577c:	4909      	ldr	r1, [pc, #36]	; (80057a4 <HAL_GPIO_Init+0x324>)
 800577e:	4013      	ands	r3, r2
 8005780:	600b      	str	r3, [r1, #0]
        }
      }
    }

	position++;
 8005782:	6a7b      	ldr	r3, [r7, #36]	; 0x24
 8005784:	3301      	adds	r3, #1
 8005786:	627b      	str	r3, [r7, #36]	; 0x24
  while (((GPIO_Init->Pin) >> position) != 0x00u)
 8005788:	683b      	ldr	r3, [r7, #0]
 800578a:	681a      	ldr	r2, [r3, #0]
 800578c:	6a7b      	ldr	r3, [r7, #36]	; 0x24
 800578e:	fa22 f303 	lsr.w	r3, r2, r3
 8005792:	2b00      	cmp	r3, #0
 8005794:	f47f ae7e 	bne.w	8005494 <HAL_GPIO_Init+0x14>
  }
}
 8005798:	bf00      	nop
 800579a:	bf00      	nop
 800579c:	372c      	adds	r7, #44	; 0x2c
 800579e:	46bd      	mov	sp, r7
 80057a0:	bc80      	pop	{r7}
 80057a2:	4770      	bx	lr
 80057a4:	40010400 	.word	0x40010400

080057a8 <HAL_GPIO_ReadPin>:
  * @param  GPIO_Pin: specifies the port bit to read.
  *         This parameter can be GPIO_PIN_x where x can be (0..15).
  * @retval The input port pin value.
  */
GPIO_PinState HAL_GPIO_ReadPin(GPIO_TypeDef *GPIOx, uint16_t GPIO_Pin)
{
 80057a8:	b480      	push	{r7}
 80057aa:	b085      	sub	sp, #20
 80057ac:	af00      	add	r7, sp, #0
 80057ae:	6078      	str	r0, [r7, #4]
 80057b0:	460b      	mov	r3, r1
 80057b2:	807b      	strh	r3, [r7, #2]
  GPIO_PinState bitstatus;

  /* Check the parameters */
  assert_param(IS_GPIO_PIN(GPIO_Pin));

  if ((GPIOx->IDR & GPIO_Pin) != (uint32_t)GPIO_PIN_RESET)
 80057b4:	687b      	ldr	r3, [r7, #4]
 80057b6:	689a      	ldr	r2, [r3, #8]
 80057b8:	887b      	ldrh	r3, [r7, #2]
 80057ba:	4013      	ands	r3, r2
 80057bc:	2b00      	cmp	r3, #0
 80057be:	d002      	beq.n	80057c6 <HAL_GPIO_ReadPin+0x1e>
  {
    bitstatus = GPIO_PIN_SET;
 80057c0:	2301      	movs	r3, #1
 80057c2:	73fb      	strb	r3, [r7, #15]
 80057c4:	e001      	b.n	80057ca <HAL_GPIO_ReadPin+0x22>
  }
  else
  {
    bitstatus = GPIO_PIN_RESET;
 80057c6:	2300      	movs	r3, #0
 80057c8:	73fb      	strb	r3, [r7, #15]
  }
  return bitstatus;
 80057ca:	7bfb      	ldrb	r3, [r7, #15]
}
 80057cc:	4618      	mov	r0, r3
 80057ce:	3714      	adds	r7, #20
 80057d0:	46bd      	mov	sp, r7
 80057d2:	bc80      	pop	{r7}
 80057d4:	4770      	bx	lr

080057d6 <HAL_GPIO_WritePin>:
  *            @arg GPIO_PIN_RESET: to clear the port pin
  *            @arg GPIO_PIN_SET: to set the port pin
  * @retval None
  */
void HAL_GPIO_WritePin(GPIO_TypeDef *GPIOx, uint16_t GPIO_Pin, GPIO_PinState PinState)
{
 80057d6:	b480      	push	{r7}
 80057d8:	b083      	sub	sp, #12
 80057da:	af00      	add	r7, sp, #0
 80057dc:	6078      	str	r0, [r7, #4]
 80057de:	460b      	mov	r3, r1
 80057e0:	807b      	strh	r3, [r7, #2]
 80057e2:	4613      	mov	r3, r2
 80057e4:	707b      	strb	r3, [r7, #1]
  /* Check the parameters */
  assert_param(IS_GPIO_PIN(GPIO_Pin));
  assert_param(IS_GPIO_PIN_ACTION(PinState));

  if (PinState != GPIO_PIN_RESET)
 80057e6:	787b      	ldrb	r3, [r7, #1]
 80057e8:	2b00      	cmp	r3, #0
 80057ea:	d003      	beq.n	80057f4 <HAL_GPIO_WritePin+0x1e>
  {
    GPIOx->BSRR = GPIO_Pin;
 80057ec:	887a      	ldrh	r2, [r7, #2]
 80057ee:	687b      	ldr	r3, [r7, #4]
 80057f0:	611a      	str	r2, [r3, #16]
  }
  else
  {
    GPIOx->BSRR = (uint32_t)GPIO_Pin << 16u;
  }
}
 80057f2:	e003      	b.n	80057fc <HAL_GPIO_WritePin+0x26>
    GPIOx->BSRR = (uint32_t)GPIO_Pin << 16u;
 80057f4:	887b      	ldrh	r3, [r7, #2]
 80057f6:	041a      	lsls	r2, r3, #16
 80057f8:	687b      	ldr	r3, [r7, #4]
 80057fa:	611a      	str	r2, [r3, #16]
}
 80057fc:	bf00      	nop
 80057fe:	370c      	adds	r7, #12
 8005800:	46bd      	mov	sp, r7
 8005802:	bc80      	pop	{r7}
 8005804:	4770      	bx	lr
	...

08005808 <HAL_GPIO_EXTI_IRQHandler>:
  * @brief  This function handles EXTI interrupt request.
  * @param  GPIO_Pin: Specifies the pins connected EXTI line
  * @retval None
  */
void HAL_GPIO_EXTI_IRQHandler(uint16_t GPIO_Pin)
{
 8005808:	b580      	push	{r7, lr}
 800580a:	b082      	sub	sp, #8
 800580c:	af00      	add	r7, sp, #0
 800580e:	4603      	mov	r3, r0
 8005810:	80fb      	strh	r3, [r7, #6]
  /* EXTI line interrupt detected */
  if (__HAL_GPIO_EXTI_GET_IT(GPIO_Pin) != 0x00u)
 8005812:	4b08      	ldr	r3, [pc, #32]	; (8005834 <HAL_GPIO_EXTI_IRQHandler+0x2c>)
 8005814:	695a      	ldr	r2, [r3, #20]
 8005816:	88fb      	ldrh	r3, [r7, #6]
 8005818:	4013      	ands	r3, r2
 800581a:	2b00      	cmp	r3, #0
 800581c:	d006      	beq.n	800582c <HAL_GPIO_EXTI_IRQHandler+0x24>
  {
    __HAL_GPIO_EXTI_CLEAR_IT(GPIO_Pin);
 800581e:	4a05      	ldr	r2, [pc, #20]	; (8005834 <HAL_GPIO_EXTI_IRQHandler+0x2c>)
 8005820:	88fb      	ldrh	r3, [r7, #6]
 8005822:	6153      	str	r3, [r2, #20]
    HAL_GPIO_EXTI_Callback(GPIO_Pin);
 8005824:	88fb      	ldrh	r3, [r7, #6]
 8005826:	4618      	mov	r0, r3
 8005828:	f000 f806 	bl	8005838 <HAL_GPIO_EXTI_Callback>
  }
}
 800582c:	bf00      	nop
 800582e:	3708      	adds	r7, #8
 8005830:	46bd      	mov	sp, r7
 8005832:	bd80      	pop	{r7, pc}
 8005834:	40010400 	.word	0x40010400

08005838 <HAL_GPIO_EXTI_Callback>:
  * @brief  EXTI line detection callbacks.
  * @param  GPIO_Pin: Specifies the pins connected EXTI line
  * @retval None
  */
__weak void HAL_GPIO_EXTI_Callback(uint16_t GPIO_Pin)
{
 8005838:	b480      	push	{r7}
 800583a:	b083      	sub	sp, #12
 800583c:	af00      	add	r7, sp, #0
 800583e:	4603      	mov	r3, r0
 8005840:	80fb      	strh	r3, [r7, #6]
  /* Prevent unused argument(s) compilation warning */
  UNUSED(GPIO_Pin);
  /* NOTE: This function Should not be modified, when the callback is needed,
           the HAL_GPIO_EXTI_Callback could be implemented in the user file
   */
}
 8005842:	bf00      	nop
 8005844:	370c      	adds	r7, #12
 8005846:	46bd      	mov	sp, r7
 8005848:	bc80      	pop	{r7}
 800584a:	4770      	bx	lr

0800584c <HAL_RCC_OscConfig>:
  *         supported by this macro. User should request a transition to HSE Off
  *         first and then HSE On or HSE Bypass.
  * @retval HAL status
  */
HAL_StatusTypeDef HAL_RCC_OscConfig(RCC_OscInitTypeDef  *RCC_OscInitStruct)
{
 800584c:	b580      	push	{r7, lr}
 800584e:	b086      	sub	sp, #24
 8005850:	af00      	add	r7, sp, #0
 8005852:	6078      	str	r0, [r7, #4]
  uint32_t tickstart;
  uint32_t pll_config;

  /* Check Null pointer */
  if (RCC_OscInitStruct == NULL)
 8005854:	687b      	ldr	r3, [r7, #4]
 8005856:	2b00      	cmp	r3, #0
 8005858:	d101      	bne.n	800585e <HAL_RCC_OscConfig+0x12>
  {
    return HAL_ERROR;
 800585a:	2301      	movs	r3, #1
 800585c:	e272      	b.n	8005d44 <HAL_RCC_OscConfig+0x4f8>

  /* Check the parameters */
  assert_param(IS_RCC_OSCILLATORTYPE(RCC_OscInitStruct->OscillatorType));

  /*------------------------------- HSE Configuration ------------------------*/
  if (((RCC_OscInitStruct->OscillatorType) & RCC_OSCILLATORTYPE_HSE) == RCC_OSCILLATORTYPE_HSE)
 800585e:	687b      	ldr	r3, [r7, #4]
 8005860:	681b      	ldr	r3, [r3, #0]
 8005862:	f003 0301 	and.w	r3, r3, #1
 8005866:	2b00      	cmp	r3, #0
 8005868:	f000 8087 	beq.w	800597a <HAL_RCC_OscConfig+0x12e>
  {
    /* Check the parameters */
    assert_param(IS_RCC_HSE(RCC_OscInitStruct->HSEState));

    /* When the HSE is used as system clock or clock source for PLL in these cases it is not allowed to be disabled */
    if ((__HAL_RCC_GET_SYSCLK_SOURCE() == RCC_SYSCLKSOURCE_STATUS_HSE)
 800586c:	4b92      	ldr	r3, [pc, #584]	; (8005ab8 <HAL_RCC_OscConfig+0x26c>)
 800586e:	685b      	ldr	r3, [r3, #4]
 8005870:	f003 030c 	and.w	r3, r3, #12
 8005874:	2b04      	cmp	r3, #4
 8005876:	d00c      	beq.n	8005892 <HAL_RCC_OscConfig+0x46>
        || ((__HAL_RCC_GET_SYSCLK_SOURCE() == RCC_SYSCLKSOURCE_STATUS_PLLCLK) && (__HAL_RCC_GET_PLL_OSCSOURCE() == RCC_PLLSOURCE_HSE)))
 8005878:	4b8f      	ldr	r3, [pc, #572]	; (8005ab8 <HAL_RCC_OscConfig+0x26c>)
 800587a:	685b      	ldr	r3, [r3, #4]
 800587c:	f003 030c 	and.w	r3, r3, #12
 8005880:	2b08      	cmp	r3, #8
 8005882:	d112      	bne.n	80058aa <HAL_RCC_OscConfig+0x5e>
 8005884:	4b8c      	ldr	r3, [pc, #560]	; (8005ab8 <HAL_RCC_OscConfig+0x26c>)
 8005886:	685b      	ldr	r3, [r3, #4]
 8005888:	f403 3380 	and.w	r3, r3, #65536	; 0x10000
 800588c:	f5b3 3f80 	cmp.w	r3, #65536	; 0x10000
 8005890:	d10b      	bne.n	80058aa <HAL_RCC_OscConfig+0x5e>
    {
      if ((__HAL_RCC_GET_FLAG(RCC_FLAG_HSERDY) != RESET) && (RCC_OscInitStruct->HSEState == RCC_HSE_OFF))
 8005892:	4b89      	ldr	r3, [pc, #548]	; (8005ab8 <HAL_RCC_OscConfig+0x26c>)
 8005894:	681b      	ldr	r3, [r3, #0]
 8005896:	f403 3300 	and.w	r3, r3, #131072	; 0x20000
 800589a:	2b00      	cmp	r3, #0
 800589c:	d06c      	beq.n	8005978 <HAL_RCC_OscConfig+0x12c>
 800589e:	687b      	ldr	r3, [r7, #4]
 80058a0:	685b      	ldr	r3, [r3, #4]
 80058a2:	2b00      	cmp	r3, #0
 80058a4:	d168      	bne.n	8005978 <HAL_RCC_OscConfig+0x12c>
      {
        return HAL_ERROR;
 80058a6:	2301      	movs	r3, #1
 80058a8:	e24c      	b.n	8005d44 <HAL_RCC_OscConfig+0x4f8>
      }
    }
    else
    {
      /* Set the new HSE configuration ---------------------------------------*/
      __HAL_RCC_HSE_CONFIG(RCC_OscInitStruct->HSEState);
 80058aa:	687b      	ldr	r3, [r7, #4]
 80058ac:	685b      	ldr	r3, [r3, #4]
 80058ae:	f5b3 3f80 	cmp.w	r3, #65536	; 0x10000
 80058b2:	d106      	bne.n	80058c2 <HAL_RCC_OscConfig+0x76>
 80058b4:	4b80      	ldr	r3, [pc, #512]	; (8005ab8 <HAL_RCC_OscConfig+0x26c>)
 80058b6:	681b      	ldr	r3, [r3, #0]
 80058b8:	4a7f      	ldr	r2, [pc, #508]	; (8005ab8 <HAL_RCC_OscConfig+0x26c>)
 80058ba:	f443 3380 	orr.w	r3, r3, #65536	; 0x10000
 80058be:	6013      	str	r3, [r2, #0]
 80058c0:	e02e      	b.n	8005920 <HAL_RCC_OscConfig+0xd4>
 80058c2:	687b      	ldr	r3, [r7, #4]
 80058c4:	685b      	ldr	r3, [r3, #4]
 80058c6:	2b00      	cmp	r3, #0
 80058c8:	d10c      	bne.n	80058e4 <HAL_RCC_OscConfig+0x98>
 80058ca:	4b7b      	ldr	r3, [pc, #492]	; (8005ab8 <HAL_RCC_OscConfig+0x26c>)
 80058cc:	681b      	ldr	r3, [r3, #0]
 80058ce:	4a7a      	ldr	r2, [pc, #488]	; (8005ab8 <HAL_RCC_OscConfig+0x26c>)
 80058d0:	f423 3380 	bic.w	r3, r3, #65536	; 0x10000
 80058d4:	6013      	str	r3, [r2, #0]
 80058d6:	4b78      	ldr	r3, [pc, #480]	; (8005ab8 <HAL_RCC_OscConfig+0x26c>)
 80058d8:	681b      	ldr	r3, [r3, #0]
 80058da:	4a77      	ldr	r2, [pc, #476]	; (8005ab8 <HAL_RCC_OscConfig+0x26c>)
 80058dc:	f423 2380 	bic.w	r3, r3, #262144	; 0x40000
 80058e0:	6013      	str	r3, [r2, #0]
 80058e2:	e01d      	b.n	8005920 <HAL_RCC_OscConfig+0xd4>
 80058e4:	687b      	ldr	r3, [r7, #4]
 80058e6:	685b      	ldr	r3, [r3, #4]
 80058e8:	f5b3 2fa0 	cmp.w	r3, #327680	; 0x50000
 80058ec:	d10c      	bne.n	8005908 <HAL_RCC_OscConfig+0xbc>
 80058ee:	4b72      	ldr	r3, [pc, #456]	; (8005ab8 <HAL_RCC_OscConfig+0x26c>)
 80058f0:	681b      	ldr	r3, [r3, #0]
 80058f2:	4a71      	ldr	r2, [pc, #452]	; (8005ab8 <HAL_RCC_OscConfig+0x26c>)
 80058f4:	f443 2380 	orr.w	r3, r3, #262144	; 0x40000
 80058f8:	6013      	str	r3, [r2, #0]
 80058fa:	4b6f      	ldr	r3, [pc, #444]	; (8005ab8 <HAL_RCC_OscConfig+0x26c>)
 80058fc:	681b      	ldr	r3, [r3, #0]
 80058fe:	4a6e      	ldr	r2, [pc, #440]	; (8005ab8 <HAL_RCC_OscConfig+0x26c>)
 8005900:	f443 3380 	orr.w	r3, r3, #65536	; 0x10000
 8005904:	6013      	str	r3, [r2, #0]
 8005906:	e00b      	b.n	8005920 <HAL_RCC_OscConfig+0xd4>
 8005908:	4b6b      	ldr	r3, [pc, #428]	; (8005ab8 <HAL_RCC_OscConfig+0x26c>)
 800590a:	681b      	ldr	r3, [r3, #0]
 800590c:	4a6a      	ldr	r2, [pc, #424]	; (8005ab8 <HAL_RCC_OscConfig+0x26c>)
 800590e:	f423 3380 	bic.w	r3, r3, #65536	; 0x10000
 8005912:	6013      	str	r3, [r2, #0]
 8005914:	4b68      	ldr	r3, [pc, #416]	; (8005ab8 <HAL_RCC_OscConfig+0x26c>)
 8005916:	681b      	ldr	r3, [r3, #0]
 8005918:	4a67      	ldr	r2, [pc, #412]	; (8005ab8 <HAL_RCC_OscConfig+0x26c>)
 800591a:	f423 2380 	bic.w	r3, r3, #262144	; 0x40000
 800591e:	6013      	str	r3, [r2, #0]


      /* Check the HSE State */
      if (RCC_OscInitStruct->HSEState != RCC_HSE_OFF)
 8005920:	687b      	ldr	r3, [r7, #4]
 8005922:	685b      	ldr	r3, [r3, #4]
 8005924:	2b00      	cmp	r3, #0
 8005926:	d013      	beq.n	8005950 <HAL_RCC_OscConfig+0x104>
      {
        /* Get Start Tick */
        tickstart = HAL_GetTick();
 8005928:	f7fe ff82 	bl	8004830 <HAL_GetTick>
 800592c:	6138      	str	r0, [r7, #16]

        /* Wait till HSE is ready */
        while (__HAL_RCC_GET_FLAG(RCC_FLAG_HSERDY) == RESET)
 800592e:	e008      	b.n	8005942 <HAL_RCC_OscConfig+0xf6>
        {
          if ((HAL_GetTick() - tickstart) > HSE_TIMEOUT_VALUE)
 8005930:	f7fe ff7e 	bl	8004830 <HAL_GetTick>
 8005934:	4602      	mov	r2, r0
 8005936:	693b      	ldr	r3, [r7, #16]
 8005938:	1ad3      	subs	r3, r2, r3
 800593a:	2b64      	cmp	r3, #100	; 0x64
 800593c:	d901      	bls.n	8005942 <HAL_RCC_OscConfig+0xf6>
          {
            return HAL_TIMEOUT;
 800593e:	2303      	movs	r3, #3
 8005940:	e200      	b.n	8005d44 <HAL_RCC_OscConfig+0x4f8>
        while (__HAL_RCC_GET_FLAG(RCC_FLAG_HSERDY) == RESET)
 8005942:	4b5d      	ldr	r3, [pc, #372]	; (8005ab8 <HAL_RCC_OscConfig+0x26c>)
 8005944:	681b      	ldr	r3, [r3, #0]
 8005946:	f403 3300 	and.w	r3, r3, #131072	; 0x20000
 800594a:	2b00      	cmp	r3, #0
 800594c:	d0f0      	beq.n	8005930 <HAL_RCC_OscConfig+0xe4>
 800594e:	e014      	b.n	800597a <HAL_RCC_OscConfig+0x12e>
        }
      }
      else
      {
        /* Get Start Tick */
        tickstart = HAL_GetTick();
 8005950:	f7fe ff6e 	bl	8004830 <HAL_GetTick>
 8005954:	6138      	str	r0, [r7, #16]

        /* Wait till HSE is disabled */
        while (__HAL_RCC_GET_FLAG(RCC_FLAG_HSERDY) != RESET)
 8005956:	e008      	b.n	800596a <HAL_RCC_OscConfig+0x11e>
        {
          if ((HAL_GetTick() - tickstart) > HSE_TIMEOUT_VALUE)
 8005958:	f7fe ff6a 	bl	8004830 <HAL_GetTick>
 800595c:	4602      	mov	r2, r0
 800595e:	693b      	ldr	r3, [r7, #16]
 8005960:	1ad3      	subs	r3, r2, r3
 8005962:	2b64      	cmp	r3, #100	; 0x64
 8005964:	d901      	bls.n	800596a <HAL_RCC_OscConfig+0x11e>
          {
            return HAL_TIMEOUT;
 8005966:	2303      	movs	r3, #3
 8005968:	e1ec      	b.n	8005d44 <HAL_RCC_OscConfig+0x4f8>
        while (__HAL_RCC_GET_FLAG(RCC_FLAG_HSERDY) != RESET)
 800596a:	4b53      	ldr	r3, [pc, #332]	; (8005ab8 <HAL_RCC_OscConfig+0x26c>)
 800596c:	681b      	ldr	r3, [r3, #0]
 800596e:	f403 3300 	and.w	r3, r3, #131072	; 0x20000
 8005972:	2b00      	cmp	r3, #0
 8005974:	d1f0      	bne.n	8005958 <HAL_RCC_OscConfig+0x10c>
 8005976:	e000      	b.n	800597a <HAL_RCC_OscConfig+0x12e>
      if ((__HAL_RCC_GET_FLAG(RCC_FLAG_HSERDY) != RESET) && (RCC_OscInitStruct->HSEState == RCC_HSE_OFF))
 8005978:	bf00      	nop
        }
      }
    }
  }
  /*----------------------------- HSI Configuration --------------------------*/
  if (((RCC_OscInitStruct->OscillatorType) & RCC_OSCILLATORTYPE_HSI) == RCC_OSCILLATORTYPE_HSI)
 800597a:	687b      	ldr	r3, [r7, #4]
 800597c:	681b      	ldr	r3, [r3, #0]
 800597e:	f003 0302 	and.w	r3, r3, #2
 8005982:	2b00      	cmp	r3, #0
 8005984:	d063      	beq.n	8005a4e <HAL_RCC_OscConfig+0x202>
    /* Check the parameters */
    assert_param(IS_RCC_HSI(RCC_OscInitStruct->HSIState));
    assert_param(IS_RCC_CALIBRATION_VALUE(RCC_OscInitStruct->HSICalibrationValue));

    /* Check if HSI is used as system clock or as PLL source when PLL is selected as system clock */
    if ((__HAL_RCC_GET_SYSCLK_SOURCE() == RCC_SYSCLKSOURCE_STATUS_HSI)
 8005986:	4b4c      	ldr	r3, [pc, #304]	; (8005ab8 <HAL_RCC_OscConfig+0x26c>)
 8005988:	685b      	ldr	r3, [r3, #4]
 800598a:	f003 030c 	and.w	r3, r3, #12
 800598e:	2b00      	cmp	r3, #0
 8005990:	d00b      	beq.n	80059aa <HAL_RCC_OscConfig+0x15e>
        || ((__HAL_RCC_GET_SYSCLK_SOURCE() == RCC_SYSCLKSOURCE_STATUS_PLLCLK) && (__HAL_RCC_GET_PLL_OSCSOURCE() == RCC_PLLSOURCE_HSI_DIV2)))
 8005992:	4b49      	ldr	r3, [pc, #292]	; (8005ab8 <HAL_RCC_OscConfig+0x26c>)
 8005994:	685b      	ldr	r3, [r3, #4]
 8005996:	f003 030c 	and.w	r3, r3, #12
 800599a:	2b08      	cmp	r3, #8
 800599c:	d11c      	bne.n	80059d8 <HAL_RCC_OscConfig+0x18c>
 800599e:	4b46      	ldr	r3, [pc, #280]	; (8005ab8 <HAL_RCC_OscConfig+0x26c>)
 80059a0:	685b      	ldr	r3, [r3, #4]
 80059a2:	f403 3380 	and.w	r3, r3, #65536	; 0x10000
 80059a6:	2b00      	cmp	r3, #0
 80059a8:	d116      	bne.n	80059d8 <HAL_RCC_OscConfig+0x18c>
    {
      /* When HSI is used as system clock it will not disabled */
      if ((__HAL_RCC_GET_FLAG(RCC_FLAG_HSIRDY) != RESET) && (RCC_OscInitStruct->HSIState != RCC_HSI_ON))
 80059aa:	4b43      	ldr	r3, [pc, #268]	; (8005ab8 <HAL_RCC_OscConfig+0x26c>)
 80059ac:	681b      	ldr	r3, [r3, #0]
 80059ae:	f003 0302 	and.w	r3, r3, #2
 80059b2:	2b00      	cmp	r3, #0
 80059b4:	d005      	beq.n	80059c2 <HAL_RCC_OscConfig+0x176>
 80059b6:	687b      	ldr	r3, [r7, #4]
 80059b8:	691b      	ldr	r3, [r3, #16]
 80059ba:	2b01      	cmp	r3, #1
 80059bc:	d001      	beq.n	80059c2 <HAL_RCC_OscConfig+0x176>
      {
        return HAL_ERROR;
 80059be:	2301      	movs	r3, #1
 80059c0:	e1c0      	b.n	8005d44 <HAL_RCC_OscConfig+0x4f8>
      }
      /* Otherwise, just the calibration is allowed */
      else
      {
        /* Adjusts the Internal High Speed oscillator (HSI) calibration value.*/
        __HAL_RCC_HSI_CALIBRATIONVALUE_ADJUST(RCC_OscInitStruct->HSICalibrationValue);
 80059c2:	4b3d      	ldr	r3, [pc, #244]	; (8005ab8 <HAL_RCC_OscConfig+0x26c>)
 80059c4:	681b      	ldr	r3, [r3, #0]
 80059c6:	f023 02f8 	bic.w	r2, r3, #248	; 0xf8
 80059ca:	687b      	ldr	r3, [r7, #4]
 80059cc:	695b      	ldr	r3, [r3, #20]
 80059ce:	00db      	lsls	r3, r3, #3
 80059d0:	4939      	ldr	r1, [pc, #228]	; (8005ab8 <HAL_RCC_OscConfig+0x26c>)
 80059d2:	4313      	orrs	r3, r2
 80059d4:	600b      	str	r3, [r1, #0]
      if ((__HAL_RCC_GET_FLAG(RCC_FLAG_HSIRDY) != RESET) && (RCC_OscInitStruct->HSIState != RCC_HSI_ON))
 80059d6:	e03a      	b.n	8005a4e <HAL_RCC_OscConfig+0x202>
      }
    }
    else
    {
      /* Check the HSI State */
      if (RCC_OscInitStruct->HSIState != RCC_HSI_OFF)
 80059d8:	687b      	ldr	r3, [r7, #4]
 80059da:	691b      	ldr	r3, [r3, #16]
 80059dc:	2b00      	cmp	r3, #0
 80059de:	d020      	beq.n	8005a22 <HAL_RCC_OscConfig+0x1d6>
      {
        /* Enable the Internal High Speed oscillator (HSI). */
        __HAL_RCC_HSI_ENABLE();
 80059e0:	4b36      	ldr	r3, [pc, #216]	; (8005abc <HAL_RCC_OscConfig+0x270>)
 80059e2:	2201      	movs	r2, #1
 80059e4:	601a      	str	r2, [r3, #0]

        /* Get Start Tick */
        tickstart = HAL_GetTick();
 80059e6:	f7fe ff23 	bl	8004830 <HAL_GetTick>
 80059ea:	6138      	str	r0, [r7, #16]

        /* Wait till HSI is ready */
        while (__HAL_RCC_GET_FLAG(RCC_FLAG_HSIRDY) == RESET)
 80059ec:	e008      	b.n	8005a00 <HAL_RCC_OscConfig+0x1b4>
        {
          if ((HAL_GetTick() - tickstart) > HSI_TIMEOUT_VALUE)
 80059ee:	f7fe ff1f 	bl	8004830 <HAL_GetTick>
 80059f2:	4602      	mov	r2, r0
 80059f4:	693b      	ldr	r3, [r7, #16]
 80059f6:	1ad3      	subs	r3, r2, r3
 80059f8:	2b02      	cmp	r3, #2
 80059fa:	d901      	bls.n	8005a00 <HAL_RCC_OscConfig+0x1b4>
          {
            return HAL_TIMEOUT;
 80059fc:	2303      	movs	r3, #3
 80059fe:	e1a1      	b.n	8005d44 <HAL_RCC_OscConfig+0x4f8>
        while (__HAL_RCC_GET_FLAG(RCC_FLAG_HSIRDY) == RESET)
 8005a00:	4b2d      	ldr	r3, [pc, #180]	; (8005ab8 <HAL_RCC_OscConfig+0x26c>)
 8005a02:	681b      	ldr	r3, [r3, #0]
 8005a04:	f003 0302 	and.w	r3, r3, #2
 8005a08:	2b00      	cmp	r3, #0
 8005a0a:	d0f0      	beq.n	80059ee <HAL_RCC_OscConfig+0x1a2>
          }
        }

        /* Adjusts the Internal High Speed oscillator (HSI) calibration value.*/
        __HAL_RCC_HSI_CALIBRATIONVALUE_ADJUST(RCC_OscInitStruct->HSICalibrationValue);
 8005a0c:	4b2a      	ldr	r3, [pc, #168]	; (8005ab8 <HAL_RCC_OscConfig+0x26c>)
 8005a0e:	681b      	ldr	r3, [r3, #0]
 8005a10:	f023 02f8 	bic.w	r2, r3, #248	; 0xf8
 8005a14:	687b      	ldr	r3, [r7, #4]
 8005a16:	695b      	ldr	r3, [r3, #20]
 8005a18:	00db      	lsls	r3, r3, #3
 8005a1a:	4927      	ldr	r1, [pc, #156]	; (8005ab8 <HAL_RCC_OscConfig+0x26c>)
 8005a1c:	4313      	orrs	r3, r2
 8005a1e:	600b      	str	r3, [r1, #0]
 8005a20:	e015      	b.n	8005a4e <HAL_RCC_OscConfig+0x202>
      }
      else
      {
        /* Disable the Internal High Speed oscillator (HSI). */
        __HAL_RCC_HSI_DISABLE();
 8005a22:	4b26      	ldr	r3, [pc, #152]	; (8005abc <HAL_RCC_OscConfig+0x270>)
 8005a24:	2200      	movs	r2, #0
 8005a26:	601a      	str	r2, [r3, #0]

        /* Get Start Tick */
        tickstart = HAL_GetTick();
 8005a28:	f7fe ff02 	bl	8004830 <HAL_GetTick>
 8005a2c:	6138      	str	r0, [r7, #16]

        /* Wait till HSI is disabled */
        while (__HAL_RCC_GET_FLAG(RCC_FLAG_HSIRDY) != RESET)
 8005a2e:	e008      	b.n	8005a42 <HAL_RCC_OscConfig+0x1f6>
        {
          if ((HAL_GetTick() - tickstart) > HSI_TIMEOUT_VALUE)
 8005a30:	f7fe fefe 	bl	8004830 <HAL_GetTick>
 8005a34:	4602      	mov	r2, r0
 8005a36:	693b      	ldr	r3, [r7, #16]
 8005a38:	1ad3      	subs	r3, r2, r3
 8005a3a:	2b02      	cmp	r3, #2
 8005a3c:	d901      	bls.n	8005a42 <HAL_RCC_OscConfig+0x1f6>
          {
            return HAL_TIMEOUT;
 8005a3e:	2303      	movs	r3, #3
 8005a40:	e180      	b.n	8005d44 <HAL_RCC_OscConfig+0x4f8>
        while (__HAL_RCC_GET_FLAG(RCC_FLAG_HSIRDY) != RESET)
 8005a42:	4b1d      	ldr	r3, [pc, #116]	; (8005ab8 <HAL_RCC_OscConfig+0x26c>)
 8005a44:	681b      	ldr	r3, [r3, #0]
 8005a46:	f003 0302 	and.w	r3, r3, #2
 8005a4a:	2b00      	cmp	r3, #0
 8005a4c:	d1f0      	bne.n	8005a30 <HAL_RCC_OscConfig+0x1e4>
        }
      }
    }
  }
  /*------------------------------ LSI Configuration -------------------------*/
  if (((RCC_OscInitStruct->OscillatorType) & RCC_OSCILLATORTYPE_LSI) == RCC_OSCILLATORTYPE_LSI)
 8005a4e:	687b      	ldr	r3, [r7, #4]
 8005a50:	681b      	ldr	r3, [r3, #0]
 8005a52:	f003 0308 	and.w	r3, r3, #8
 8005a56:	2b00      	cmp	r3, #0
 8005a58:	d03a      	beq.n	8005ad0 <HAL_RCC_OscConfig+0x284>
  {
    /* Check the parameters */
    assert_param(IS_RCC_LSI(RCC_OscInitStruct->LSIState));

    /* Check the LSI State */
    if (RCC_OscInitStruct->LSIState != RCC_LSI_OFF)
 8005a5a:	687b      	ldr	r3, [r7, #4]
 8005a5c:	699b      	ldr	r3, [r3, #24]
 8005a5e:	2b00      	cmp	r3, #0
 8005a60:	d019      	beq.n	8005a96 <HAL_RCC_OscConfig+0x24a>
    {
      /* Enable the Internal Low Speed oscillator (LSI). */
      __HAL_RCC_LSI_ENABLE();
 8005a62:	4b17      	ldr	r3, [pc, #92]	; (8005ac0 <HAL_RCC_OscConfig+0x274>)
 8005a64:	2201      	movs	r2, #1
 8005a66:	601a      	str	r2, [r3, #0]

      /* Get Start Tick */
      tickstart = HAL_GetTick();
 8005a68:	f7fe fee2 	bl	8004830 <HAL_GetTick>
 8005a6c:	6138      	str	r0, [r7, #16]

      /* Wait till LSI is ready */
      while (__HAL_RCC_GET_FLAG(RCC_FLAG_LSIRDY) == RESET)
 8005a6e:	e008      	b.n	8005a82 <HAL_RCC_OscConfig+0x236>
      {
        if ((HAL_GetTick() - tickstart) > LSI_TIMEOUT_VALUE)
 8005a70:	f7fe fede 	bl	8004830 <HAL_GetTick>
 8005a74:	4602      	mov	r2, r0
 8005a76:	693b      	ldr	r3, [r7, #16]
 8005a78:	1ad3      	subs	r3, r2, r3
 8005a7a:	2b02      	cmp	r3, #2
 8005a7c:	d901      	bls.n	8005a82 <HAL_RCC_OscConfig+0x236>
        {
          return HAL_TIMEOUT;
 8005a7e:	2303      	movs	r3, #3
 8005a80:	e160      	b.n	8005d44 <HAL_RCC_OscConfig+0x4f8>
      while (__HAL_RCC_GET_FLAG(RCC_FLAG_LSIRDY) == RESET)
 8005a82:	4b0d      	ldr	r3, [pc, #52]	; (8005ab8 <HAL_RCC_OscConfig+0x26c>)
 8005a84:	6a5b      	ldr	r3, [r3, #36]	; 0x24
 8005a86:	f003 0302 	and.w	r3, r3, #2
 8005a8a:	2b00      	cmp	r3, #0
 8005a8c:	d0f0      	beq.n	8005a70 <HAL_RCC_OscConfig+0x224>
        }
      }
      /*  To have a fully stabilized clock in the specified range, a software delay of 1ms
          should be added.*/
      RCC_Delay(1);
 8005a8e:	2001      	movs	r0, #1
 8005a90:	f000 faba 	bl	8006008 <RCC_Delay>
 8005a94:	e01c      	b.n	8005ad0 <HAL_RCC_OscConfig+0x284>
    }
    else
    {
      /* Disable the Internal Low Speed oscillator (LSI). */
      __HAL_RCC_LSI_DISABLE();
 8005a96:	4b0a      	ldr	r3, [pc, #40]	; (8005ac0 <HAL_RCC_OscConfig+0x274>)
 8005a98:	2200      	movs	r2, #0
 8005a9a:	601a      	str	r2, [r3, #0]

      /* Get Start Tick */
      tickstart = HAL_GetTick();
 8005a9c:	f7fe fec8 	bl	8004830 <HAL_GetTick>
 8005aa0:	6138      	str	r0, [r7, #16]

      /* Wait till LSI is disabled */
      while (__HAL_RCC_GET_FLAG(RCC_FLAG_LSIRDY) != RESET)
 8005aa2:	e00f      	b.n	8005ac4 <HAL_RCC_OscConfig+0x278>
      {
        if ((HAL_GetTick() - tickstart) > LSI_TIMEOUT_VALUE)
 8005aa4:	f7fe fec4 	bl	8004830 <HAL_GetTick>
 8005aa8:	4602      	mov	r2, r0
 8005aaa:	693b      	ldr	r3, [r7, #16]
 8005aac:	1ad3      	subs	r3, r2, r3
 8005aae:	2b02      	cmp	r3, #2
 8005ab0:	d908      	bls.n	8005ac4 <HAL_RCC_OscConfig+0x278>
        {
          return HAL_TIMEOUT;
 8005ab2:	2303      	movs	r3, #3
 8005ab4:	e146      	b.n	8005d44 <HAL_RCC_OscConfig+0x4f8>
 8005ab6:	bf00      	nop
 8005ab8:	40021000 	.word	0x40021000
 8005abc:	42420000 	.word	0x42420000
 8005ac0:	42420480 	.word	0x42420480
      while (__HAL_RCC_GET_FLAG(RCC_FLAG_LSIRDY) != RESET)
 8005ac4:	4b92      	ldr	r3, [pc, #584]	; (8005d10 <HAL_RCC_OscConfig+0x4c4>)
 8005ac6:	6a5b      	ldr	r3, [r3, #36]	; 0x24
 8005ac8:	f003 0302 	and.w	r3, r3, #2
 8005acc:	2b00      	cmp	r3, #0
 8005ace:	d1e9      	bne.n	8005aa4 <HAL_RCC_OscConfig+0x258>
        }
      }
    }
  }
  /*------------------------------ LSE Configuration -------------------------*/
  if (((RCC_OscInitStruct->OscillatorType) & RCC_OSCILLATORTYPE_LSE) == RCC_OSCILLATORTYPE_LSE)
 8005ad0:	687b      	ldr	r3, [r7, #4]
 8005ad2:	681b      	ldr	r3, [r3, #0]
 8005ad4:	f003 0304 	and.w	r3, r3, #4
 8005ad8:	2b00      	cmp	r3, #0
 8005ada:	f000 80a6 	beq.w	8005c2a <HAL_RCC_OscConfig+0x3de>
  {
    FlagStatus       pwrclkchanged = RESET;
 8005ade:	2300      	movs	r3, #0
 8005ae0:	75fb      	strb	r3, [r7, #23]
    /* Check the parameters */
    assert_param(IS_RCC_LSE(RCC_OscInitStruct->LSEState));

    /* Update LSE configuration in Backup Domain control register    */
    /* Requires to enable write access to Backup Domain of necessary */
    if (__HAL_RCC_PWR_IS_CLK_DISABLED())
 8005ae2:	4b8b      	ldr	r3, [pc, #556]	; (8005d10 <HAL_RCC_OscConfig+0x4c4>)
 8005ae4:	69db      	ldr	r3, [r3, #28]
 8005ae6:	f003 5380 	and.w	r3, r3, #268435456	; 0x10000000
 8005aea:	2b00      	cmp	r3, #0
 8005aec:	d10d      	bne.n	8005b0a <HAL_RCC_OscConfig+0x2be>
    {
      __HAL_RCC_PWR_CLK_ENABLE();
 8005aee:	4b88      	ldr	r3, [pc, #544]	; (8005d10 <HAL_RCC_OscConfig+0x4c4>)
 8005af0:	69db      	ldr	r3, [r3, #28]
 8005af2:	4a87      	ldr	r2, [pc, #540]	; (8005d10 <HAL_RCC_OscConfig+0x4c4>)
 8005af4:	f043 5380 	orr.w	r3, r3, #268435456	; 0x10000000
 8005af8:	61d3      	str	r3, [r2, #28]
 8005afa:	4b85      	ldr	r3, [pc, #532]	; (8005d10 <HAL_RCC_OscConfig+0x4c4>)
 8005afc:	69db      	ldr	r3, [r3, #28]
 8005afe:	f003 5380 	and.w	r3, r3, #268435456	; 0x10000000
 8005b02:	60bb      	str	r3, [r7, #8]
 8005b04:	68bb      	ldr	r3, [r7, #8]
      pwrclkchanged = SET;
 8005b06:	2301      	movs	r3, #1
 8005b08:	75fb      	strb	r3, [r7, #23]
    }

    if (HAL_IS_BIT_CLR(PWR->CR, PWR_CR_DBP))
 8005b0a:	4b82      	ldr	r3, [pc, #520]	; (8005d14 <HAL_RCC_OscConfig+0x4c8>)
 8005b0c:	681b      	ldr	r3, [r3, #0]
 8005b0e:	f403 7380 	and.w	r3, r3, #256	; 0x100
 8005b12:	2b00      	cmp	r3, #0
 8005b14:	d118      	bne.n	8005b48 <HAL_RCC_OscConfig+0x2fc>
    {
      /* Enable write access to Backup domain */
      SET_BIT(PWR->CR, PWR_CR_DBP);
 8005b16:	4b7f      	ldr	r3, [pc, #508]	; (8005d14 <HAL_RCC_OscConfig+0x4c8>)
 8005b18:	681b      	ldr	r3, [r3, #0]
 8005b1a:	4a7e      	ldr	r2, [pc, #504]	; (8005d14 <HAL_RCC_OscConfig+0x4c8>)
 8005b1c:	f443 7380 	orr.w	r3, r3, #256	; 0x100
 8005b20:	6013      	str	r3, [r2, #0]

      /* Wait for Backup domain Write protection disable */
      tickstart = HAL_GetTick();
 8005b22:	f7fe fe85 	bl	8004830 <HAL_GetTick>
 8005b26:	6138      	str	r0, [r7, #16]

      while (HAL_IS_BIT_CLR(PWR->CR, PWR_CR_DBP))
 8005b28:	e008      	b.n	8005b3c <HAL_RCC_OscConfig+0x2f0>
      {
        if ((HAL_GetTick() - tickstart) > RCC_DBP_TIMEOUT_VALUE)
 8005b2a:	f7fe fe81 	bl	8004830 <HAL_GetTick>
 8005b2e:	4602      	mov	r2, r0
 8005b30:	693b      	ldr	r3, [r7, #16]
 8005b32:	1ad3      	subs	r3, r2, r3
 8005b34:	2b64      	cmp	r3, #100	; 0x64
 8005b36:	d901      	bls.n	8005b3c <HAL_RCC_OscConfig+0x2f0>
        {
          return HAL_TIMEOUT;
 8005b38:	2303      	movs	r3, #3
 8005b3a:	e103      	b.n	8005d44 <HAL_RCC_OscConfig+0x4f8>
      while (HAL_IS_BIT_CLR(PWR->CR, PWR_CR_DBP))
 8005b3c:	4b75      	ldr	r3, [pc, #468]	; (8005d14 <HAL_RCC_OscConfig+0x4c8>)
 8005b3e:	681b      	ldr	r3, [r3, #0]
 8005b40:	f403 7380 	and.w	r3, r3, #256	; 0x100
 8005b44:	2b00      	cmp	r3, #0
 8005b46:	d0f0      	beq.n	8005b2a <HAL_RCC_OscConfig+0x2de>
        }
      }
    }

    /* Set the new LSE configuration -----------------------------------------*/
    __HAL_RCC_LSE_CONFIG(RCC_OscInitStruct->LSEState);
 8005b48:	687b      	ldr	r3, [r7, #4]
 8005b4a:	68db      	ldr	r3, [r3, #12]
 8005b4c:	2b01      	cmp	r3, #1
 8005b4e:	d106      	bne.n	8005b5e <HAL_RCC_OscConfig+0x312>
 8005b50:	4b6f      	ldr	r3, [pc, #444]	; (8005d10 <HAL_RCC_OscConfig+0x4c4>)
 8005b52:	6a1b      	ldr	r3, [r3, #32]
 8005b54:	4a6e      	ldr	r2, [pc, #440]	; (8005d10 <HAL_RCC_OscConfig+0x4c4>)
 8005b56:	f043 0301 	orr.w	r3, r3, #1
 8005b5a:	6213      	str	r3, [r2, #32]
 8005b5c:	e02d      	b.n	8005bba <HAL_RCC_OscConfig+0x36e>
 8005b5e:	687b      	ldr	r3, [r7, #4]
 8005b60:	68db      	ldr	r3, [r3, #12]
 8005b62:	2b00      	cmp	r3, #0
 8005b64:	d10c      	bne.n	8005b80 <HAL_RCC_OscConfig+0x334>
 8005b66:	4b6a      	ldr	r3, [pc, #424]	; (8005d10 <HAL_RCC_OscConfig+0x4c4>)
 8005b68:	6a1b      	ldr	r3, [r3, #32]
 8005b6a:	4a69      	ldr	r2, [pc, #420]	; (8005d10 <HAL_RCC_OscConfig+0x4c4>)
 8005b6c:	f023 0301 	bic.w	r3, r3, #1
 8005b70:	6213      	str	r3, [r2, #32]
 8005b72:	4b67      	ldr	r3, [pc, #412]	; (8005d10 <HAL_RCC_OscConfig+0x4c4>)
 8005b74:	6a1b      	ldr	r3, [r3, #32]
 8005b76:	4a66      	ldr	r2, [pc, #408]	; (8005d10 <HAL_RCC_OscConfig+0x4c4>)
 8005b78:	f023 0304 	bic.w	r3, r3, #4
 8005b7c:	6213      	str	r3, [r2, #32]
 8005b7e:	e01c      	b.n	8005bba <HAL_RCC_OscConfig+0x36e>
 8005b80:	687b      	ldr	r3, [r7, #4]
 8005b82:	68db      	ldr	r3, [r3, #12]
 8005b84:	2b05      	cmp	r3, #5
 8005b86:	d10c      	bne.n	8005ba2 <HAL_RCC_OscConfig+0x356>
 8005b88:	4b61      	ldr	r3, [pc, #388]	; (8005d10 <HAL_RCC_OscConfig+0x4c4>)
 8005b8a:	6a1b      	ldr	r3, [r3, #32]
 8005b8c:	4a60      	ldr	r2, [pc, #384]	; (8005d10 <HAL_RCC_OscConfig+0x4c4>)
 8005b8e:	f043 0304 	orr.w	r3, r3, #4
 8005b92:	6213      	str	r3, [r2, #32]
 8005b94:	4b5e      	ldr	r3, [pc, #376]	; (8005d10 <HAL_RCC_OscConfig+0x4c4>)
 8005b96:	6a1b      	ldr	r3, [r3, #32]
 8005b98:	4a5d      	ldr	r2, [pc, #372]	; (8005d10 <HAL_RCC_OscConfig+0x4c4>)
 8005b9a:	f043 0301 	orr.w	r3, r3, #1
 8005b9e:	6213      	str	r3, [r2, #32]
 8005ba0:	e00b      	b.n	8005bba <HAL_RCC_OscConfig+0x36e>
 8005ba2:	4b5b      	ldr	r3, [pc, #364]	; (8005d10 <HAL_RCC_OscConfig+0x4c4>)
 8005ba4:	6a1b      	ldr	r3, [r3, #32]
 8005ba6:	4a5a      	ldr	r2, [pc, #360]	; (8005d10 <HAL_RCC_OscConfig+0x4c4>)
 8005ba8:	f023 0301 	bic.w	r3, r3, #1
 8005bac:	6213      	str	r3, [r2, #32]
 8005bae:	4b58      	ldr	r3, [pc, #352]	; (8005d10 <HAL_RCC_OscConfig+0x4c4>)
 8005bb0:	6a1b      	ldr	r3, [r3, #32]
 8005bb2:	4a57      	ldr	r2, [pc, #348]	; (8005d10 <HAL_RCC_OscConfig+0x4c4>)
 8005bb4:	f023 0304 	bic.w	r3, r3, #4
 8005bb8:	6213      	str	r3, [r2, #32]
    /* Check the LSE State */
    if (RCC_OscInitStruct->LSEState != RCC_LSE_OFF)
 8005bba:	687b      	ldr	r3, [r7, #4]
 8005bbc:	68db      	ldr	r3, [r3, #12]
 8005bbe:	2b00      	cmp	r3, #0
 8005bc0:	d015      	beq.n	8005bee <HAL_RCC_OscConfig+0x3a2>
    {
      /* Get Start Tick */
      tickstart = HAL_GetTick();
 8005bc2:	f7fe fe35 	bl	8004830 <HAL_GetTick>
 8005bc6:	6138      	str	r0, [r7, #16]

      /* Wait till LSE is ready */
      while (__HAL_RCC_GET_FLAG(RCC_FLAG_LSERDY) == RESET)
 8005bc8:	e00a      	b.n	8005be0 <HAL_RCC_OscConfig+0x394>
      {
        if ((HAL_GetTick() - tickstart) > RCC_LSE_TIMEOUT_VALUE)
 8005bca:	f7fe fe31 	bl	8004830 <HAL_GetTick>
 8005bce:	4602      	mov	r2, r0
 8005bd0:	693b      	ldr	r3, [r7, #16]
 8005bd2:	1ad3      	subs	r3, r2, r3
 8005bd4:	f241 3288 	movw	r2, #5000	; 0x1388
 8005bd8:	4293      	cmp	r3, r2
 8005bda:	d901      	bls.n	8005be0 <HAL_RCC_OscConfig+0x394>
        {
          return HAL_TIMEOUT;
 8005bdc:	2303      	movs	r3, #3
 8005bde:	e0b1      	b.n	8005d44 <HAL_RCC_OscConfig+0x4f8>
      while (__HAL_RCC_GET_FLAG(RCC_FLAG_LSERDY) == RESET)
 8005be0:	4b4b      	ldr	r3, [pc, #300]	; (8005d10 <HAL_RCC_OscConfig+0x4c4>)
 8005be2:	6a1b      	ldr	r3, [r3, #32]
 8005be4:	f003 0302 	and.w	r3, r3, #2
 8005be8:	2b00      	cmp	r3, #0
 8005bea:	d0ee      	beq.n	8005bca <HAL_RCC_OscConfig+0x37e>
 8005bec:	e014      	b.n	8005c18 <HAL_RCC_OscConfig+0x3cc>
      }
    }
    else
    {
      /* Get Start Tick */
      tickstart = HAL_GetTick();
 8005bee:	f7fe fe1f 	bl	8004830 <HAL_GetTick>
 8005bf2:	6138      	str	r0, [r7, #16]

      /* Wait till LSE is disabled */
      while (__HAL_RCC_GET_FLAG(RCC_FLAG_LSERDY) != RESET)
 8005bf4:	e00a      	b.n	8005c0c <HAL_RCC_OscConfig+0x3c0>
      {
        if ((HAL_GetTick() - tickstart) > RCC_LSE_TIMEOUT_VALUE)
 8005bf6:	f7fe fe1b 	bl	8004830 <HAL_GetTick>
 8005bfa:	4602      	mov	r2, r0
 8005bfc:	693b      	ldr	r3, [r7, #16]
 8005bfe:	1ad3      	subs	r3, r2, r3
 8005c00:	f241 3288 	movw	r2, #5000	; 0x1388
 8005c04:	4293      	cmp	r3, r2
 8005c06:	d901      	bls.n	8005c0c <HAL_RCC_OscConfig+0x3c0>
        {
          return HAL_TIMEOUT;
 8005c08:	2303      	movs	r3, #3
 8005c0a:	e09b      	b.n	8005d44 <HAL_RCC_OscConfig+0x4f8>
      while (__HAL_RCC_GET_FLAG(RCC_FLAG_LSERDY) != RESET)
 8005c0c:	4b40      	ldr	r3, [pc, #256]	; (8005d10 <HAL_RCC_OscConfig+0x4c4>)
 8005c0e:	6a1b      	ldr	r3, [r3, #32]
 8005c10:	f003 0302 	and.w	r3, r3, #2
 8005c14:	2b00      	cmp	r3, #0
 8005c16:	d1ee      	bne.n	8005bf6 <HAL_RCC_OscConfig+0x3aa>
        }
      }
    }

    /* Require to disable power clock if necessary */
    if (pwrclkchanged == SET)
 8005c18:	7dfb      	ldrb	r3, [r7, #23]
 8005c1a:	2b01      	cmp	r3, #1
 8005c1c:	d105      	bne.n	8005c2a <HAL_RCC_OscConfig+0x3de>
    {
      __HAL_RCC_PWR_CLK_DISABLE();
 8005c1e:	4b3c      	ldr	r3, [pc, #240]	; (8005d10 <HAL_RCC_OscConfig+0x4c4>)
 8005c20:	69db      	ldr	r3, [r3, #28]
 8005c22:	4a3b      	ldr	r2, [pc, #236]	; (8005d10 <HAL_RCC_OscConfig+0x4c4>)
 8005c24:	f023 5380 	bic.w	r3, r3, #268435456	; 0x10000000
 8005c28:	61d3      	str	r3, [r2, #28]

#endif /* RCC_CR_PLL2ON */
  /*-------------------------------- PLL Configuration -----------------------*/
  /* Check the parameters */
  assert_param(IS_RCC_PLL(RCC_OscInitStruct->PLL.PLLState));
  if ((RCC_OscInitStruct->PLL.PLLState) != RCC_PLL_NONE)
 8005c2a:	687b      	ldr	r3, [r7, #4]
 8005c2c:	69db      	ldr	r3, [r3, #28]
 8005c2e:	2b00      	cmp	r3, #0
 8005c30:	f000 8087 	beq.w	8005d42 <HAL_RCC_OscConfig+0x4f6>
  {
    /* Check if the PLL is used as system clock or not */
    if (__HAL_RCC_GET_SYSCLK_SOURCE() != RCC_SYSCLKSOURCE_STATUS_PLLCLK)
 8005c34:	4b36      	ldr	r3, [pc, #216]	; (8005d10 <HAL_RCC_OscConfig+0x4c4>)
 8005c36:	685b      	ldr	r3, [r3, #4]
 8005c38:	f003 030c 	and.w	r3, r3, #12
 8005c3c:	2b08      	cmp	r3, #8
 8005c3e:	d061      	beq.n	8005d04 <HAL_RCC_OscConfig+0x4b8>
    {
      if ((RCC_OscInitStruct->PLL.PLLState) == RCC_PLL_ON)
 8005c40:	687b      	ldr	r3, [r7, #4]
 8005c42:	69db      	ldr	r3, [r3, #28]
 8005c44:	2b02      	cmp	r3, #2
 8005c46:	d146      	bne.n	8005cd6 <HAL_RCC_OscConfig+0x48a>
        /* Check the parameters */
        assert_param(IS_RCC_PLLSOURCE(RCC_OscInitStruct->PLL.PLLSource));
        assert_param(IS_RCC_PLL_MUL(RCC_OscInitStruct->PLL.PLLMUL));

        /* Disable the main PLL. */
        __HAL_RCC_PLL_DISABLE();
 8005c48:	4b33      	ldr	r3, [pc, #204]	; (8005d18 <HAL_RCC_OscConfig+0x4cc>)
 8005c4a:	2200      	movs	r2, #0
 8005c4c:	601a      	str	r2, [r3, #0]

        /* Get Start Tick */
        tickstart = HAL_GetTick();
 8005c4e:	f7fe fdef 	bl	8004830 <HAL_GetTick>
 8005c52:	6138      	str	r0, [r7, #16]

        /* Wait till PLL is disabled */
        while (__HAL_RCC_GET_FLAG(RCC_FLAG_PLLRDY)  != RESET)
 8005c54:	e008      	b.n	8005c68 <HAL_RCC_OscConfig+0x41c>
        {
          if ((HAL_GetTick() - tickstart) > PLL_TIMEOUT_VALUE)
 8005c56:	f7fe fdeb 	bl	8004830 <HAL_GetTick>
 8005c5a:	4602      	mov	r2, r0
 8005c5c:	693b      	ldr	r3, [r7, #16]
 8005c5e:	1ad3      	subs	r3, r2, r3
 8005c60:	2b02      	cmp	r3, #2
 8005c62:	d901      	bls.n	8005c68 <HAL_RCC_OscConfig+0x41c>
          {
            return HAL_TIMEOUT;
 8005c64:	2303      	movs	r3, #3
 8005c66:	e06d      	b.n	8005d44 <HAL_RCC_OscConfig+0x4f8>
        while (__HAL_RCC_GET_FLAG(RCC_FLAG_PLLRDY)  != RESET)
 8005c68:	4b29      	ldr	r3, [pc, #164]	; (8005d10 <HAL_RCC_OscConfig+0x4c4>)
 8005c6a:	681b      	ldr	r3, [r3, #0]
 8005c6c:	f003 7300 	and.w	r3, r3, #33554432	; 0x2000000
 8005c70:	2b00      	cmp	r3, #0
 8005c72:	d1f0      	bne.n	8005c56 <HAL_RCC_OscConfig+0x40a>
          }
        }

        /* Configure the HSE prediv factor --------------------------------*/
        /* It can be written only when the PLL is disabled. Not used in PLL source is different than HSE */
        if (RCC_OscInitStruct->PLL.PLLSource == RCC_PLLSOURCE_HSE)
 8005c74:	687b      	ldr	r3, [r7, #4]
 8005c76:	6a1b      	ldr	r3, [r3, #32]
 8005c78:	f5b3 3f80 	cmp.w	r3, #65536	; 0x10000
 8005c7c:	d108      	bne.n	8005c90 <HAL_RCC_OscConfig+0x444>
          /* Set PREDIV1 source */
          SET_BIT(RCC->CFGR2, RCC_OscInitStruct->Prediv1Source);
#endif /* RCC_CFGR2_PREDIV1SRC */

          /* Set PREDIV1 Value */
          __HAL_RCC_HSE_PREDIV_CONFIG(RCC_OscInitStruct->HSEPredivValue);
 8005c7e:	4b24      	ldr	r3, [pc, #144]	; (8005d10 <HAL_RCC_OscConfig+0x4c4>)
 8005c80:	685b      	ldr	r3, [r3, #4]
 8005c82:	f423 3200 	bic.w	r2, r3, #131072	; 0x20000
 8005c86:	687b      	ldr	r3, [r7, #4]
 8005c88:	689b      	ldr	r3, [r3, #8]
 8005c8a:	4921      	ldr	r1, [pc, #132]	; (8005d10 <HAL_RCC_OscConfig+0x4c4>)
 8005c8c:	4313      	orrs	r3, r2
 8005c8e:	604b      	str	r3, [r1, #4]
        }

        /* Configure the main PLL clock source and multiplication factors. */
        __HAL_RCC_PLL_CONFIG(RCC_OscInitStruct->PLL.PLLSource,
 8005c90:	4b1f      	ldr	r3, [pc, #124]	; (8005d10 <HAL_RCC_OscConfig+0x4c4>)
 8005c92:	685b      	ldr	r3, [r3, #4]
 8005c94:	f423 1274 	bic.w	r2, r3, #3997696	; 0x3d0000
 8005c98:	687b      	ldr	r3, [r7, #4]
 8005c9a:	6a19      	ldr	r1, [r3, #32]
 8005c9c:	687b      	ldr	r3, [r7, #4]
 8005c9e:	6a5b      	ldr	r3, [r3, #36]	; 0x24
 8005ca0:	430b      	orrs	r3, r1
 8005ca2:	491b      	ldr	r1, [pc, #108]	; (8005d10 <HAL_RCC_OscConfig+0x4c4>)
 8005ca4:	4313      	orrs	r3, r2
 8005ca6:	604b      	str	r3, [r1, #4]
                             RCC_OscInitStruct->PLL.PLLMUL);
        /* Enable the main PLL. */
        __HAL_RCC_PLL_ENABLE();
 8005ca8:	4b1b      	ldr	r3, [pc, #108]	; (8005d18 <HAL_RCC_OscConfig+0x4cc>)
 8005caa:	2201      	movs	r2, #1
 8005cac:	601a      	str	r2, [r3, #0]

        /* Get Start Tick */
        tickstart = HAL_GetTick();
 8005cae:	f7fe fdbf 	bl	8004830 <HAL_GetTick>
 8005cb2:	6138      	str	r0, [r7, #16]

        /* Wait till PLL is ready */
        while (__HAL_RCC_GET_FLAG(RCC_FLAG_PLLRDY)  == RESET)
 8005cb4:	e008      	b.n	8005cc8 <HAL_RCC_OscConfig+0x47c>
        {
          if ((HAL_GetTick() - tickstart) > PLL_TIMEOUT_VALUE)
 8005cb6:	f7fe fdbb 	bl	8004830 <HAL_GetTick>
 8005cba:	4602      	mov	r2, r0
 8005cbc:	693b      	ldr	r3, [r7, #16]
 8005cbe:	1ad3      	subs	r3, r2, r3
 8005cc0:	2b02      	cmp	r3, #2
 8005cc2:	d901      	bls.n	8005cc8 <HAL_RCC_OscConfig+0x47c>
          {
            return HAL_TIMEOUT;
 8005cc4:	2303      	movs	r3, #3
 8005cc6:	e03d      	b.n	8005d44 <HAL_RCC_OscConfig+0x4f8>
        while (__HAL_RCC_GET_FLAG(RCC_FLAG_PLLRDY)  == RESET)
 8005cc8:	4b11      	ldr	r3, [pc, #68]	; (8005d10 <HAL_RCC_OscConfig+0x4c4>)
 8005cca:	681b      	ldr	r3, [r3, #0]
 8005ccc:	f003 7300 	and.w	r3, r3, #33554432	; 0x2000000
 8005cd0:	2b00      	cmp	r3, #0
 8005cd2:	d0f0      	beq.n	8005cb6 <HAL_RCC_OscConfig+0x46a>
 8005cd4:	e035      	b.n	8005d42 <HAL_RCC_OscConfig+0x4f6>
        }
      }
      else
      {
        /* Disable the main PLL. */
        __HAL_RCC_PLL_DISABLE();
 8005cd6:	4b10      	ldr	r3, [pc, #64]	; (8005d18 <HAL_RCC_OscConfig+0x4cc>)
 8005cd8:	2200      	movs	r2, #0
 8005cda:	601a      	str	r2, [r3, #0]

        /* Get Start Tick */
        tickstart = HAL_GetTick();
 8005cdc:	f7fe fda8 	bl	8004830 <HAL_GetTick>
 8005ce0:	6138      	str	r0, [r7, #16]

        /* Wait till PLL is disabled */
        while (__HAL_RCC_GET_FLAG(RCC_FLAG_PLLRDY)  != RESET)
 8005ce2:	e008      	b.n	8005cf6 <HAL_RCC_OscConfig+0x4aa>
        {
          if ((HAL_GetTick() - tickstart) > PLL_TIMEOUT_VALUE)
 8005ce4:	f7fe fda4 	bl	8004830 <HAL_GetTick>
 8005ce8:	4602      	mov	r2, r0
 8005cea:	693b      	ldr	r3, [r7, #16]
 8005cec:	1ad3      	subs	r3, r2, r3
 8005cee:	2b02      	cmp	r3, #2
 8005cf0:	d901      	bls.n	8005cf6 <HAL_RCC_OscConfig+0x4aa>
          {
            return HAL_TIMEOUT;
 8005cf2:	2303      	movs	r3, #3
 8005cf4:	e026      	b.n	8005d44 <HAL_RCC_OscConfig+0x4f8>
        while (__HAL_RCC_GET_FLAG(RCC_FLAG_PLLRDY)  != RESET)
 8005cf6:	4b06      	ldr	r3, [pc, #24]	; (8005d10 <HAL_RCC_OscConfig+0x4c4>)
 8005cf8:	681b      	ldr	r3, [r3, #0]
 8005cfa:	f003 7300 	and.w	r3, r3, #33554432	; 0x2000000
 8005cfe:	2b00      	cmp	r3, #0
 8005d00:	d1f0      	bne.n	8005ce4 <HAL_RCC_OscConfig+0x498>
 8005d02:	e01e      	b.n	8005d42 <HAL_RCC_OscConfig+0x4f6>
      }
    }
    else
    {
      /* Check if there is a request to disable the PLL used as System clock source */
      if ((RCC_OscInitStruct->PLL.PLLState) == RCC_PLL_OFF)
 8005d04:	687b      	ldr	r3, [r7, #4]
 8005d06:	69db      	ldr	r3, [r3, #28]
 8005d08:	2b01      	cmp	r3, #1
 8005d0a:	d107      	bne.n	8005d1c <HAL_RCC_OscConfig+0x4d0>
      {
        return HAL_ERROR;
 8005d0c:	2301      	movs	r3, #1
 8005d0e:	e019      	b.n	8005d44 <HAL_RCC_OscConfig+0x4f8>
 8005d10:	40021000 	.word	0x40021000
 8005d14:	40007000 	.word	0x40007000
 8005d18:	42420060 	.word	0x42420060
      }
      else
      {
        /* Do not return HAL_ERROR if request repeats the current configuration */
        pll_config = RCC->CFGR;
 8005d1c:	4b0b      	ldr	r3, [pc, #44]	; (8005d4c <HAL_RCC_OscConfig+0x500>)
 8005d1e:	685b      	ldr	r3, [r3, #4]
 8005d20:	60fb      	str	r3, [r7, #12]
        if ((READ_BIT(pll_config, RCC_CFGR_PLLSRC) != RCC_OscInitStruct->PLL.PLLSource) ||
 8005d22:	68fb      	ldr	r3, [r7, #12]
 8005d24:	f403 3280 	and.w	r2, r3, #65536	; 0x10000
 8005d28:	687b      	ldr	r3, [r7, #4]
 8005d2a:	6a1b      	ldr	r3, [r3, #32]
 8005d2c:	429a      	cmp	r2, r3
 8005d2e:	d106      	bne.n	8005d3e <HAL_RCC_OscConfig+0x4f2>
            (READ_BIT(pll_config, RCC_CFGR_PLLMULL) != RCC_OscInitStruct->PLL.PLLMUL))
 8005d30:	68fb      	ldr	r3, [r7, #12]
 8005d32:	f403 1270 	and.w	r2, r3, #3932160	; 0x3c0000
 8005d36:	687b      	ldr	r3, [r7, #4]
 8005d38:	6a5b      	ldr	r3, [r3, #36]	; 0x24
        if ((READ_BIT(pll_config, RCC_CFGR_PLLSRC) != RCC_OscInitStruct->PLL.PLLSource) ||
 8005d3a:	429a      	cmp	r2, r3
 8005d3c:	d001      	beq.n	8005d42 <HAL_RCC_OscConfig+0x4f6>
        {
          return HAL_ERROR;
 8005d3e:	2301      	movs	r3, #1
 8005d40:	e000      	b.n	8005d44 <HAL_RCC_OscConfig+0x4f8>
        }
      }
    }
  }

  return HAL_OK;
 8005d42:	2300      	movs	r3, #0
}
 8005d44:	4618      	mov	r0, r3
 8005d46:	3718      	adds	r7, #24
 8005d48:	46bd      	mov	sp, r7
 8005d4a:	bd80      	pop	{r7, pc}
 8005d4c:	40021000 	.word	0x40021000

08005d50 <HAL_RCC_ClockConfig>:
  *         You can use @ref HAL_RCC_GetClockConfig() function to know which clock is
  *         currently used as system clock source.
  * @retval HAL status
  */
HAL_StatusTypeDef HAL_RCC_ClockConfig(RCC_ClkInitTypeDef  *RCC_ClkInitStruct, uint32_t FLatency)
{
 8005d50:	b580      	push	{r7, lr}
 8005d52:	b084      	sub	sp, #16
 8005d54:	af00      	add	r7, sp, #0
 8005d56:	6078      	str	r0, [r7, #4]
 8005d58:	6039      	str	r1, [r7, #0]
  uint32_t tickstart;

  /* Check Null pointer */
  if (RCC_ClkInitStruct == NULL)
 8005d5a:	687b      	ldr	r3, [r7, #4]
 8005d5c:	2b00      	cmp	r3, #0
 8005d5e:	d101      	bne.n	8005d64 <HAL_RCC_ClockConfig+0x14>
  {
    return HAL_ERROR;
 8005d60:	2301      	movs	r3, #1
 8005d62:	e0d0      	b.n	8005f06 <HAL_RCC_ClockConfig+0x1b6>
  must be correctly programmed according to the frequency of the CPU clock
    (HCLK) of the device. */

#if defined(FLASH_ACR_LATENCY)
  /* Increasing the number of wait states because of higher CPU frequency */
  if (FLatency > __HAL_FLASH_GET_LATENCY())
 8005d64:	4b6a      	ldr	r3, [pc, #424]	; (8005f10 <HAL_RCC_ClockConfig+0x1c0>)
 8005d66:	681b      	ldr	r3, [r3, #0]
 8005d68:	f003 0307 	and.w	r3, r3, #7
 8005d6c:	683a      	ldr	r2, [r7, #0]
 8005d6e:	429a      	cmp	r2, r3
 8005d70:	d910      	bls.n	8005d94 <HAL_RCC_ClockConfig+0x44>
  {
    /* Program the new number of wait states to the LATENCY bits in the FLASH_ACR register */
    __HAL_FLASH_SET_LATENCY(FLatency);
 8005d72:	4b67      	ldr	r3, [pc, #412]	; (8005f10 <HAL_RCC_ClockConfig+0x1c0>)
 8005d74:	681b      	ldr	r3, [r3, #0]
 8005d76:	f023 0207 	bic.w	r2, r3, #7
 8005d7a:	4965      	ldr	r1, [pc, #404]	; (8005f10 <HAL_RCC_ClockConfig+0x1c0>)
 8005d7c:	683b      	ldr	r3, [r7, #0]
 8005d7e:	4313      	orrs	r3, r2
 8005d80:	600b      	str	r3, [r1, #0]

    /* Check that the new number of wait states is taken into account to access the Flash
    memory by reading the FLASH_ACR register */
    if (__HAL_FLASH_GET_LATENCY() != FLatency)
 8005d82:	4b63      	ldr	r3, [pc, #396]	; (8005f10 <HAL_RCC_ClockConfig+0x1c0>)
 8005d84:	681b      	ldr	r3, [r3, #0]
 8005d86:	f003 0307 	and.w	r3, r3, #7
 8005d8a:	683a      	ldr	r2, [r7, #0]
 8005d8c:	429a      	cmp	r2, r3
 8005d8e:	d001      	beq.n	8005d94 <HAL_RCC_ClockConfig+0x44>
  {
    return HAL_ERROR;
 8005d90:	2301      	movs	r3, #1
 8005d92:	e0b8      	b.n	8005f06 <HAL_RCC_ClockConfig+0x1b6>
  }
}

#endif /* FLASH_ACR_LATENCY */
/*-------------------------- HCLK Configuration --------------------------*/
if (((RCC_ClkInitStruct->ClockType) & RCC_CLOCKTYPE_HCLK) == RCC_CLOCKTYPE_HCLK)
 8005d94:	687b      	ldr	r3, [r7, #4]
 8005d96:	681b      	ldr	r3, [r3, #0]
 8005d98:	f003 0302 	and.w	r3, r3, #2
 8005d9c:	2b00      	cmp	r3, #0
 8005d9e:	d020      	beq.n	8005de2 <HAL_RCC_ClockConfig+0x92>
  {
    /* Set the highest APBx dividers in order to ensure that we do not go through
    a non-spec phase whatever we decrease or increase HCLK. */
    if (((RCC_ClkInitStruct->ClockType) & RCC_CLOCKTYPE_PCLK1) == RCC_CLOCKTYPE_PCLK1)
 8005da0:	687b      	ldr	r3, [r7, #4]
 8005da2:	681b      	ldr	r3, [r3, #0]
 8005da4:	f003 0304 	and.w	r3, r3, #4
 8005da8:	2b00      	cmp	r3, #0
 8005daa:	d005      	beq.n	8005db8 <HAL_RCC_ClockConfig+0x68>
    {
      MODIFY_REG(RCC->CFGR, RCC_CFGR_PPRE1, RCC_HCLK_DIV16);
 8005dac:	4b59      	ldr	r3, [pc, #356]	; (8005f14 <HAL_RCC_ClockConfig+0x1c4>)
 8005dae:	685b      	ldr	r3, [r3, #4]
 8005db0:	4a58      	ldr	r2, [pc, #352]	; (8005f14 <HAL_RCC_ClockConfig+0x1c4>)
 8005db2:	f443 63e0 	orr.w	r3, r3, #1792	; 0x700
 8005db6:	6053      	str	r3, [r2, #4]
    }

    if (((RCC_ClkInitStruct->ClockType) & RCC_CLOCKTYPE_PCLK2) == RCC_CLOCKTYPE_PCLK2)
 8005db8:	687b      	ldr	r3, [r7, #4]
 8005dba:	681b      	ldr	r3, [r3, #0]
 8005dbc:	f003 0308 	and.w	r3, r3, #8
 8005dc0:	2b00      	cmp	r3, #0
 8005dc2:	d005      	beq.n	8005dd0 <HAL_RCC_ClockConfig+0x80>
    {
      MODIFY_REG(RCC->CFGR, RCC_CFGR_PPRE2, (RCC_HCLK_DIV16 << 3));
 8005dc4:	4b53      	ldr	r3, [pc, #332]	; (8005f14 <HAL_RCC_ClockConfig+0x1c4>)
 8005dc6:	685b      	ldr	r3, [r3, #4]
 8005dc8:	4a52      	ldr	r2, [pc, #328]	; (8005f14 <HAL_RCC_ClockConfig+0x1c4>)
 8005dca:	f443 5360 	orr.w	r3, r3, #14336	; 0x3800
 8005dce:	6053      	str	r3, [r2, #4]
    }

    /* Set the new HCLK clock divider */
    assert_param(IS_RCC_HCLK(RCC_ClkInitStruct->AHBCLKDivider));
    MODIFY_REG(RCC->CFGR, RCC_CFGR_HPRE, RCC_ClkInitStruct->AHBCLKDivider);
 8005dd0:	4b50      	ldr	r3, [pc, #320]	; (8005f14 <HAL_RCC_ClockConfig+0x1c4>)
 8005dd2:	685b      	ldr	r3, [r3, #4]
 8005dd4:	f023 02f0 	bic.w	r2, r3, #240	; 0xf0
 8005dd8:	687b      	ldr	r3, [r7, #4]
 8005dda:	689b      	ldr	r3, [r3, #8]
 8005ddc:	494d      	ldr	r1, [pc, #308]	; (8005f14 <HAL_RCC_ClockConfig+0x1c4>)
 8005dde:	4313      	orrs	r3, r2
 8005de0:	604b      	str	r3, [r1, #4]
  }

  /*------------------------- SYSCLK Configuration ---------------------------*/
  if (((RCC_ClkInitStruct->ClockType) & RCC_CLOCKTYPE_SYSCLK) == RCC_CLOCKTYPE_SYSCLK)
 8005de2:	687b      	ldr	r3, [r7, #4]
 8005de4:	681b      	ldr	r3, [r3, #0]
 8005de6:	f003 0301 	and.w	r3, r3, #1
 8005dea:	2b00      	cmp	r3, #0
 8005dec:	d040      	beq.n	8005e70 <HAL_RCC_ClockConfig+0x120>
  {
    assert_param(IS_RCC_SYSCLKSOURCE(RCC_ClkInitStruct->SYSCLKSource));

    /* HSE is selected as System Clock Source */
    if (RCC_ClkInitStruct->SYSCLKSource == RCC_SYSCLKSOURCE_HSE)
 8005dee:	687b      	ldr	r3, [r7, #4]
 8005df0:	685b      	ldr	r3, [r3, #4]
 8005df2:	2b01      	cmp	r3, #1
 8005df4:	d107      	bne.n	8005e06 <HAL_RCC_ClockConfig+0xb6>
    {
      /* Check the HSE ready flag */
      if (__HAL_RCC_GET_FLAG(RCC_FLAG_HSERDY) == RESET)
 8005df6:	4b47      	ldr	r3, [pc, #284]	; (8005f14 <HAL_RCC_ClockConfig+0x1c4>)
 8005df8:	681b      	ldr	r3, [r3, #0]
 8005dfa:	f403 3300 	and.w	r3, r3, #131072	; 0x20000
 8005dfe:	2b00      	cmp	r3, #0
 8005e00:	d115      	bne.n	8005e2e <HAL_RCC_ClockConfig+0xde>
      {
        return HAL_ERROR;
 8005e02:	2301      	movs	r3, #1
 8005e04:	e07f      	b.n	8005f06 <HAL_RCC_ClockConfig+0x1b6>
      }
    }
    /* PLL is selected as System Clock Source */
    else if (RCC_ClkInitStruct->SYSCLKSource == RCC_SYSCLKSOURCE_PLLCLK)
 8005e06:	687b      	ldr	r3, [r7, #4]
 8005e08:	685b      	ldr	r3, [r3, #4]
 8005e0a:	2b02      	cmp	r3, #2
 8005e0c:	d107      	bne.n	8005e1e <HAL_RCC_ClockConfig+0xce>
    {
      /* Check the PLL ready flag */
      if (__HAL_RCC_GET_FLAG(RCC_FLAG_PLLRDY) == RESET)
 8005e0e:	4b41      	ldr	r3, [pc, #260]	; (8005f14 <HAL_RCC_ClockConfig+0x1c4>)
 8005e10:	681b      	ldr	r3, [r3, #0]
 8005e12:	f003 7300 	and.w	r3, r3, #33554432	; 0x2000000
 8005e16:	2b00      	cmp	r3, #0
 8005e18:	d109      	bne.n	8005e2e <HAL_RCC_ClockConfig+0xde>
      {
        return HAL_ERROR;
 8005e1a:	2301      	movs	r3, #1
 8005e1c:	e073      	b.n	8005f06 <HAL_RCC_ClockConfig+0x1b6>
    }
    /* HSI is selected as System Clock Source */
    else
    {
      /* Check the HSI ready flag */
      if (__HAL_RCC_GET_FLAG(RCC_FLAG_HSIRDY) == RESET)
 8005e1e:	4b3d      	ldr	r3, [pc, #244]	; (8005f14 <HAL_RCC_ClockConfig+0x1c4>)
 8005e20:	681b      	ldr	r3, [r3, #0]
 8005e22:	f003 0302 	and.w	r3, r3, #2
 8005e26:	2b00      	cmp	r3, #0
 8005e28:	d101      	bne.n	8005e2e <HAL_RCC_ClockConfig+0xde>
      {
        return HAL_ERROR;
 8005e2a:	2301      	movs	r3, #1
 8005e2c:	e06b      	b.n	8005f06 <HAL_RCC_ClockConfig+0x1b6>
      }
    }
    __HAL_RCC_SYSCLK_CONFIG(RCC_ClkInitStruct->SYSCLKSource);
 8005e2e:	4b39      	ldr	r3, [pc, #228]	; (8005f14 <HAL_RCC_ClockConfig+0x1c4>)
 8005e30:	685b      	ldr	r3, [r3, #4]
 8005e32:	f023 0203 	bic.w	r2, r3, #3
 8005e36:	687b      	ldr	r3, [r7, #4]
 8005e38:	685b      	ldr	r3, [r3, #4]
 8005e3a:	4936      	ldr	r1, [pc, #216]	; (8005f14 <HAL_RCC_ClockConfig+0x1c4>)
 8005e3c:	4313      	orrs	r3, r2
 8005e3e:	604b      	str	r3, [r1, #4]

    /* Get Start Tick */
    tickstart = HAL_GetTick();
 8005e40:	f7fe fcf6 	bl	8004830 <HAL_GetTick>
 8005e44:	60f8      	str	r0, [r7, #12]

    while (__HAL_RCC_GET_SYSCLK_SOURCE() != (RCC_ClkInitStruct->SYSCLKSource << RCC_CFGR_SWS_Pos))
 8005e46:	e00a      	b.n	8005e5e <HAL_RCC_ClockConfig+0x10e>
    {
      if ((HAL_GetTick() - tickstart) > CLOCKSWITCH_TIMEOUT_VALUE)
 8005e48:	f7fe fcf2 	bl	8004830 <HAL_GetTick>
 8005e4c:	4602      	mov	r2, r0
 8005e4e:	68fb      	ldr	r3, [r7, #12]
 8005e50:	1ad3      	subs	r3, r2, r3
 8005e52:	f241 3288 	movw	r2, #5000	; 0x1388
 8005e56:	4293      	cmp	r3, r2
 8005e58:	d901      	bls.n	8005e5e <HAL_RCC_ClockConfig+0x10e>
      {
        return HAL_TIMEOUT;
 8005e5a:	2303      	movs	r3, #3
 8005e5c:	e053      	b.n	8005f06 <HAL_RCC_ClockConfig+0x1b6>
    while (__HAL_RCC_GET_SYSCLK_SOURCE() != (RCC_ClkInitStruct->SYSCLKSource << RCC_CFGR_SWS_Pos))
 8005e5e:	4b2d      	ldr	r3, [pc, #180]	; (8005f14 <HAL_RCC_ClockConfig+0x1c4>)
 8005e60:	685b      	ldr	r3, [r3, #4]
 8005e62:	f003 020c 	and.w	r2, r3, #12
 8005e66:	687b      	ldr	r3, [r7, #4]
 8005e68:	685b      	ldr	r3, [r3, #4]
 8005e6a:	009b      	lsls	r3, r3, #2
 8005e6c:	429a      	cmp	r2, r3
 8005e6e:	d1eb      	bne.n	8005e48 <HAL_RCC_ClockConfig+0xf8>
    }
  }

#if defined(FLASH_ACR_LATENCY)
  /* Decreasing the number of wait states because of lower CPU frequency */
  if (FLatency < __HAL_FLASH_GET_LATENCY())
 8005e70:	4b27      	ldr	r3, [pc, #156]	; (8005f10 <HAL_RCC_ClockConfig+0x1c0>)
 8005e72:	681b      	ldr	r3, [r3, #0]
 8005e74:	f003 0307 	and.w	r3, r3, #7
 8005e78:	683a      	ldr	r2, [r7, #0]
 8005e7a:	429a      	cmp	r2, r3
 8005e7c:	d210      	bcs.n	8005ea0 <HAL_RCC_ClockConfig+0x150>
  {
    /* Program the new number of wait states to the LATENCY bits in the FLASH_ACR register */
    __HAL_FLASH_SET_LATENCY(FLatency);
 8005e7e:	4b24      	ldr	r3, [pc, #144]	; (8005f10 <HAL_RCC_ClockConfig+0x1c0>)
 8005e80:	681b      	ldr	r3, [r3, #0]
 8005e82:	f023 0207 	bic.w	r2, r3, #7
 8005e86:	4922      	ldr	r1, [pc, #136]	; (8005f10 <HAL_RCC_ClockConfig+0x1c0>)
 8005e88:	683b      	ldr	r3, [r7, #0]
 8005e8a:	4313      	orrs	r3, r2
 8005e8c:	600b      	str	r3, [r1, #0]

    /* Check that the new number of wait states is taken into account to access the Flash
    memory by reading the FLASH_ACR register */
    if (__HAL_FLASH_GET_LATENCY() != FLatency)
 8005e8e:	4b20      	ldr	r3, [pc, #128]	; (8005f10 <HAL_RCC_ClockConfig+0x1c0>)
 8005e90:	681b      	ldr	r3, [r3, #0]
 8005e92:	f003 0307 	and.w	r3, r3, #7
 8005e96:	683a      	ldr	r2, [r7, #0]
 8005e98:	429a      	cmp	r2, r3
 8005e9a:	d001      	beq.n	8005ea0 <HAL_RCC_ClockConfig+0x150>
  {
    return HAL_ERROR;
 8005e9c:	2301      	movs	r3, #1
 8005e9e:	e032      	b.n	8005f06 <HAL_RCC_ClockConfig+0x1b6>
  }
}
#endif /* FLASH_ACR_LATENCY */

/*-------------------------- PCLK1 Configuration ---------------------------*/
if (((RCC_ClkInitStruct->ClockType) & RCC_CLOCKTYPE_PCLK1) == RCC_CLOCKTYPE_PCLK1)
 8005ea0:	687b      	ldr	r3, [r7, #4]
 8005ea2:	681b      	ldr	r3, [r3, #0]
 8005ea4:	f003 0304 	and.w	r3, r3, #4
 8005ea8:	2b00      	cmp	r3, #0
 8005eaa:	d008      	beq.n	8005ebe <HAL_RCC_ClockConfig+0x16e>
  {
    assert_param(IS_RCC_PCLK(RCC_ClkInitStruct->APB1CLKDivider));
    MODIFY_REG(RCC->CFGR, RCC_CFGR_PPRE1, RCC_ClkInitStruct->APB1CLKDivider);
 8005eac:	4b19      	ldr	r3, [pc, #100]	; (8005f14 <HAL_RCC_ClockConfig+0x1c4>)
 8005eae:	685b      	ldr	r3, [r3, #4]
 8005eb0:	f423 62e0 	bic.w	r2, r3, #1792	; 0x700
 8005eb4:	687b      	ldr	r3, [r7, #4]
 8005eb6:	68db      	ldr	r3, [r3, #12]
 8005eb8:	4916      	ldr	r1, [pc, #88]	; (8005f14 <HAL_RCC_ClockConfig+0x1c4>)
 8005eba:	4313      	orrs	r3, r2
 8005ebc:	604b      	str	r3, [r1, #4]
  }

  /*-------------------------- PCLK2 Configuration ---------------------------*/
  if (((RCC_ClkInitStruct->ClockType) & RCC_CLOCKTYPE_PCLK2) == RCC_CLOCKTYPE_PCLK2)
 8005ebe:	687b      	ldr	r3, [r7, #4]
 8005ec0:	681b      	ldr	r3, [r3, #0]
 8005ec2:	f003 0308 	and.w	r3, r3, #8
 8005ec6:	2b00      	cmp	r3, #0
 8005ec8:	d009      	beq.n	8005ede <HAL_RCC_ClockConfig+0x18e>
  {
    assert_param(IS_RCC_PCLK(RCC_ClkInitStruct->APB2CLKDivider));
    MODIFY_REG(RCC->CFGR, RCC_CFGR_PPRE2, ((RCC_ClkInitStruct->APB2CLKDivider) << 3));
 8005eca:	4b12      	ldr	r3, [pc, #72]	; (8005f14 <HAL_RCC_ClockConfig+0x1c4>)
 8005ecc:	685b      	ldr	r3, [r3, #4]
 8005ece:	f423 5260 	bic.w	r2, r3, #14336	; 0x3800
 8005ed2:	687b      	ldr	r3, [r7, #4]
 8005ed4:	691b      	ldr	r3, [r3, #16]
 8005ed6:	00db      	lsls	r3, r3, #3
 8005ed8:	490e      	ldr	r1, [pc, #56]	; (8005f14 <HAL_RCC_ClockConfig+0x1c4>)
 8005eda:	4313      	orrs	r3, r2
 8005edc:	604b      	str	r3, [r1, #4]
  }

  /* Update the SystemCoreClock global variable */
  SystemCoreClock = HAL_RCC_GetSysClockFreq() >> AHBPrescTable[(RCC->CFGR & RCC_CFGR_HPRE) >> RCC_CFGR_HPRE_Pos];
 8005ede:	f000 f821 	bl	8005f24 <HAL_RCC_GetSysClockFreq>
 8005ee2:	4602      	mov	r2, r0
 8005ee4:	4b0b      	ldr	r3, [pc, #44]	; (8005f14 <HAL_RCC_ClockConfig+0x1c4>)
 8005ee6:	685b      	ldr	r3, [r3, #4]
 8005ee8:	091b      	lsrs	r3, r3, #4
 8005eea:	f003 030f 	and.w	r3, r3, #15
 8005eee:	490a      	ldr	r1, [pc, #40]	; (8005f18 <HAL_RCC_ClockConfig+0x1c8>)
 8005ef0:	5ccb      	ldrb	r3, [r1, r3]
 8005ef2:	fa22 f303 	lsr.w	r3, r2, r3
 8005ef6:	4a09      	ldr	r2, [pc, #36]	; (8005f1c <HAL_RCC_ClockConfig+0x1cc>)
 8005ef8:	6013      	str	r3, [r2, #0]

  /* Configure the source of time base considering new system clocks settings*/
  HAL_InitTick(uwTickPrio);
 8005efa:	4b09      	ldr	r3, [pc, #36]	; (8005f20 <HAL_RCC_ClockConfig+0x1d0>)
 8005efc:	681b      	ldr	r3, [r3, #0]
 8005efe:	4618      	mov	r0, r3
 8005f00:	f7fe fc54 	bl	80047ac <HAL_InitTick>

  return HAL_OK;
 8005f04:	2300      	movs	r3, #0
}
 8005f06:	4618      	mov	r0, r3
 8005f08:	3710      	adds	r7, #16
 8005f0a:	46bd      	mov	sp, r7
 8005f0c:	bd80      	pop	{r7, pc}
 8005f0e:	bf00      	nop
 8005f10:	40022000 	.word	0x40022000
 8005f14:	40021000 	.word	0x40021000
 8005f18:	08008384 	.word	0x08008384
 8005f1c:	20000000 	.word	0x20000000
 8005f20:	20000038 	.word	0x20000038

08005f24 <HAL_RCC_GetSysClockFreq>:
  *         right SYSCLK value. Otherwise, any configuration based on this function will be incorrect.
  *
  * @retval SYSCLK frequency
  */
uint32_t HAL_RCC_GetSysClockFreq(void)
{
 8005f24:	b480      	push	{r7}
 8005f26:	b087      	sub	sp, #28
 8005f28:	af00      	add	r7, sp, #0
#else
  static const uint8_t aPredivFactorTable[2U] = {1, 2};
#endif /*RCC_CFGR2_PREDIV1*/

#endif
  uint32_t tmpreg = 0U, prediv = 0U, pllclk = 0U, pllmul = 0U;
 8005f2a:	2300      	movs	r3, #0
 8005f2c:	60fb      	str	r3, [r7, #12]
 8005f2e:	2300      	movs	r3, #0
 8005f30:	60bb      	str	r3, [r7, #8]
 8005f32:	2300      	movs	r3, #0
 8005f34:	617b      	str	r3, [r7, #20]
 8005f36:	2300      	movs	r3, #0
 8005f38:	607b      	str	r3, [r7, #4]
  uint32_t sysclockfreq = 0U;
 8005f3a:	2300      	movs	r3, #0
 8005f3c:	613b      	str	r3, [r7, #16]
#if defined(RCC_CFGR2_PREDIV1SRC)
  uint32_t prediv2 = 0U, pll2mul = 0U;
#endif /*RCC_CFGR2_PREDIV1SRC*/

  tmpreg = RCC->CFGR;
 8005f3e:	4b1e      	ldr	r3, [pc, #120]	; (8005fb8 <HAL_RCC_GetSysClockFreq+0x94>)
 8005f40:	685b      	ldr	r3, [r3, #4]
 8005f42:	60fb      	str	r3, [r7, #12]

  /* Get SYSCLK source -------------------------------------------------------*/
  switch (tmpreg & RCC_CFGR_SWS)
 8005f44:	68fb      	ldr	r3, [r7, #12]
 8005f46:	f003 030c 	and.w	r3, r3, #12
 8005f4a:	2b04      	cmp	r3, #4
 8005f4c:	d002      	beq.n	8005f54 <HAL_RCC_GetSysClockFreq+0x30>
 8005f4e:	2b08      	cmp	r3, #8
 8005f50:	d003      	beq.n	8005f5a <HAL_RCC_GetSysClockFreq+0x36>
 8005f52:	e027      	b.n	8005fa4 <HAL_RCC_GetSysClockFreq+0x80>
  {
    case RCC_SYSCLKSOURCE_STATUS_HSE:  /* HSE used as system clock */
    {
      sysclockfreq = HSE_VALUE;
 8005f54:	4b19      	ldr	r3, [pc, #100]	; (8005fbc <HAL_RCC_GetSysClockFreq+0x98>)
 8005f56:	613b      	str	r3, [r7, #16]
      break;
 8005f58:	e027      	b.n	8005faa <HAL_RCC_GetSysClockFreq+0x86>
    }
    case RCC_SYSCLKSOURCE_STATUS_PLLCLK:  /* PLL used as system clock */
    {
      pllmul = aPLLMULFactorTable[(uint32_t)(tmpreg & RCC_CFGR_PLLMULL) >> RCC_CFGR_PLLMULL_Pos];
 8005f5a:	68fb      	ldr	r3, [r7, #12]
 8005f5c:	0c9b      	lsrs	r3, r3, #18
 8005f5e:	f003 030f 	and.w	r3, r3, #15
 8005f62:	4a17      	ldr	r2, [pc, #92]	; (8005fc0 <HAL_RCC_GetSysClockFreq+0x9c>)
 8005f64:	5cd3      	ldrb	r3, [r2, r3]
 8005f66:	607b      	str	r3, [r7, #4]
      if ((tmpreg & RCC_CFGR_PLLSRC) != RCC_PLLSOURCE_HSI_DIV2)
 8005f68:	68fb      	ldr	r3, [r7, #12]
 8005f6a:	f403 3380 	and.w	r3, r3, #65536	; 0x10000
 8005f6e:	2b00      	cmp	r3, #0
 8005f70:	d010      	beq.n	8005f94 <HAL_RCC_GetSysClockFreq+0x70>
      {
#if defined(RCC_CFGR2_PREDIV1)
        prediv = aPredivFactorTable[(uint32_t)(RCC->CFGR2 & RCC_CFGR2_PREDIV1) >> RCC_CFGR2_PREDIV1_Pos];
#else
        prediv = aPredivFactorTable[(uint32_t)(RCC->CFGR & RCC_CFGR_PLLXTPRE) >> RCC_CFGR_PLLXTPRE_Pos];
 8005f72:	4b11      	ldr	r3, [pc, #68]	; (8005fb8 <HAL_RCC_GetSysClockFreq+0x94>)
 8005f74:	685b      	ldr	r3, [r3, #4]
 8005f76:	0c5b      	lsrs	r3, r3, #17
 8005f78:	f003 0301 	and.w	r3, r3, #1
 8005f7c:	4a11      	ldr	r2, [pc, #68]	; (8005fc4 <HAL_RCC_GetSysClockFreq+0xa0>)
 8005f7e:	5cd3      	ldrb	r3, [r2, r3]
 8005f80:	60bb      	str	r3, [r7, #8]
        {
          pllclk = pllclk / 2;
        }
#else
        /* HSE used as PLL clock source : PLLCLK = HSE/PREDIV1 * PLLMUL */
        pllclk = (uint32_t)((HSE_VALUE  * pllmul) / prediv);
 8005f82:	687b      	ldr	r3, [r7, #4]
 8005f84:	4a0d      	ldr	r2, [pc, #52]	; (8005fbc <HAL_RCC_GetSysClockFreq+0x98>)
 8005f86:	fb03 f202 	mul.w	r2, r3, r2
 8005f8a:	68bb      	ldr	r3, [r7, #8]
 8005f8c:	fbb2 f3f3 	udiv	r3, r2, r3
 8005f90:	617b      	str	r3, [r7, #20]
 8005f92:	e004      	b.n	8005f9e <HAL_RCC_GetSysClockFreq+0x7a>
#endif /*RCC_CFGR2_PREDIV1SRC*/
      }
      else
      {
        /* HSI used as PLL clock source : PLLCLK = HSI/2 * PLLMUL */
        pllclk = (uint32_t)((HSI_VALUE >> 1) * pllmul);
 8005f94:	687b      	ldr	r3, [r7, #4]
 8005f96:	4a0c      	ldr	r2, [pc, #48]	; (8005fc8 <HAL_RCC_GetSysClockFreq+0xa4>)
 8005f98:	fb02 f303 	mul.w	r3, r2, r3
 8005f9c:	617b      	str	r3, [r7, #20]
      }
      sysclockfreq = pllclk;
 8005f9e:	697b      	ldr	r3, [r7, #20]
 8005fa0:	613b      	str	r3, [r7, #16]
      break;
 8005fa2:	e002      	b.n	8005faa <HAL_RCC_GetSysClockFreq+0x86>
    }
    case RCC_SYSCLKSOURCE_STATUS_HSI:  /* HSI used as system clock source */
    default: /* HSI used as system clock */
    {
      sysclockfreq = HSI_VALUE;
 8005fa4:	4b05      	ldr	r3, [pc, #20]	; (8005fbc <HAL_RCC_GetSysClockFreq+0x98>)
 8005fa6:	613b      	str	r3, [r7, #16]
      break;
 8005fa8:	bf00      	nop
    }
  }
  return sysclockfreq;
 8005faa:	693b      	ldr	r3, [r7, #16]
}
 8005fac:	4618      	mov	r0, r3
 8005fae:	371c      	adds	r7, #28
 8005fb0:	46bd      	mov	sp, r7
 8005fb2:	bc80      	pop	{r7}
 8005fb4:	4770      	bx	lr
 8005fb6:	bf00      	nop
 8005fb8:	40021000 	.word	0x40021000
 8005fbc:	007a1200 	.word	0x007a1200
 8005fc0:	0800839c 	.word	0x0800839c
 8005fc4:	080083ac 	.word	0x080083ac
 8005fc8:	003d0900 	.word	0x003d0900

08005fcc <HAL_RCC_GetHCLKFreq>:
  * @note   The SystemCoreClock CMSIS variable is used to store System Clock Frequency
  *         and updated within this function
  * @retval HCLK frequency
  */
uint32_t HAL_RCC_GetHCLKFreq(void)
{
 8005fcc:	b480      	push	{r7}
 8005fce:	af00      	add	r7, sp, #0
  return SystemCoreClock;
 8005fd0:	4b02      	ldr	r3, [pc, #8]	; (8005fdc <HAL_RCC_GetHCLKFreq+0x10>)
 8005fd2:	681b      	ldr	r3, [r3, #0]
}
 8005fd4:	4618      	mov	r0, r3
 8005fd6:	46bd      	mov	sp, r7
 8005fd8:	bc80      	pop	{r7}
 8005fda:	4770      	bx	lr
 8005fdc:	20000000 	.word	0x20000000

08005fe0 <HAL_RCC_GetPCLK2Freq>:
  * @note   Each time PCLK2 changes, this function must be called to update the
  *         right PCLK2 value. Otherwise, any configuration based on this function will be incorrect.
  * @retval PCLK2 frequency
  */
uint32_t HAL_RCC_GetPCLK2Freq(void)
{
 8005fe0:	b580      	push	{r7, lr}
 8005fe2:	af00      	add	r7, sp, #0
  /* Get HCLK source and Compute PCLK2 frequency ---------------------------*/
  return (HAL_RCC_GetHCLKFreq() >> APBPrescTable[(RCC->CFGR & RCC_CFGR_PPRE2) >> RCC_CFGR_PPRE2_Pos]);
 8005fe4:	f7ff fff2 	bl	8005fcc <HAL_RCC_GetHCLKFreq>
 8005fe8:	4602      	mov	r2, r0
 8005fea:	4b05      	ldr	r3, [pc, #20]	; (8006000 <HAL_RCC_GetPCLK2Freq+0x20>)
 8005fec:	685b      	ldr	r3, [r3, #4]
 8005fee:	0adb      	lsrs	r3, r3, #11
 8005ff0:	f003 0307 	and.w	r3, r3, #7
 8005ff4:	4903      	ldr	r1, [pc, #12]	; (8006004 <HAL_RCC_GetPCLK2Freq+0x24>)
 8005ff6:	5ccb      	ldrb	r3, [r1, r3]
 8005ff8:	fa22 f303 	lsr.w	r3, r2, r3
}
 8005ffc:	4618      	mov	r0, r3
 8005ffe:	bd80      	pop	{r7, pc}
 8006000:	40021000 	.word	0x40021000
 8006004:	08008394 	.word	0x08008394

08006008 <RCC_Delay>:
  * @brief  This function provides delay (in milliseconds) based on CPU cycles method.
  * @param  mdelay: specifies the delay time length, in milliseconds.
  * @retval None
  */
static void RCC_Delay(uint32_t mdelay)
{
 8006008:	b480      	push	{r7}
 800600a:	b085      	sub	sp, #20
 800600c:	af00      	add	r7, sp, #0
 800600e:	6078      	str	r0, [r7, #4]
  __IO uint32_t Delay = mdelay * (SystemCoreClock / 8U / 1000U);
 8006010:	4b0a      	ldr	r3, [pc, #40]	; (800603c <RCC_Delay+0x34>)
 8006012:	681b      	ldr	r3, [r3, #0]
 8006014:	4a0a      	ldr	r2, [pc, #40]	; (8006040 <RCC_Delay+0x38>)
 8006016:	fba2 2303 	umull	r2, r3, r2, r3
 800601a:	0a5b      	lsrs	r3, r3, #9
 800601c:	687a      	ldr	r2, [r7, #4]
 800601e:	fb02 f303 	mul.w	r3, r2, r3
 8006022:	60fb      	str	r3, [r7, #12]
  do
  {
    __NOP();
 8006024:	bf00      	nop
  }
  while (Delay --);
 8006026:	68fb      	ldr	r3, [r7, #12]
 8006028:	1e5a      	subs	r2, r3, #1
 800602a:	60fa      	str	r2, [r7, #12]
 800602c:	2b00      	cmp	r3, #0
 800602e:	d1f9      	bne.n	8006024 <RCC_Delay+0x1c>
}
 8006030:	bf00      	nop
 8006032:	bf00      	nop
 8006034:	3714      	adds	r7, #20
 8006036:	46bd      	mov	sp, r7
 8006038:	bc80      	pop	{r7}
 800603a:	4770      	bx	lr
 800603c:	20000000 	.word	0x20000000
 8006040:	10624dd3 	.word	0x10624dd3

08006044 <HAL_RCCEx_PeriphCLKConfig>:
  *         manually disable it.
  *
  * @retval HAL status
  */
HAL_StatusTypeDef HAL_RCCEx_PeriphCLKConfig(RCC_PeriphCLKInitTypeDef  *PeriphClkInit)
{
 8006044:	b580      	push	{r7, lr}
 8006046:	b086      	sub	sp, #24
 8006048:	af00      	add	r7, sp, #0
 800604a:	6078      	str	r0, [r7, #4]
  uint32_t tickstart = 0U, temp_reg = 0U;
 800604c:	2300      	movs	r3, #0
 800604e:	613b      	str	r3, [r7, #16]
 8006050:	2300      	movs	r3, #0
 8006052:	60fb      	str	r3, [r7, #12]

  /* Check the parameters */
  assert_param(IS_RCC_PERIPHCLOCK(PeriphClkInit->PeriphClockSelection));

  /*------------------------------- RTC/LCD Configuration ------------------------*/
  if ((((PeriphClkInit->PeriphClockSelection) & RCC_PERIPHCLK_RTC) == RCC_PERIPHCLK_RTC))
 8006054:	687b      	ldr	r3, [r7, #4]
 8006056:	681b      	ldr	r3, [r3, #0]
 8006058:	f003 0301 	and.w	r3, r3, #1
 800605c:	2b00      	cmp	r3, #0
 800605e:	d07d      	beq.n	800615c <HAL_RCCEx_PeriphCLKConfig+0x118>
  {
    FlagStatus pwrclkchanged = RESET;
 8006060:	2300      	movs	r3, #0
 8006062:	75fb      	strb	r3, [r7, #23]
    assert_param(IS_RCC_RTCCLKSOURCE(PeriphClkInit->RTCClockSelection));

    /* As soon as function is called to change RTC clock source, activation of the
       power domain is done. */
    /* Requires to enable write access to Backup Domain of necessary */
    if (__HAL_RCC_PWR_IS_CLK_DISABLED())
 8006064:	4b4f      	ldr	r3, [pc, #316]	; (80061a4 <HAL_RCCEx_PeriphCLKConfig+0x160>)
 8006066:	69db      	ldr	r3, [r3, #28]
 8006068:	f003 5380 	and.w	r3, r3, #268435456	; 0x10000000
 800606c:	2b00      	cmp	r3, #0
 800606e:	d10d      	bne.n	800608c <HAL_RCCEx_PeriphCLKConfig+0x48>
    {
      __HAL_RCC_PWR_CLK_ENABLE();
 8006070:	4b4c      	ldr	r3, [pc, #304]	; (80061a4 <HAL_RCCEx_PeriphCLKConfig+0x160>)
 8006072:	69db      	ldr	r3, [r3, #28]
 8006074:	4a4b      	ldr	r2, [pc, #300]	; (80061a4 <HAL_RCCEx_PeriphCLKConfig+0x160>)
 8006076:	f043 5380 	orr.w	r3, r3, #268435456	; 0x10000000
 800607a:	61d3      	str	r3, [r2, #28]
 800607c:	4b49      	ldr	r3, [pc, #292]	; (80061a4 <HAL_RCCEx_PeriphCLKConfig+0x160>)
 800607e:	69db      	ldr	r3, [r3, #28]
 8006080:	f003 5380 	and.w	r3, r3, #268435456	; 0x10000000
 8006084:	60bb      	str	r3, [r7, #8]
 8006086:	68bb      	ldr	r3, [r7, #8]
      pwrclkchanged = SET;
 8006088:	2301      	movs	r3, #1
 800608a:	75fb      	strb	r3, [r7, #23]
    }

    if (HAL_IS_BIT_CLR(PWR->CR, PWR_CR_DBP))
 800608c:	4b46      	ldr	r3, [pc, #280]	; (80061a8 <HAL_RCCEx_PeriphCLKConfig+0x164>)
 800608e:	681b      	ldr	r3, [r3, #0]
 8006090:	f403 7380 	and.w	r3, r3, #256	; 0x100
 8006094:	2b00      	cmp	r3, #0
 8006096:	d118      	bne.n	80060ca <HAL_RCCEx_PeriphCLKConfig+0x86>
    {
      /* Enable write access to Backup domain */
      SET_BIT(PWR->CR, PWR_CR_DBP);
 8006098:	4b43      	ldr	r3, [pc, #268]	; (80061a8 <HAL_RCCEx_PeriphCLKConfig+0x164>)
 800609a:	681b      	ldr	r3, [r3, #0]
 800609c:	4a42      	ldr	r2, [pc, #264]	; (80061a8 <HAL_RCCEx_PeriphCLKConfig+0x164>)
 800609e:	f443 7380 	orr.w	r3, r3, #256	; 0x100
 80060a2:	6013      	str	r3, [r2, #0]

      /* Wait for Backup domain Write protection disable */
      tickstart = HAL_GetTick();
 80060a4:	f7fe fbc4 	bl	8004830 <HAL_GetTick>
 80060a8:	6138      	str	r0, [r7, #16]

      while (HAL_IS_BIT_CLR(PWR->CR, PWR_CR_DBP))
 80060aa:	e008      	b.n	80060be <HAL_RCCEx_PeriphCLKConfig+0x7a>
      {
        if ((HAL_GetTick() - tickstart) > RCC_DBP_TIMEOUT_VALUE)
 80060ac:	f7fe fbc0 	bl	8004830 <HAL_GetTick>
 80060b0:	4602      	mov	r2, r0
 80060b2:	693b      	ldr	r3, [r7, #16]
 80060b4:	1ad3      	subs	r3, r2, r3
 80060b6:	2b64      	cmp	r3, #100	; 0x64
 80060b8:	d901      	bls.n	80060be <HAL_RCCEx_PeriphCLKConfig+0x7a>
        {
          return HAL_TIMEOUT;
 80060ba:	2303      	movs	r3, #3
 80060bc:	e06d      	b.n	800619a <HAL_RCCEx_PeriphCLKConfig+0x156>
      while (HAL_IS_BIT_CLR(PWR->CR, PWR_CR_DBP))
 80060be:	4b3a      	ldr	r3, [pc, #232]	; (80061a8 <HAL_RCCEx_PeriphCLKConfig+0x164>)
 80060c0:	681b      	ldr	r3, [r3, #0]
 80060c2:	f403 7380 	and.w	r3, r3, #256	; 0x100
 80060c6:	2b00      	cmp	r3, #0
 80060c8:	d0f0      	beq.n	80060ac <HAL_RCCEx_PeriphCLKConfig+0x68>
        }
      }
    }

    /* Reset the Backup domain only if the RTC Clock source selection is modified from reset value */
    temp_reg = (RCC->BDCR & RCC_BDCR_RTCSEL);
 80060ca:	4b36      	ldr	r3, [pc, #216]	; (80061a4 <HAL_RCCEx_PeriphCLKConfig+0x160>)
 80060cc:	6a1b      	ldr	r3, [r3, #32]
 80060ce:	f403 7340 	and.w	r3, r3, #768	; 0x300
 80060d2:	60fb      	str	r3, [r7, #12]
    if ((temp_reg != 0x00000000U) && (temp_reg != (PeriphClkInit->RTCClockSelection & RCC_BDCR_RTCSEL)))
 80060d4:	68fb      	ldr	r3, [r7, #12]
 80060d6:	2b00      	cmp	r3, #0
 80060d8:	d02e      	beq.n	8006138 <HAL_RCCEx_PeriphCLKConfig+0xf4>
 80060da:	687b      	ldr	r3, [r7, #4]
 80060dc:	685b      	ldr	r3, [r3, #4]
 80060de:	f403 7340 	and.w	r3, r3, #768	; 0x300
 80060e2:	68fa      	ldr	r2, [r7, #12]
 80060e4:	429a      	cmp	r2, r3
 80060e6:	d027      	beq.n	8006138 <HAL_RCCEx_PeriphCLKConfig+0xf4>
    {
      /* Store the content of BDCR register before the reset of Backup Domain */
      temp_reg = (RCC->BDCR & ~(RCC_BDCR_RTCSEL));
 80060e8:	4b2e      	ldr	r3, [pc, #184]	; (80061a4 <HAL_RCCEx_PeriphCLKConfig+0x160>)
 80060ea:	6a1b      	ldr	r3, [r3, #32]
 80060ec:	f423 7340 	bic.w	r3, r3, #768	; 0x300
 80060f0:	60fb      	str	r3, [r7, #12]
      /* RTC Clock selection can be changed only if the Backup Domain is reset */
      __HAL_RCC_BACKUPRESET_FORCE();
 80060f2:	4b2e      	ldr	r3, [pc, #184]	; (80061ac <HAL_RCCEx_PeriphCLKConfig+0x168>)
 80060f4:	2201      	movs	r2, #1
 80060f6:	601a      	str	r2, [r3, #0]
      __HAL_RCC_BACKUPRESET_RELEASE();
 80060f8:	4b2c      	ldr	r3, [pc, #176]	; (80061ac <HAL_RCCEx_PeriphCLKConfig+0x168>)
 80060fa:	2200      	movs	r2, #0
 80060fc:	601a      	str	r2, [r3, #0]
      /* Restore the Content of BDCR register */
      RCC->BDCR = temp_reg;
 80060fe:	4a29      	ldr	r2, [pc, #164]	; (80061a4 <HAL_RCCEx_PeriphCLKConfig+0x160>)
 8006100:	68fb      	ldr	r3, [r7, #12]
 8006102:	6213      	str	r3, [r2, #32]

      /* Wait for LSERDY if LSE was enabled */
      if (HAL_IS_BIT_SET(temp_reg, RCC_BDCR_LSEON))
 8006104:	68fb      	ldr	r3, [r7, #12]
 8006106:	f003 0301 	and.w	r3, r3, #1
 800610a:	2b00      	cmp	r3, #0
 800610c:	d014      	beq.n	8006138 <HAL_RCCEx_PeriphCLKConfig+0xf4>
      {
        /* Get Start Tick */
        tickstart = HAL_GetTick();
 800610e:	f7fe fb8f 	bl	8004830 <HAL_GetTick>
 8006112:	6138      	str	r0, [r7, #16]

        /* Wait till LSE is ready */
        while (__HAL_RCC_GET_FLAG(RCC_FLAG_LSERDY) == RESET)
 8006114:	e00a      	b.n	800612c <HAL_RCCEx_PeriphCLKConfig+0xe8>
        {
          if ((HAL_GetTick() - tickstart) > RCC_LSE_TIMEOUT_VALUE)
 8006116:	f7fe fb8b 	bl	8004830 <HAL_GetTick>
 800611a:	4602      	mov	r2, r0
 800611c:	693b      	ldr	r3, [r7, #16]
 800611e:	1ad3      	subs	r3, r2, r3
 8006120:	f241 3288 	movw	r2, #5000	; 0x1388
 8006124:	4293      	cmp	r3, r2
 8006126:	d901      	bls.n	800612c <HAL_RCCEx_PeriphCLKConfig+0xe8>
          {
            return HAL_TIMEOUT;
 8006128:	2303      	movs	r3, #3
 800612a:	e036      	b.n	800619a <HAL_RCCEx_PeriphCLKConfig+0x156>
        while (__HAL_RCC_GET_FLAG(RCC_FLAG_LSERDY) == RESET)
 800612c:	4b1d      	ldr	r3, [pc, #116]	; (80061a4 <HAL_RCCEx_PeriphCLKConfig+0x160>)
 800612e:	6a1b      	ldr	r3, [r3, #32]
 8006130:	f003 0302 	and.w	r3, r3, #2
 8006134:	2b00      	cmp	r3, #0
 8006136:	d0ee      	beq.n	8006116 <HAL_RCCEx_PeriphCLKConfig+0xd2>
          }
        }
      }
    }
    __HAL_RCC_RTC_CONFIG(PeriphClkInit->RTCClockSelection);
 8006138:	4b1a      	ldr	r3, [pc, #104]	; (80061a4 <HAL_RCCEx_PeriphCLKConfig+0x160>)
 800613a:	6a1b      	ldr	r3, [r3, #32]
 800613c:	f423 7240 	bic.w	r2, r3, #768	; 0x300
 8006140:	687b      	ldr	r3, [r7, #4]
 8006142:	685b      	ldr	r3, [r3, #4]
 8006144:	4917      	ldr	r1, [pc, #92]	; (80061a4 <HAL_RCCEx_PeriphCLKConfig+0x160>)
 8006146:	4313      	orrs	r3, r2
 8006148:	620b      	str	r3, [r1, #32]

    /* Require to disable power clock if necessary */
    if (pwrclkchanged == SET)
 800614a:	7dfb      	ldrb	r3, [r7, #23]
 800614c:	2b01      	cmp	r3, #1
 800614e:	d105      	bne.n	800615c <HAL_RCCEx_PeriphCLKConfig+0x118>
    {
      __HAL_RCC_PWR_CLK_DISABLE();
 8006150:	4b14      	ldr	r3, [pc, #80]	; (80061a4 <HAL_RCCEx_PeriphCLKConfig+0x160>)
 8006152:	69db      	ldr	r3, [r3, #28]
 8006154:	4a13      	ldr	r2, [pc, #76]	; (80061a4 <HAL_RCCEx_PeriphCLKConfig+0x160>)
 8006156:	f023 5380 	bic.w	r3, r3, #268435456	; 0x10000000
 800615a:	61d3      	str	r3, [r2, #28]
    }
  }

  /*------------------------------ ADC clock Configuration ------------------*/
  if (((PeriphClkInit->PeriphClockSelection) & RCC_PERIPHCLK_ADC) == RCC_PERIPHCLK_ADC)
 800615c:	687b      	ldr	r3, [r7, #4]
 800615e:	681b      	ldr	r3, [r3, #0]
 8006160:	f003 0302 	and.w	r3, r3, #2
 8006164:	2b00      	cmp	r3, #0
 8006166:	d008      	beq.n	800617a <HAL_RCCEx_PeriphCLKConfig+0x136>
  {
    /* Check the parameters */
    assert_param(IS_RCC_ADCPLLCLK_DIV(PeriphClkInit->AdcClockSelection));

    /* Configure the ADC clock source */
    __HAL_RCC_ADC_CONFIG(PeriphClkInit->AdcClockSelection);
 8006168:	4b0e      	ldr	r3, [pc, #56]	; (80061a4 <HAL_RCCEx_PeriphCLKConfig+0x160>)
 800616a:	685b      	ldr	r3, [r3, #4]
 800616c:	f423 4240 	bic.w	r2, r3, #49152	; 0xc000
 8006170:	687b      	ldr	r3, [r7, #4]
 8006172:	689b      	ldr	r3, [r3, #8]
 8006174:	490b      	ldr	r1, [pc, #44]	; (80061a4 <HAL_RCCEx_PeriphCLKConfig+0x160>)
 8006176:	4313      	orrs	r3, r2
 8006178:	604b      	str	r3, [r1, #4]

#if defined(STM32F102x6) || defined(STM32F102xB) || defined(STM32F103x6)\
 || defined(STM32F103xB) || defined(STM32F103xE) || defined(STM32F103xG)\
 || defined(STM32F105xC) || defined(STM32F107xC)
  /*------------------------------ USB clock Configuration ------------------*/
  if (((PeriphClkInit->PeriphClockSelection) & RCC_PERIPHCLK_USB) == RCC_PERIPHCLK_USB)
 800617a:	687b      	ldr	r3, [r7, #4]
 800617c:	681b      	ldr	r3, [r3, #0]
 800617e:	f003 0310 	and.w	r3, r3, #16
 8006182:	2b00      	cmp	r3, #0
 8006184:	d008      	beq.n	8006198 <HAL_RCCEx_PeriphCLKConfig+0x154>
  {
    /* Check the parameters */
    assert_param(IS_RCC_USBPLLCLK_DIV(PeriphClkInit->UsbClockSelection));

    /* Configure the USB clock source */
    __HAL_RCC_USB_CONFIG(PeriphClkInit->UsbClockSelection);
 8006186:	4b07      	ldr	r3, [pc, #28]	; (80061a4 <HAL_RCCEx_PeriphCLKConfig+0x160>)
 8006188:	685b      	ldr	r3, [r3, #4]
 800618a:	f423 0280 	bic.w	r2, r3, #4194304	; 0x400000
 800618e:	687b      	ldr	r3, [r7, #4]
 8006190:	695b      	ldr	r3, [r3, #20]
 8006192:	4904      	ldr	r1, [pc, #16]	; (80061a4 <HAL_RCCEx_PeriphCLKConfig+0x160>)
 8006194:	4313      	orrs	r3, r2
 8006196:	604b      	str	r3, [r1, #4]
  }
#endif /* STM32F102x6 || STM32F102xB || STM32F103x6 || STM32F103xB || STM32F103xE || STM32F103xG || STM32F105xC || STM32F107xC */

  return HAL_OK;
 8006198:	2300      	movs	r3, #0
}
 800619a:	4618      	mov	r0, r3
 800619c:	3718      	adds	r7, #24
 800619e:	46bd      	mov	sp, r7
 80061a0:	bd80      	pop	{r7, pc}
 80061a2:	bf00      	nop
 80061a4:	40021000 	.word	0x40021000
 80061a8:	40007000 	.word	0x40007000
 80061ac:	42420440 	.word	0x42420440

080061b0 <HAL_RCCEx_GetPeriphCLKFreq>:
  *            @arg @ref RCC_PERIPHCLK_USB  USB peripheral clock
  @endif
  * @retval Frequency in Hz (0: means that no available frequency for the peripheral)
  */
uint32_t HAL_RCCEx_GetPeriphCLKFreq(uint32_t PeriphClk)
{
 80061b0:	b580      	push	{r7, lr}
 80061b2:	b088      	sub	sp, #32
 80061b4:	af00      	add	r7, sp, #0
 80061b6:	6078      	str	r0, [r7, #4]
#if defined(STM32F102x6) || defined(STM32F102xB) || defined(STM32F103x6) || \
    defined(STM32F103xB) || defined(STM32F103xE) || defined(STM32F103xG)
  static const uint8_t aPLLMULFactorTable[16U] = {2, 3, 4, 5, 6, 7, 8, 9, 10, 11, 12, 13, 14, 15, 16, 16};
  static const uint8_t aPredivFactorTable[2U] = {1, 2};

  uint32_t prediv1 = 0U, pllclk = 0U, pllmul = 0U;
 80061b8:	2300      	movs	r3, #0
 80061ba:	617b      	str	r3, [r7, #20]
 80061bc:	2300      	movs	r3, #0
 80061be:	61fb      	str	r3, [r7, #28]
 80061c0:	2300      	movs	r3, #0
 80061c2:	613b      	str	r3, [r7, #16]
#endif /* STM32F102x6 || STM32F102xB || STM32F103x6 || STM32F103xB || STM32F103xE || STM32F103xG */
  uint32_t temp_reg = 0U, frequency = 0U;
 80061c4:	2300      	movs	r3, #0
 80061c6:	60fb      	str	r3, [r7, #12]
 80061c8:	2300      	movs	r3, #0
 80061ca:	61bb      	str	r3, [r7, #24]

  /* Check the parameters */
  assert_param(IS_RCC_PERIPHCLOCK(PeriphClk));

  switch (PeriphClk)
 80061cc:	687b      	ldr	r3, [r7, #4]
 80061ce:	3b01      	subs	r3, #1
 80061d0:	2b0f      	cmp	r3, #15
 80061d2:	f200 80af 	bhi.w	8006334 <HAL_RCCEx_GetPeriphCLKFreq+0x184>
 80061d6:	a201      	add	r2, pc, #4	; (adr r2, 80061dc <HAL_RCCEx_GetPeriphCLKFreq+0x2c>)
 80061d8:	f852 f023 	ldr.w	pc, [r2, r3, lsl #2]
 80061dc:	080062b3 	.word	0x080062b3
 80061e0:	08006319 	.word	0x08006319
 80061e4:	08006335 	.word	0x08006335
 80061e8:	080062a3 	.word	0x080062a3
 80061ec:	08006335 	.word	0x08006335
 80061f0:	08006335 	.word	0x08006335
 80061f4:	08006335 	.word	0x08006335
 80061f8:	080062ab 	.word	0x080062ab
 80061fc:	08006335 	.word	0x08006335
 8006200:	08006335 	.word	0x08006335
 8006204:	08006335 	.word	0x08006335
 8006208:	08006335 	.word	0x08006335
 800620c:	08006335 	.word	0x08006335
 8006210:	08006335 	.word	0x08006335
 8006214:	08006335 	.word	0x08006335
 8006218:	0800621d 	.word	0x0800621d
 || defined(STM32F103xB) || defined(STM32F103xE) || defined(STM32F103xG)\
 || defined(STM32F105xC) || defined(STM32F107xC)
    case RCC_PERIPHCLK_USB:
    {
      /* Get RCC configuration ------------------------------------------------------*/
      temp_reg = RCC->CFGR;
 800621c:	4b4a      	ldr	r3, [pc, #296]	; (8006348 <HAL_RCCEx_GetPeriphCLKFreq+0x198>)
 800621e:	685b      	ldr	r3, [r3, #4]
 8006220:	60fb      	str	r3, [r7, #12]

      /* Check if PLL is enabled */
      if (HAL_IS_BIT_SET(RCC->CR, RCC_CR_PLLON))
 8006222:	4b49      	ldr	r3, [pc, #292]	; (8006348 <HAL_RCCEx_GetPeriphCLKFreq+0x198>)
 8006224:	681b      	ldr	r3, [r3, #0]
 8006226:	f003 7380 	and.w	r3, r3, #16777216	; 0x1000000
 800622a:	2b00      	cmp	r3, #0
 800622c:	f000 8084 	beq.w	8006338 <HAL_RCCEx_GetPeriphCLKFreq+0x188>
      {
        pllmul = aPLLMULFactorTable[(uint32_t)(temp_reg & RCC_CFGR_PLLMULL) >> RCC_CFGR_PLLMULL_Pos];
 8006230:	68fb      	ldr	r3, [r7, #12]
 8006232:	0c9b      	lsrs	r3, r3, #18
 8006234:	f003 030f 	and.w	r3, r3, #15
 8006238:	4a44      	ldr	r2, [pc, #272]	; (800634c <HAL_RCCEx_GetPeriphCLKFreq+0x19c>)
 800623a:	5cd3      	ldrb	r3, [r2, r3]
 800623c:	613b      	str	r3, [r7, #16]
        if ((temp_reg & RCC_CFGR_PLLSRC) != RCC_PLLSOURCE_HSI_DIV2)
 800623e:	68fb      	ldr	r3, [r7, #12]
 8006240:	f403 3380 	and.w	r3, r3, #65536	; 0x10000
 8006244:	2b00      	cmp	r3, #0
 8006246:	d015      	beq.n	8006274 <HAL_RCCEx_GetPeriphCLKFreq+0xc4>
        {
#if defined(STM32F105xC) || defined(STM32F107xC) || defined(STM32F100xB)\
 || defined(STM32F100xE)
          prediv1 = aPredivFactorTable[(uint32_t)(RCC->CFGR2 & RCC_CFGR2_PREDIV1) >> RCC_CFGR2_PREDIV1_Pos];
#else
          prediv1 = aPredivFactorTable[(uint32_t)(RCC->CFGR & RCC_CFGR_PLLXTPRE) >> RCC_CFGR_PLLXTPRE_Pos];
 8006248:	4b3f      	ldr	r3, [pc, #252]	; (8006348 <HAL_RCCEx_GetPeriphCLKFreq+0x198>)
 800624a:	685b      	ldr	r3, [r3, #4]
 800624c:	0c5b      	lsrs	r3, r3, #17
 800624e:	f003 0301 	and.w	r3, r3, #1
 8006252:	4a3f      	ldr	r2, [pc, #252]	; (8006350 <HAL_RCCEx_GetPeriphCLKFreq+0x1a0>)
 8006254:	5cd3      	ldrb	r3, [r2, r3]
 8006256:	617b      	str	r3, [r7, #20]
          if (pllmul == aPLLMULFactorTable[(uint32_t)(RCC_CFGR_PLLMULL6_5) >> RCC_CFGR_PLLMULL_Pos])
          {
            pllclk = pllclk / 2;
          }
#else
          if ((temp_reg & RCC_CFGR_PLLSRC) != RCC_PLLSOURCE_HSI_DIV2)
 8006258:	68fb      	ldr	r3, [r7, #12]
 800625a:	f403 3380 	and.w	r3, r3, #65536	; 0x10000
 800625e:	2b00      	cmp	r3, #0
 8006260:	d00d      	beq.n	800627e <HAL_RCCEx_GetPeriphCLKFreq+0xce>
          {
            /* HSE used as PLL clock source : PLLCLK = HSE/PREDIV1 * PLLMUL */
            pllclk = (uint32_t)((HSE_VALUE / prediv1) * pllmul);
 8006262:	4a3c      	ldr	r2, [pc, #240]	; (8006354 <HAL_RCCEx_GetPeriphCLKFreq+0x1a4>)
 8006264:	697b      	ldr	r3, [r7, #20]
 8006266:	fbb2 f2f3 	udiv	r2, r2, r3
 800626a:	693b      	ldr	r3, [r7, #16]
 800626c:	fb02 f303 	mul.w	r3, r2, r3
 8006270:	61fb      	str	r3, [r7, #28]
 8006272:	e004      	b.n	800627e <HAL_RCCEx_GetPeriphCLKFreq+0xce>
#endif /* STM32F105xC || STM32F107xC */
        }
        else
        {
          /* HSI used as PLL clock source : PLLCLK = HSI/2 * PLLMUL */
          pllclk = (uint32_t)((HSI_VALUE >> 1) * pllmul);
 8006274:	693b      	ldr	r3, [r7, #16]
 8006276:	4a38      	ldr	r2, [pc, #224]	; (8006358 <HAL_RCCEx_GetPeriphCLKFreq+0x1a8>)
 8006278:	fb02 f303 	mul.w	r3, r2, r3
 800627c:	61fb      	str	r3, [r7, #28]
          /* Prescaler of 3 selected for USB */
          frequency = (2 * pllclk) / 3;
        }
#else
        /* USBCLK = PLLCLK / USB prescaler */
        if (__HAL_RCC_GET_USB_SOURCE() == RCC_USBCLKSOURCE_PLL)
 800627e:	4b32      	ldr	r3, [pc, #200]	; (8006348 <HAL_RCCEx_GetPeriphCLKFreq+0x198>)
 8006280:	685b      	ldr	r3, [r3, #4]
 8006282:	f403 0380 	and.w	r3, r3, #4194304	; 0x400000
 8006286:	f5b3 0f80 	cmp.w	r3, #4194304	; 0x400000
 800628a:	d102      	bne.n	8006292 <HAL_RCCEx_GetPeriphCLKFreq+0xe2>
        {
          /* No prescaler selected for USB */
          frequency = pllclk;
 800628c:	69fb      	ldr	r3, [r7, #28]
 800628e:	61bb      	str	r3, [r7, #24]
          /* Prescaler of 1.5 selected for USB */
          frequency = (pllclk * 2) / 3;
        }
#endif
      }
      break;
 8006290:	e052      	b.n	8006338 <HAL_RCCEx_GetPeriphCLKFreq+0x188>
          frequency = (pllclk * 2) / 3;
 8006292:	69fb      	ldr	r3, [r7, #28]
 8006294:	005b      	lsls	r3, r3, #1
 8006296:	4a31      	ldr	r2, [pc, #196]	; (800635c <HAL_RCCEx_GetPeriphCLKFreq+0x1ac>)
 8006298:	fba2 2303 	umull	r2, r3, r2, r3
 800629c:	085b      	lsrs	r3, r3, #1
 800629e:	61bb      	str	r3, [r7, #24]
      break;
 80062a0:	e04a      	b.n	8006338 <HAL_RCCEx_GetPeriphCLKFreq+0x188>
#if defined(STM32F103xE) || defined(STM32F103xG) || defined(STM32F105xC) || defined(STM32F107xC)
    case RCC_PERIPHCLK_I2S2:
    {
#if defined(STM32F103xE) || defined(STM32F103xG)
      /* SYSCLK used as source clock for I2S2 */
      frequency = HAL_RCC_GetSysClockFreq();
 80062a2:	f7ff fe3f 	bl	8005f24 <HAL_RCC_GetSysClockFreq>
 80062a6:	61b8      	str	r0, [r7, #24]
          pll3mul = ((RCC->CFGR2 & RCC_CFGR2_PLL3MUL) >> RCC_CFGR2_PLL3MUL_Pos) + 2;
          frequency = (uint32_t)(2 * ((HSE_VALUE / prediv2) * pll3mul));
        }
      }
#endif /* STM32F103xE || STM32F103xG */
      break;
 80062a8:	e049      	b.n	800633e <HAL_RCCEx_GetPeriphCLKFreq+0x18e>
    }
    case RCC_PERIPHCLK_I2S3:
    {
#if defined(STM32F103xE) || defined(STM32F103xG)
      /* SYSCLK used as source clock for I2S3 */
      frequency = HAL_RCC_GetSysClockFreq();
 80062aa:	f7ff fe3b 	bl	8005f24 <HAL_RCC_GetSysClockFreq>
 80062ae:	61b8      	str	r0, [r7, #24]
          pll3mul = ((RCC->CFGR2 & RCC_CFGR2_PLL3MUL) >> RCC_CFGR2_PLL3MUL_Pos) + 2;
          frequency = (uint32_t)(2 * ((HSE_VALUE / prediv2) * pll3mul));
        }
      }
#endif /* STM32F103xE || STM32F103xG */
      break;
 80062b0:	e045      	b.n	800633e <HAL_RCCEx_GetPeriphCLKFreq+0x18e>
    }
#endif /* STM32F103xE || STM32F103xG || STM32F105xC || STM32F107xC */
    case RCC_PERIPHCLK_RTC:
    {
      /* Get RCC BDCR configuration ------------------------------------------------------*/
      temp_reg = RCC->BDCR;
 80062b2:	4b25      	ldr	r3, [pc, #148]	; (8006348 <HAL_RCCEx_GetPeriphCLKFreq+0x198>)
 80062b4:	6a1b      	ldr	r3, [r3, #32]
 80062b6:	60fb      	str	r3, [r7, #12]

      /* Check if LSE is ready if RTC clock selection is LSE */
      if (((temp_reg & RCC_BDCR_RTCSEL) == RCC_RTCCLKSOURCE_LSE) && (HAL_IS_BIT_SET(temp_reg, RCC_BDCR_LSERDY)))
 80062b8:	68fb      	ldr	r3, [r7, #12]
 80062ba:	f403 7340 	and.w	r3, r3, #768	; 0x300
 80062be:	f5b3 7f80 	cmp.w	r3, #256	; 0x100
 80062c2:	d108      	bne.n	80062d6 <HAL_RCCEx_GetPeriphCLKFreq+0x126>
 80062c4:	68fb      	ldr	r3, [r7, #12]
 80062c6:	f003 0302 	and.w	r3, r3, #2
 80062ca:	2b00      	cmp	r3, #0
 80062cc:	d003      	beq.n	80062d6 <HAL_RCCEx_GetPeriphCLKFreq+0x126>
      {
        frequency = LSE_VALUE;
 80062ce:	f44f 4300 	mov.w	r3, #32768	; 0x8000
 80062d2:	61bb      	str	r3, [r7, #24]
 80062d4:	e01f      	b.n	8006316 <HAL_RCCEx_GetPeriphCLKFreq+0x166>
      }
      /* Check if LSI is ready if RTC clock selection is LSI */
      else if (((temp_reg & RCC_BDCR_RTCSEL) == RCC_RTCCLKSOURCE_LSI) && (HAL_IS_BIT_SET(RCC->CSR, RCC_CSR_LSIRDY)))
 80062d6:	68fb      	ldr	r3, [r7, #12]
 80062d8:	f403 7340 	and.w	r3, r3, #768	; 0x300
 80062dc:	f5b3 7f00 	cmp.w	r3, #512	; 0x200
 80062e0:	d109      	bne.n	80062f6 <HAL_RCCEx_GetPeriphCLKFreq+0x146>
 80062e2:	4b19      	ldr	r3, [pc, #100]	; (8006348 <HAL_RCCEx_GetPeriphCLKFreq+0x198>)
 80062e4:	6a5b      	ldr	r3, [r3, #36]	; 0x24
 80062e6:	f003 0302 	and.w	r3, r3, #2
 80062ea:	2b00      	cmp	r3, #0
 80062ec:	d003      	beq.n	80062f6 <HAL_RCCEx_GetPeriphCLKFreq+0x146>
      {
        frequency = LSI_VALUE;
 80062ee:	f649 4340 	movw	r3, #40000	; 0x9c40
 80062f2:	61bb      	str	r3, [r7, #24]
 80062f4:	e00f      	b.n	8006316 <HAL_RCCEx_GetPeriphCLKFreq+0x166>
      }
      else if (((temp_reg & RCC_BDCR_RTCSEL) == RCC_RTCCLKSOURCE_HSE_DIV128) && (HAL_IS_BIT_SET(RCC->CR, RCC_CR_HSERDY)))
 80062f6:	68fb      	ldr	r3, [r7, #12]
 80062f8:	f403 7340 	and.w	r3, r3, #768	; 0x300
 80062fc:	f5b3 7f40 	cmp.w	r3, #768	; 0x300
 8006300:	d11c      	bne.n	800633c <HAL_RCCEx_GetPeriphCLKFreq+0x18c>
 8006302:	4b11      	ldr	r3, [pc, #68]	; (8006348 <HAL_RCCEx_GetPeriphCLKFreq+0x198>)
 8006304:	681b      	ldr	r3, [r3, #0]
 8006306:	f403 3300 	and.w	r3, r3, #131072	; 0x20000
 800630a:	2b00      	cmp	r3, #0
 800630c:	d016      	beq.n	800633c <HAL_RCCEx_GetPeriphCLKFreq+0x18c>
      {
        frequency = HSE_VALUE / 128U;
 800630e:	f24f 4324 	movw	r3, #62500	; 0xf424
 8006312:	61bb      	str	r3, [r7, #24]
      /* Clock not enabled for RTC*/
      else
      {
        /* nothing to do: frequency already initialized to 0U */
      }
      break;
 8006314:	e012      	b.n	800633c <HAL_RCCEx_GetPeriphCLKFreq+0x18c>
 8006316:	e011      	b.n	800633c <HAL_RCCEx_GetPeriphCLKFreq+0x18c>
    }
    case RCC_PERIPHCLK_ADC:
    {
      frequency = HAL_RCC_GetPCLK2Freq() / (((__HAL_RCC_GET_ADC_SOURCE() >> RCC_CFGR_ADCPRE_Pos) + 1) * 2);
 8006318:	f7ff fe62 	bl	8005fe0 <HAL_RCC_GetPCLK2Freq>
 800631c:	4602      	mov	r2, r0
 800631e:	4b0a      	ldr	r3, [pc, #40]	; (8006348 <HAL_RCCEx_GetPeriphCLKFreq+0x198>)
 8006320:	685b      	ldr	r3, [r3, #4]
 8006322:	0b9b      	lsrs	r3, r3, #14
 8006324:	f003 0303 	and.w	r3, r3, #3
 8006328:	3301      	adds	r3, #1
 800632a:	005b      	lsls	r3, r3, #1
 800632c:	fbb2 f3f3 	udiv	r3, r2, r3
 8006330:	61bb      	str	r3, [r7, #24]
      break;
 8006332:	e004      	b.n	800633e <HAL_RCCEx_GetPeriphCLKFreq+0x18e>
    }
    default:
    {
      break;
 8006334:	bf00      	nop
 8006336:	e002      	b.n	800633e <HAL_RCCEx_GetPeriphCLKFreq+0x18e>
      break;
 8006338:	bf00      	nop
 800633a:	e000      	b.n	800633e <HAL_RCCEx_GetPeriphCLKFreq+0x18e>
      break;
 800633c:	bf00      	nop
    }
  }
  return (frequency);
 800633e:	69bb      	ldr	r3, [r7, #24]
}
 8006340:	4618      	mov	r0, r3
 8006342:	3720      	adds	r7, #32
 8006344:	46bd      	mov	sp, r7
 8006346:	bd80      	pop	{r7, pc}
 8006348:	40021000 	.word	0x40021000
 800634c:	080083b0 	.word	0x080083b0
 8006350:	080083c0 	.word	0x080083c0
 8006354:	007a1200 	.word	0x007a1200
 8006358:	003d0900 	.word	0x003d0900
 800635c:	aaaaaaab 	.word	0xaaaaaaab

08006360 <HAL_SRAM_Init>:
  * @param  ExtTiming Pointer to SRAM extended mode timing structure
  * @retval HAL status
  */
HAL_StatusTypeDef HAL_SRAM_Init(SRAM_HandleTypeDef *hsram, FSMC_NORSRAM_TimingTypeDef *Timing,
                                FSMC_NORSRAM_TimingTypeDef *ExtTiming)
{
 8006360:	b580      	push	{r7, lr}
 8006362:	b084      	sub	sp, #16
 8006364:	af00      	add	r7, sp, #0
 8006366:	60f8      	str	r0, [r7, #12]
 8006368:	60b9      	str	r1, [r7, #8]
 800636a:	607a      	str	r2, [r7, #4]
  /* Check the SRAM handle parameter */
  if ((hsram == NULL) || (hsram->Init.BurstAccessMode == FSMC_BURST_ACCESS_MODE_ENABLE))
 800636c:	68fb      	ldr	r3, [r7, #12]
 800636e:	2b00      	cmp	r3, #0
 8006370:	d004      	beq.n	800637c <HAL_SRAM_Init+0x1c>
 8006372:	68fb      	ldr	r3, [r7, #12]
 8006374:	699b      	ldr	r3, [r3, #24]
 8006376:	f5b3 7f80 	cmp.w	r3, #256	; 0x100
 800637a:	d101      	bne.n	8006380 <HAL_SRAM_Init+0x20>
  {
    return HAL_ERROR;
 800637c:	2301      	movs	r3, #1
 800637e:	e038      	b.n	80063f2 <HAL_SRAM_Init+0x92>
  }

  if (hsram->State == HAL_SRAM_STATE_RESET)
 8006380:	68fb      	ldr	r3, [r7, #12]
 8006382:	f893 3041 	ldrb.w	r3, [r3, #65]	; 0x41
 8006386:	b2db      	uxtb	r3, r3
 8006388:	2b00      	cmp	r3, #0
 800638a:	d106      	bne.n	800639a <HAL_SRAM_Init+0x3a>
  {
    /* Allocate lock resource and initialize it */
    hsram->Lock = HAL_UNLOCKED;
 800638c:	68fb      	ldr	r3, [r7, #12]
 800638e:	2200      	movs	r2, #0
 8006390:	f883 2040 	strb.w	r2, [r3, #64]	; 0x40

    /* Init the low level hardware */
    hsram->MspInitCallback(hsram);
#else
    /* Initialize the low level hardware (MSP) */
    HAL_SRAM_MspInit(hsram);
 8006394:	68f8      	ldr	r0, [r7, #12]
 8006396:	f7fd fead 	bl	80040f4 <HAL_SRAM_MspInit>
#endif /* USE_HAL_SRAM_REGISTER_CALLBACKS */
  }

  /* Initialize SRAM control Interface */
  (void)FSMC_NORSRAM_Init(hsram->Instance, &(hsram->Init));
 800639a:	68fb      	ldr	r3, [r7, #12]
 800639c:	681a      	ldr	r2, [r3, #0]
 800639e:	68fb      	ldr	r3, [r7, #12]
 80063a0:	3308      	adds	r3, #8
 80063a2:	4619      	mov	r1, r3
 80063a4:	4610      	mov	r0, r2
 80063a6:	f000 fecf 	bl	8007148 <FSMC_NORSRAM_Init>

  /* Initialize SRAM timing Interface */
  (void)FSMC_NORSRAM_Timing_Init(hsram->Instance, Timing, hsram->Init.NSBank);
 80063aa:	68fb      	ldr	r3, [r7, #12]
 80063ac:	6818      	ldr	r0, [r3, #0]
 80063ae:	68fb      	ldr	r3, [r7, #12]
 80063b0:	689b      	ldr	r3, [r3, #8]
 80063b2:	461a      	mov	r2, r3
 80063b4:	68b9      	ldr	r1, [r7, #8]
 80063b6:	f000 ff31 	bl	800721c <FSMC_NORSRAM_Timing_Init>

  /* Initialize SRAM extended mode timing Interface */
  (void)FSMC_NORSRAM_Extended_Timing_Init(hsram->Extended, ExtTiming, hsram->Init.NSBank,
 80063ba:	68fb      	ldr	r3, [r7, #12]
 80063bc:	6858      	ldr	r0, [r3, #4]
 80063be:	68fb      	ldr	r3, [r7, #12]
 80063c0:	689a      	ldr	r2, [r3, #8]
 80063c2:	68fb      	ldr	r3, [r7, #12]
 80063c4:	6b1b      	ldr	r3, [r3, #48]	; 0x30
 80063c6:	6879      	ldr	r1, [r7, #4]
 80063c8:	f000 ff5c 	bl	8007284 <FSMC_NORSRAM_Extended_Timing_Init>
                                         hsram->Init.ExtendedMode);

  /* Enable the NORSRAM device */
  __FSMC_NORSRAM_ENABLE(hsram->Instance, hsram->Init.NSBank);
 80063cc:	68fb      	ldr	r3, [r7, #12]
 80063ce:	681b      	ldr	r3, [r3, #0]
 80063d0:	68fa      	ldr	r2, [r7, #12]
 80063d2:	6892      	ldr	r2, [r2, #8]
 80063d4:	f853 1022 	ldr.w	r1, [r3, r2, lsl #2]
 80063d8:	68fb      	ldr	r3, [r7, #12]
 80063da:	681b      	ldr	r3, [r3, #0]
 80063dc:	68fa      	ldr	r2, [r7, #12]
 80063de:	6892      	ldr	r2, [r2, #8]
 80063e0:	f041 0101 	orr.w	r1, r1, #1
 80063e4:	f843 1022 	str.w	r1, [r3, r2, lsl #2]

  /* Initialize the SRAM controller state */
  hsram->State = HAL_SRAM_STATE_READY;
 80063e8:	68fb      	ldr	r3, [r7, #12]
 80063ea:	2201      	movs	r2, #1
 80063ec:	f883 2041 	strb.w	r2, [r3, #65]	; 0x41

  return HAL_OK;
 80063f0:	2300      	movs	r3, #0
}
 80063f2:	4618      	mov	r0, r3
 80063f4:	3710      	adds	r7, #16
 80063f6:	46bd      	mov	sp, r7
 80063f8:	bd80      	pop	{r7, pc}

080063fa <HAL_TIM_Base_Init>:
  *         Ex: call @ref HAL_TIM_Base_DeInit() before HAL_TIM_Base_Init()
  * @param  htim TIM Base handle
  * @retval HAL status
  */
HAL_StatusTypeDef HAL_TIM_Base_Init(TIM_HandleTypeDef *htim)
{
 80063fa:	b580      	push	{r7, lr}
 80063fc:	b082      	sub	sp, #8
 80063fe:	af00      	add	r7, sp, #0
 8006400:	6078      	str	r0, [r7, #4]
  /* Check the TIM handle allocation */
  if (htim == NULL)
 8006402:	687b      	ldr	r3, [r7, #4]
 8006404:	2b00      	cmp	r3, #0
 8006406:	d101      	bne.n	800640c <HAL_TIM_Base_Init+0x12>
  {
    return HAL_ERROR;
 8006408:	2301      	movs	r3, #1
 800640a:	e041      	b.n	8006490 <HAL_TIM_Base_Init+0x96>
  assert_param(IS_TIM_COUNTER_MODE(htim->Init.CounterMode));
  assert_param(IS_TIM_CLOCKDIVISION_DIV(htim->Init.ClockDivision));
  assert_param(IS_TIM_PERIOD(htim->Init.Period));
  assert_param(IS_TIM_AUTORELOAD_PRELOAD(htim->Init.AutoReloadPreload));

  if (htim->State == HAL_TIM_STATE_RESET)
 800640c:	687b      	ldr	r3, [r7, #4]
 800640e:	f893 303d 	ldrb.w	r3, [r3, #61]	; 0x3d
 8006412:	b2db      	uxtb	r3, r3
 8006414:	2b00      	cmp	r3, #0
 8006416:	d106      	bne.n	8006426 <HAL_TIM_Base_Init+0x2c>
  {
    /* Allocate lock resource and initialize it */
    htim->Lock = HAL_UNLOCKED;
 8006418:	687b      	ldr	r3, [r7, #4]
 800641a:	2200      	movs	r2, #0
 800641c:	f883 203c 	strb.w	r2, [r3, #60]	; 0x3c
    }
    /* Init the low level hardware : GPIO, CLOCK, NVIC */
    htim->Base_MspInitCallback(htim);
#else
    /* Init the low level hardware : GPIO, CLOCK, NVIC */
    HAL_TIM_Base_MspInit(htim);
 8006420:	6878      	ldr	r0, [r7, #4]
 8006422:	f7fd fdd3 	bl	8003fcc <HAL_TIM_Base_MspInit>
#endif /* USE_HAL_TIM_REGISTER_CALLBACKS */
  }

  /* Set the TIM state */
  htim->State = HAL_TIM_STATE_BUSY;
 8006426:	687b      	ldr	r3, [r7, #4]
 8006428:	2202      	movs	r2, #2
 800642a:	f883 203d 	strb.w	r2, [r3, #61]	; 0x3d

  /* Set the Time Base configuration */
  TIM_Base_SetConfig(htim->Instance, &htim->Init);
 800642e:	687b      	ldr	r3, [r7, #4]
 8006430:	681a      	ldr	r2, [r3, #0]
 8006432:	687b      	ldr	r3, [r7, #4]
 8006434:	3304      	adds	r3, #4
 8006436:	4619      	mov	r1, r3
 8006438:	4610      	mov	r0, r2
 800643a:	f000 fb39 	bl	8006ab0 <TIM_Base_SetConfig>

  /* Initialize the DMA burst operation state */
  htim->DMABurstState = HAL_DMA_BURST_STATE_READY;
 800643e:	687b      	ldr	r3, [r7, #4]
 8006440:	2201      	movs	r2, #1
 8006442:	f883 2046 	strb.w	r2, [r3, #70]	; 0x46

  /* Initialize the TIM channels state */
  TIM_CHANNEL_STATE_SET_ALL(htim, HAL_TIM_CHANNEL_STATE_READY);
 8006446:	687b      	ldr	r3, [r7, #4]
 8006448:	2201      	movs	r2, #1
 800644a:	f883 203e 	strb.w	r2, [r3, #62]	; 0x3e
 800644e:	687b      	ldr	r3, [r7, #4]
 8006450:	2201      	movs	r2, #1
 8006452:	f883 203f 	strb.w	r2, [r3, #63]	; 0x3f
 8006456:	687b      	ldr	r3, [r7, #4]
 8006458:	2201      	movs	r2, #1
 800645a:	f883 2040 	strb.w	r2, [r3, #64]	; 0x40
 800645e:	687b      	ldr	r3, [r7, #4]
 8006460:	2201      	movs	r2, #1
 8006462:	f883 2041 	strb.w	r2, [r3, #65]	; 0x41
  TIM_CHANNEL_N_STATE_SET_ALL(htim, HAL_TIM_CHANNEL_STATE_READY);
 8006466:	687b      	ldr	r3, [r7, #4]
 8006468:	2201      	movs	r2, #1
 800646a:	f883 2042 	strb.w	r2, [r3, #66]	; 0x42
 800646e:	687b      	ldr	r3, [r7, #4]
 8006470:	2201      	movs	r2, #1
 8006472:	f883 2043 	strb.w	r2, [r3, #67]	; 0x43
 8006476:	687b      	ldr	r3, [r7, #4]
 8006478:	2201      	movs	r2, #1
 800647a:	f883 2044 	strb.w	r2, [r3, #68]	; 0x44
 800647e:	687b      	ldr	r3, [r7, #4]
 8006480:	2201      	movs	r2, #1
 8006482:	f883 2045 	strb.w	r2, [r3, #69]	; 0x45

  /* Initialize the TIM state*/
  htim->State = HAL_TIM_STATE_READY;
 8006486:	687b      	ldr	r3, [r7, #4]
 8006488:	2201      	movs	r2, #1
 800648a:	f883 203d 	strb.w	r2, [r3, #61]	; 0x3d

  return HAL_OK;
 800648e:	2300      	movs	r3, #0
}
 8006490:	4618      	mov	r0, r3
 8006492:	3708      	adds	r7, #8
 8006494:	46bd      	mov	sp, r7
 8006496:	bd80      	pop	{r7, pc}

08006498 <HAL_TIM_PWM_Init>:
  *         Ex: call @ref HAL_TIM_PWM_DeInit() before HAL_TIM_PWM_Init()
  * @param  htim TIM PWM handle
  * @retval HAL status
  */
HAL_StatusTypeDef HAL_TIM_PWM_Init(TIM_HandleTypeDef *htim)
{
 8006498:	b580      	push	{r7, lr}
 800649a:	b082      	sub	sp, #8
 800649c:	af00      	add	r7, sp, #0
 800649e:	6078      	str	r0, [r7, #4]
  /* Check the TIM handle allocation */
  if (htim == NULL)
 80064a0:	687b      	ldr	r3, [r7, #4]
 80064a2:	2b00      	cmp	r3, #0
 80064a4:	d101      	bne.n	80064aa <HAL_TIM_PWM_Init+0x12>
  {
    return HAL_ERROR;
 80064a6:	2301      	movs	r3, #1
 80064a8:	e041      	b.n	800652e <HAL_TIM_PWM_Init+0x96>
  assert_param(IS_TIM_COUNTER_MODE(htim->Init.CounterMode));
  assert_param(IS_TIM_CLOCKDIVISION_DIV(htim->Init.ClockDivision));
  assert_param(IS_TIM_PERIOD(htim->Init.Period));
  assert_param(IS_TIM_AUTORELOAD_PRELOAD(htim->Init.AutoReloadPreload));

  if (htim->State == HAL_TIM_STATE_RESET)
 80064aa:	687b      	ldr	r3, [r7, #4]
 80064ac:	f893 303d 	ldrb.w	r3, [r3, #61]	; 0x3d
 80064b0:	b2db      	uxtb	r3, r3
 80064b2:	2b00      	cmp	r3, #0
 80064b4:	d106      	bne.n	80064c4 <HAL_TIM_PWM_Init+0x2c>
  {
    /* Allocate lock resource and initialize it */
    htim->Lock = HAL_UNLOCKED;
 80064b6:	687b      	ldr	r3, [r7, #4]
 80064b8:	2200      	movs	r2, #0
 80064ba:	f883 203c 	strb.w	r2, [r3, #60]	; 0x3c
    }
    /* Init the low level hardware : GPIO, CLOCK, NVIC */
    htim->PWM_MspInitCallback(htim);
#else
    /* Init the low level hardware : GPIO, CLOCK, NVIC and DMA */
    HAL_TIM_PWM_MspInit(htim);
 80064be:	6878      	ldr	r0, [r7, #4]
 80064c0:	f000 f839 	bl	8006536 <HAL_TIM_PWM_MspInit>
#endif /* USE_HAL_TIM_REGISTER_CALLBACKS */
  }

  /* Set the TIM state */
  htim->State = HAL_TIM_STATE_BUSY;
 80064c4:	687b      	ldr	r3, [r7, #4]
 80064c6:	2202      	movs	r2, #2
 80064c8:	f883 203d 	strb.w	r2, [r3, #61]	; 0x3d

  /* Init the base time for the PWM */
  TIM_Base_SetConfig(htim->Instance, &htim->Init);
 80064cc:	687b      	ldr	r3, [r7, #4]
 80064ce:	681a      	ldr	r2, [r3, #0]
 80064d0:	687b      	ldr	r3, [r7, #4]
 80064d2:	3304      	adds	r3, #4
 80064d4:	4619      	mov	r1, r3
 80064d6:	4610      	mov	r0, r2
 80064d8:	f000 faea 	bl	8006ab0 <TIM_Base_SetConfig>

  /* Initialize the DMA burst operation state */
  htim->DMABurstState = HAL_DMA_BURST_STATE_READY;
 80064dc:	687b      	ldr	r3, [r7, #4]
 80064de:	2201      	movs	r2, #1
 80064e0:	f883 2046 	strb.w	r2, [r3, #70]	; 0x46

  /* Initialize the TIM channels state */
  TIM_CHANNEL_STATE_SET_ALL(htim, HAL_TIM_CHANNEL_STATE_READY);
 80064e4:	687b      	ldr	r3, [r7, #4]
 80064e6:	2201      	movs	r2, #1
 80064e8:	f883 203e 	strb.w	r2, [r3, #62]	; 0x3e
 80064ec:	687b      	ldr	r3, [r7, #4]
 80064ee:	2201      	movs	r2, #1
 80064f0:	f883 203f 	strb.w	r2, [r3, #63]	; 0x3f
 80064f4:	687b      	ldr	r3, [r7, #4]
 80064f6:	2201      	movs	r2, #1
 80064f8:	f883 2040 	strb.w	r2, [r3, #64]	; 0x40
 80064fc:	687b      	ldr	r3, [r7, #4]
 80064fe:	2201      	movs	r2, #1
 8006500:	f883 2041 	strb.w	r2, [r3, #65]	; 0x41
  TIM_CHANNEL_N_STATE_SET_ALL(htim, HAL_TIM_CHANNEL_STATE_READY);
 8006504:	687b      	ldr	r3, [r7, #4]
 8006506:	2201      	movs	r2, #1
 8006508:	f883 2042 	strb.w	r2, [r3, #66]	; 0x42
 800650c:	687b      	ldr	r3, [r7, #4]
 800650e:	2201      	movs	r2, #1
 8006510:	f883 2043 	strb.w	r2, [r3, #67]	; 0x43
 8006514:	687b      	ldr	r3, [r7, #4]
 8006516:	2201      	movs	r2, #1
 8006518:	f883 2044 	strb.w	r2, [r3, #68]	; 0x44
 800651c:	687b      	ldr	r3, [r7, #4]
 800651e:	2201      	movs	r2, #1
 8006520:	f883 2045 	strb.w	r2, [r3, #69]	; 0x45

  /* Initialize the TIM state*/
  htim->State = HAL_TIM_STATE_READY;
 8006524:	687b      	ldr	r3, [r7, #4]
 8006526:	2201      	movs	r2, #1
 8006528:	f883 203d 	strb.w	r2, [r3, #61]	; 0x3d

  return HAL_OK;
 800652c:	2300      	movs	r3, #0
}
 800652e:	4618      	mov	r0, r3
 8006530:	3708      	adds	r7, #8
 8006532:	46bd      	mov	sp, r7
 8006534:	bd80      	pop	{r7, pc}

08006536 <HAL_TIM_PWM_MspInit>:
  * @brief  Initializes the TIM PWM MSP.
  * @param  htim TIM PWM handle
  * @retval None
  */
__weak void HAL_TIM_PWM_MspInit(TIM_HandleTypeDef *htim)
{
 8006536:	b480      	push	{r7}
 8006538:	b083      	sub	sp, #12
 800653a:	af00      	add	r7, sp, #0
 800653c:	6078      	str	r0, [r7, #4]
  UNUSED(htim);

  /* NOTE : This function should not be modified, when the callback is needed,
            the HAL_TIM_PWM_MspInit could be implemented in the user file
   */
}
 800653e:	bf00      	nop
 8006540:	370c      	adds	r7, #12
 8006542:	46bd      	mov	sp, r7
 8006544:	bc80      	pop	{r7}
 8006546:	4770      	bx	lr

08006548 <HAL_TIM_PWM_Start>:
  *            @arg TIM_CHANNEL_3: TIM Channel 3 selected
  *            @arg TIM_CHANNEL_4: TIM Channel 4 selected
  * @retval HAL status
  */
HAL_StatusTypeDef HAL_TIM_PWM_Start(TIM_HandleTypeDef *htim, uint32_t Channel)
{
 8006548:	b580      	push	{r7, lr}
 800654a:	b084      	sub	sp, #16
 800654c:	af00      	add	r7, sp, #0
 800654e:	6078      	str	r0, [r7, #4]
 8006550:	6039      	str	r1, [r7, #0]

  /* Check the parameters */
  assert_param(IS_TIM_CCX_INSTANCE(htim->Instance, Channel));

  /* Check the TIM channel state */
  if (TIM_CHANNEL_STATE_GET(htim, Channel) != HAL_TIM_CHANNEL_STATE_READY)
 8006552:	683b      	ldr	r3, [r7, #0]
 8006554:	2b00      	cmp	r3, #0
 8006556:	d109      	bne.n	800656c <HAL_TIM_PWM_Start+0x24>
 8006558:	687b      	ldr	r3, [r7, #4]
 800655a:	f893 303e 	ldrb.w	r3, [r3, #62]	; 0x3e
 800655e:	b2db      	uxtb	r3, r3
 8006560:	2b01      	cmp	r3, #1
 8006562:	bf14      	ite	ne
 8006564:	2301      	movne	r3, #1
 8006566:	2300      	moveq	r3, #0
 8006568:	b2db      	uxtb	r3, r3
 800656a:	e022      	b.n	80065b2 <HAL_TIM_PWM_Start+0x6a>
 800656c:	683b      	ldr	r3, [r7, #0]
 800656e:	2b04      	cmp	r3, #4
 8006570:	d109      	bne.n	8006586 <HAL_TIM_PWM_Start+0x3e>
 8006572:	687b      	ldr	r3, [r7, #4]
 8006574:	f893 303f 	ldrb.w	r3, [r3, #63]	; 0x3f
 8006578:	b2db      	uxtb	r3, r3
 800657a:	2b01      	cmp	r3, #1
 800657c:	bf14      	ite	ne
 800657e:	2301      	movne	r3, #1
 8006580:	2300      	moveq	r3, #0
 8006582:	b2db      	uxtb	r3, r3
 8006584:	e015      	b.n	80065b2 <HAL_TIM_PWM_Start+0x6a>
 8006586:	683b      	ldr	r3, [r7, #0]
 8006588:	2b08      	cmp	r3, #8
 800658a:	d109      	bne.n	80065a0 <HAL_TIM_PWM_Start+0x58>
 800658c:	687b      	ldr	r3, [r7, #4]
 800658e:	f893 3040 	ldrb.w	r3, [r3, #64]	; 0x40
 8006592:	b2db      	uxtb	r3, r3
 8006594:	2b01      	cmp	r3, #1
 8006596:	bf14      	ite	ne
 8006598:	2301      	movne	r3, #1
 800659a:	2300      	moveq	r3, #0
 800659c:	b2db      	uxtb	r3, r3
 800659e:	e008      	b.n	80065b2 <HAL_TIM_PWM_Start+0x6a>
 80065a0:	687b      	ldr	r3, [r7, #4]
 80065a2:	f893 3041 	ldrb.w	r3, [r3, #65]	; 0x41
 80065a6:	b2db      	uxtb	r3, r3
 80065a8:	2b01      	cmp	r3, #1
 80065aa:	bf14      	ite	ne
 80065ac:	2301      	movne	r3, #1
 80065ae:	2300      	moveq	r3, #0
 80065b0:	b2db      	uxtb	r3, r3
 80065b2:	2b00      	cmp	r3, #0
 80065b4:	d001      	beq.n	80065ba <HAL_TIM_PWM_Start+0x72>
  {
    return HAL_ERROR;
 80065b6:	2301      	movs	r3, #1
 80065b8:	e072      	b.n	80066a0 <HAL_TIM_PWM_Start+0x158>
  }

  /* Set the TIM channel state */
  TIM_CHANNEL_STATE_SET(htim, Channel, HAL_TIM_CHANNEL_STATE_BUSY);
 80065ba:	683b      	ldr	r3, [r7, #0]
 80065bc:	2b00      	cmp	r3, #0
 80065be:	d104      	bne.n	80065ca <HAL_TIM_PWM_Start+0x82>
 80065c0:	687b      	ldr	r3, [r7, #4]
 80065c2:	2202      	movs	r2, #2
 80065c4:	f883 203e 	strb.w	r2, [r3, #62]	; 0x3e
 80065c8:	e013      	b.n	80065f2 <HAL_TIM_PWM_Start+0xaa>
 80065ca:	683b      	ldr	r3, [r7, #0]
 80065cc:	2b04      	cmp	r3, #4
 80065ce:	d104      	bne.n	80065da <HAL_TIM_PWM_Start+0x92>
 80065d0:	687b      	ldr	r3, [r7, #4]
 80065d2:	2202      	movs	r2, #2
 80065d4:	f883 203f 	strb.w	r2, [r3, #63]	; 0x3f
 80065d8:	e00b      	b.n	80065f2 <HAL_TIM_PWM_Start+0xaa>
 80065da:	683b      	ldr	r3, [r7, #0]
 80065dc:	2b08      	cmp	r3, #8
 80065de:	d104      	bne.n	80065ea <HAL_TIM_PWM_Start+0xa2>
 80065e0:	687b      	ldr	r3, [r7, #4]
 80065e2:	2202      	movs	r2, #2
 80065e4:	f883 2040 	strb.w	r2, [r3, #64]	; 0x40
 80065e8:	e003      	b.n	80065f2 <HAL_TIM_PWM_Start+0xaa>
 80065ea:	687b      	ldr	r3, [r7, #4]
 80065ec:	2202      	movs	r2, #2
 80065ee:	f883 2041 	strb.w	r2, [r3, #65]	; 0x41

  /* Enable the Capture compare channel */
  TIM_CCxChannelCmd(htim->Instance, Channel, TIM_CCx_ENABLE);
 80065f2:	687b      	ldr	r3, [r7, #4]
 80065f4:	681b      	ldr	r3, [r3, #0]
 80065f6:	2201      	movs	r2, #1
 80065f8:	6839      	ldr	r1, [r7, #0]
 80065fa:	4618      	mov	r0, r3
 80065fc:	f000 fd14 	bl	8007028 <TIM_CCxChannelCmd>

  if (IS_TIM_BREAK_INSTANCE(htim->Instance) != RESET)
 8006600:	687b      	ldr	r3, [r7, #4]
 8006602:	681b      	ldr	r3, [r3, #0]
 8006604:	4a28      	ldr	r2, [pc, #160]	; (80066a8 <HAL_TIM_PWM_Start+0x160>)
 8006606:	4293      	cmp	r3, r2
 8006608:	d004      	beq.n	8006614 <HAL_TIM_PWM_Start+0xcc>
 800660a:	687b      	ldr	r3, [r7, #4]
 800660c:	681b      	ldr	r3, [r3, #0]
 800660e:	4a27      	ldr	r2, [pc, #156]	; (80066ac <HAL_TIM_PWM_Start+0x164>)
 8006610:	4293      	cmp	r3, r2
 8006612:	d101      	bne.n	8006618 <HAL_TIM_PWM_Start+0xd0>
 8006614:	2301      	movs	r3, #1
 8006616:	e000      	b.n	800661a <HAL_TIM_PWM_Start+0xd2>
 8006618:	2300      	movs	r3, #0
 800661a:	2b00      	cmp	r3, #0
 800661c:	d007      	beq.n	800662e <HAL_TIM_PWM_Start+0xe6>
  {
    /* Enable the main output */
    __HAL_TIM_MOE_ENABLE(htim);
 800661e:	687b      	ldr	r3, [r7, #4]
 8006620:	681b      	ldr	r3, [r3, #0]
 8006622:	6c5a      	ldr	r2, [r3, #68]	; 0x44
 8006624:	687b      	ldr	r3, [r7, #4]
 8006626:	681b      	ldr	r3, [r3, #0]
 8006628:	f442 4200 	orr.w	r2, r2, #32768	; 0x8000
 800662c:	645a      	str	r2, [r3, #68]	; 0x44
  }

  /* Enable the Peripheral, except in trigger mode where enable is automatically done with trigger */
  if (IS_TIM_SLAVE_INSTANCE(htim->Instance))
 800662e:	687b      	ldr	r3, [r7, #4]
 8006630:	681b      	ldr	r3, [r3, #0]
 8006632:	4a1d      	ldr	r2, [pc, #116]	; (80066a8 <HAL_TIM_PWM_Start+0x160>)
 8006634:	4293      	cmp	r3, r2
 8006636:	d018      	beq.n	800666a <HAL_TIM_PWM_Start+0x122>
 8006638:	687b      	ldr	r3, [r7, #4]
 800663a:	681b      	ldr	r3, [r3, #0]
 800663c:	4a1b      	ldr	r2, [pc, #108]	; (80066ac <HAL_TIM_PWM_Start+0x164>)
 800663e:	4293      	cmp	r3, r2
 8006640:	d013      	beq.n	800666a <HAL_TIM_PWM_Start+0x122>
 8006642:	687b      	ldr	r3, [r7, #4]
 8006644:	681b      	ldr	r3, [r3, #0]
 8006646:	f1b3 4f80 	cmp.w	r3, #1073741824	; 0x40000000
 800664a:	d00e      	beq.n	800666a <HAL_TIM_PWM_Start+0x122>
 800664c:	687b      	ldr	r3, [r7, #4]
 800664e:	681b      	ldr	r3, [r3, #0]
 8006650:	4a17      	ldr	r2, [pc, #92]	; (80066b0 <HAL_TIM_PWM_Start+0x168>)
 8006652:	4293      	cmp	r3, r2
 8006654:	d009      	beq.n	800666a <HAL_TIM_PWM_Start+0x122>
 8006656:	687b      	ldr	r3, [r7, #4]
 8006658:	681b      	ldr	r3, [r3, #0]
 800665a:	4a16      	ldr	r2, [pc, #88]	; (80066b4 <HAL_TIM_PWM_Start+0x16c>)
 800665c:	4293      	cmp	r3, r2
 800665e:	d004      	beq.n	800666a <HAL_TIM_PWM_Start+0x122>
 8006660:	687b      	ldr	r3, [r7, #4]
 8006662:	681b      	ldr	r3, [r3, #0]
 8006664:	4a14      	ldr	r2, [pc, #80]	; (80066b8 <HAL_TIM_PWM_Start+0x170>)
 8006666:	4293      	cmp	r3, r2
 8006668:	d111      	bne.n	800668e <HAL_TIM_PWM_Start+0x146>
  {
    tmpsmcr = htim->Instance->SMCR & TIM_SMCR_SMS;
 800666a:	687b      	ldr	r3, [r7, #4]
 800666c:	681b      	ldr	r3, [r3, #0]
 800666e:	689b      	ldr	r3, [r3, #8]
 8006670:	f003 0307 	and.w	r3, r3, #7
 8006674:	60fb      	str	r3, [r7, #12]
    if (!IS_TIM_SLAVEMODE_TRIGGER_ENABLED(tmpsmcr))
 8006676:	68fb      	ldr	r3, [r7, #12]
 8006678:	2b06      	cmp	r3, #6
 800667a:	d010      	beq.n	800669e <HAL_TIM_PWM_Start+0x156>
    {
      __HAL_TIM_ENABLE(htim);
 800667c:	687b      	ldr	r3, [r7, #4]
 800667e:	681b      	ldr	r3, [r3, #0]
 8006680:	681a      	ldr	r2, [r3, #0]
 8006682:	687b      	ldr	r3, [r7, #4]
 8006684:	681b      	ldr	r3, [r3, #0]
 8006686:	f042 0201 	orr.w	r2, r2, #1
 800668a:	601a      	str	r2, [r3, #0]
    if (!IS_TIM_SLAVEMODE_TRIGGER_ENABLED(tmpsmcr))
 800668c:	e007      	b.n	800669e <HAL_TIM_PWM_Start+0x156>
    }
  }
  else
  {
    __HAL_TIM_ENABLE(htim);
 800668e:	687b      	ldr	r3, [r7, #4]
 8006690:	681b      	ldr	r3, [r3, #0]
 8006692:	681a      	ldr	r2, [r3, #0]
 8006694:	687b      	ldr	r3, [r7, #4]
 8006696:	681b      	ldr	r3, [r3, #0]
 8006698:	f042 0201 	orr.w	r2, r2, #1
 800669c:	601a      	str	r2, [r3, #0]
  }

  /* Return function status */
  return HAL_OK;
 800669e:	2300      	movs	r3, #0
}
 80066a0:	4618      	mov	r0, r3
 80066a2:	3710      	adds	r7, #16
 80066a4:	46bd      	mov	sp, r7
 80066a6:	bd80      	pop	{r7, pc}
 80066a8:	40012c00 	.word	0x40012c00
 80066ac:	40013400 	.word	0x40013400
 80066b0:	40000400 	.word	0x40000400
 80066b4:	40000800 	.word	0x40000800
 80066b8:	40000c00 	.word	0x40000c00

080066bc <HAL_TIM_PWM_Stop>:
  *            @arg TIM_CHANNEL_3: TIM Channel 3 selected
  *            @arg TIM_CHANNEL_4: TIM Channel 4 selected
  * @retval HAL status
  */
HAL_StatusTypeDef HAL_TIM_PWM_Stop(TIM_HandleTypeDef *htim, uint32_t Channel)
{
 80066bc:	b580      	push	{r7, lr}
 80066be:	b082      	sub	sp, #8
 80066c0:	af00      	add	r7, sp, #0
 80066c2:	6078      	str	r0, [r7, #4]
 80066c4:	6039      	str	r1, [r7, #0]
  /* Check the parameters */
  assert_param(IS_TIM_CCX_INSTANCE(htim->Instance, Channel));

  /* Disable the Capture compare channel */
  TIM_CCxChannelCmd(htim->Instance, Channel, TIM_CCx_DISABLE);
 80066c6:	687b      	ldr	r3, [r7, #4]
 80066c8:	681b      	ldr	r3, [r3, #0]
 80066ca:	2200      	movs	r2, #0
 80066cc:	6839      	ldr	r1, [r7, #0]
 80066ce:	4618      	mov	r0, r3
 80066d0:	f000 fcaa 	bl	8007028 <TIM_CCxChannelCmd>

  if (IS_TIM_BREAK_INSTANCE(htim->Instance) != RESET)
 80066d4:	687b      	ldr	r3, [r7, #4]
 80066d6:	681b      	ldr	r3, [r3, #0]
 80066d8:	4a2e      	ldr	r2, [pc, #184]	; (8006794 <HAL_TIM_PWM_Stop+0xd8>)
 80066da:	4293      	cmp	r3, r2
 80066dc:	d004      	beq.n	80066e8 <HAL_TIM_PWM_Stop+0x2c>
 80066de:	687b      	ldr	r3, [r7, #4]
 80066e0:	681b      	ldr	r3, [r3, #0]
 80066e2:	4a2d      	ldr	r2, [pc, #180]	; (8006798 <HAL_TIM_PWM_Stop+0xdc>)
 80066e4:	4293      	cmp	r3, r2
 80066e6:	d101      	bne.n	80066ec <HAL_TIM_PWM_Stop+0x30>
 80066e8:	2301      	movs	r3, #1
 80066ea:	e000      	b.n	80066ee <HAL_TIM_PWM_Stop+0x32>
 80066ec:	2300      	movs	r3, #0
 80066ee:	2b00      	cmp	r3, #0
 80066f0:	d017      	beq.n	8006722 <HAL_TIM_PWM_Stop+0x66>
  {
    /* Disable the Main Output */
    __HAL_TIM_MOE_DISABLE(htim);
 80066f2:	687b      	ldr	r3, [r7, #4]
 80066f4:	681b      	ldr	r3, [r3, #0]
 80066f6:	6a1a      	ldr	r2, [r3, #32]
 80066f8:	f241 1311 	movw	r3, #4369	; 0x1111
 80066fc:	4013      	ands	r3, r2
 80066fe:	2b00      	cmp	r3, #0
 8006700:	d10f      	bne.n	8006722 <HAL_TIM_PWM_Stop+0x66>
 8006702:	687b      	ldr	r3, [r7, #4]
 8006704:	681b      	ldr	r3, [r3, #0]
 8006706:	6a1a      	ldr	r2, [r3, #32]
 8006708:	f240 4344 	movw	r3, #1092	; 0x444
 800670c:	4013      	ands	r3, r2
 800670e:	2b00      	cmp	r3, #0
 8006710:	d107      	bne.n	8006722 <HAL_TIM_PWM_Stop+0x66>
 8006712:	687b      	ldr	r3, [r7, #4]
 8006714:	681b      	ldr	r3, [r3, #0]
 8006716:	6c5a      	ldr	r2, [r3, #68]	; 0x44
 8006718:	687b      	ldr	r3, [r7, #4]
 800671a:	681b      	ldr	r3, [r3, #0]
 800671c:	f422 4200 	bic.w	r2, r2, #32768	; 0x8000
 8006720:	645a      	str	r2, [r3, #68]	; 0x44
  }

  /* Disable the Peripheral */
  __HAL_TIM_DISABLE(htim);
 8006722:	687b      	ldr	r3, [r7, #4]
 8006724:	681b      	ldr	r3, [r3, #0]
 8006726:	6a1a      	ldr	r2, [r3, #32]
 8006728:	f241 1311 	movw	r3, #4369	; 0x1111
 800672c:	4013      	ands	r3, r2
 800672e:	2b00      	cmp	r3, #0
 8006730:	d10f      	bne.n	8006752 <HAL_TIM_PWM_Stop+0x96>
 8006732:	687b      	ldr	r3, [r7, #4]
 8006734:	681b      	ldr	r3, [r3, #0]
 8006736:	6a1a      	ldr	r2, [r3, #32]
 8006738:	f240 4344 	movw	r3, #1092	; 0x444
 800673c:	4013      	ands	r3, r2
 800673e:	2b00      	cmp	r3, #0
 8006740:	d107      	bne.n	8006752 <HAL_TIM_PWM_Stop+0x96>
 8006742:	687b      	ldr	r3, [r7, #4]
 8006744:	681b      	ldr	r3, [r3, #0]
 8006746:	681a      	ldr	r2, [r3, #0]
 8006748:	687b      	ldr	r3, [r7, #4]
 800674a:	681b      	ldr	r3, [r3, #0]
 800674c:	f022 0201 	bic.w	r2, r2, #1
 8006750:	601a      	str	r2, [r3, #0]

  /* Set the TIM channel state */
  TIM_CHANNEL_STATE_SET(htim, Channel, HAL_TIM_CHANNEL_STATE_READY);
 8006752:	683b      	ldr	r3, [r7, #0]
 8006754:	2b00      	cmp	r3, #0
 8006756:	d104      	bne.n	8006762 <HAL_TIM_PWM_Stop+0xa6>
 8006758:	687b      	ldr	r3, [r7, #4]
 800675a:	2201      	movs	r2, #1
 800675c:	f883 203e 	strb.w	r2, [r3, #62]	; 0x3e
 8006760:	e013      	b.n	800678a <HAL_TIM_PWM_Stop+0xce>
 8006762:	683b      	ldr	r3, [r7, #0]
 8006764:	2b04      	cmp	r3, #4
 8006766:	d104      	bne.n	8006772 <HAL_TIM_PWM_Stop+0xb6>
 8006768:	687b      	ldr	r3, [r7, #4]
 800676a:	2201      	movs	r2, #1
 800676c:	f883 203f 	strb.w	r2, [r3, #63]	; 0x3f
 8006770:	e00b      	b.n	800678a <HAL_TIM_PWM_Stop+0xce>
 8006772:	683b      	ldr	r3, [r7, #0]
 8006774:	2b08      	cmp	r3, #8
 8006776:	d104      	bne.n	8006782 <HAL_TIM_PWM_Stop+0xc6>
 8006778:	687b      	ldr	r3, [r7, #4]
 800677a:	2201      	movs	r2, #1
 800677c:	f883 2040 	strb.w	r2, [r3, #64]	; 0x40
 8006780:	e003      	b.n	800678a <HAL_TIM_PWM_Stop+0xce>
 8006782:	687b      	ldr	r3, [r7, #4]
 8006784:	2201      	movs	r2, #1
 8006786:	f883 2041 	strb.w	r2, [r3, #65]	; 0x41

  /* Return function status */
  return HAL_OK;
 800678a:	2300      	movs	r3, #0
}
 800678c:	4618      	mov	r0, r3
 800678e:	3708      	adds	r7, #8
 8006790:	46bd      	mov	sp, r7
 8006792:	bd80      	pop	{r7, pc}
 8006794:	40012c00 	.word	0x40012c00
 8006798:	40013400 	.word	0x40013400

0800679c <HAL_TIM_PWM_ConfigChannel>:
  * @retval HAL status
  */
HAL_StatusTypeDef HAL_TIM_PWM_ConfigChannel(TIM_HandleTypeDef *htim,
                                            const TIM_OC_InitTypeDef *sConfig,
                                            uint32_t Channel)
{
 800679c:	b580      	push	{r7, lr}
 800679e:	b086      	sub	sp, #24
 80067a0:	af00      	add	r7, sp, #0
 80067a2:	60f8      	str	r0, [r7, #12]
 80067a4:	60b9      	str	r1, [r7, #8]
 80067a6:	607a      	str	r2, [r7, #4]
  HAL_StatusTypeDef status = HAL_OK;
 80067a8:	2300      	movs	r3, #0
 80067aa:	75fb      	strb	r3, [r7, #23]
  assert_param(IS_TIM_PWM_MODE(sConfig->OCMode));
  assert_param(IS_TIM_OC_POLARITY(sConfig->OCPolarity));
  assert_param(IS_TIM_FAST_STATE(sConfig->OCFastMode));

  /* Process Locked */
  __HAL_LOCK(htim);
 80067ac:	68fb      	ldr	r3, [r7, #12]
 80067ae:	f893 303c 	ldrb.w	r3, [r3, #60]	; 0x3c
 80067b2:	2b01      	cmp	r3, #1
 80067b4:	d101      	bne.n	80067ba <HAL_TIM_PWM_ConfigChannel+0x1e>
 80067b6:	2302      	movs	r3, #2
 80067b8:	e0ae      	b.n	8006918 <HAL_TIM_PWM_ConfigChannel+0x17c>
 80067ba:	68fb      	ldr	r3, [r7, #12]
 80067bc:	2201      	movs	r2, #1
 80067be:	f883 203c 	strb.w	r2, [r3, #60]	; 0x3c

  switch (Channel)
 80067c2:	687b      	ldr	r3, [r7, #4]
 80067c4:	2b0c      	cmp	r3, #12
 80067c6:	f200 809f 	bhi.w	8006908 <HAL_TIM_PWM_ConfigChannel+0x16c>
 80067ca:	a201      	add	r2, pc, #4	; (adr r2, 80067d0 <HAL_TIM_PWM_ConfigChannel+0x34>)
 80067cc:	f852 f023 	ldr.w	pc, [r2, r3, lsl #2]
 80067d0:	08006805 	.word	0x08006805
 80067d4:	08006909 	.word	0x08006909
 80067d8:	08006909 	.word	0x08006909
 80067dc:	08006909 	.word	0x08006909
 80067e0:	08006845 	.word	0x08006845
 80067e4:	08006909 	.word	0x08006909
 80067e8:	08006909 	.word	0x08006909
 80067ec:	08006909 	.word	0x08006909
 80067f0:	08006887 	.word	0x08006887
 80067f4:	08006909 	.word	0x08006909
 80067f8:	08006909 	.word	0x08006909
 80067fc:	08006909 	.word	0x08006909
 8006800:	080068c7 	.word	0x080068c7
    {
      /* Check the parameters */
      assert_param(IS_TIM_CC1_INSTANCE(htim->Instance));

      /* Configure the Channel 1 in PWM mode */
      TIM_OC1_SetConfig(htim->Instance, sConfig);
 8006804:	68fb      	ldr	r3, [r7, #12]
 8006806:	681b      	ldr	r3, [r3, #0]
 8006808:	68b9      	ldr	r1, [r7, #8]
 800680a:	4618      	mov	r0, r3
 800680c:	f000 f9ca 	bl	8006ba4 <TIM_OC1_SetConfig>

      /* Set the Preload enable bit for channel1 */
      htim->Instance->CCMR1 |= TIM_CCMR1_OC1PE;
 8006810:	68fb      	ldr	r3, [r7, #12]
 8006812:	681b      	ldr	r3, [r3, #0]
 8006814:	699a      	ldr	r2, [r3, #24]
 8006816:	68fb      	ldr	r3, [r7, #12]
 8006818:	681b      	ldr	r3, [r3, #0]
 800681a:	f042 0208 	orr.w	r2, r2, #8
 800681e:	619a      	str	r2, [r3, #24]

      /* Configure the Output Fast mode */
      htim->Instance->CCMR1 &= ~TIM_CCMR1_OC1FE;
 8006820:	68fb      	ldr	r3, [r7, #12]
 8006822:	681b      	ldr	r3, [r3, #0]
 8006824:	699a      	ldr	r2, [r3, #24]
 8006826:	68fb      	ldr	r3, [r7, #12]
 8006828:	681b      	ldr	r3, [r3, #0]
 800682a:	f022 0204 	bic.w	r2, r2, #4
 800682e:	619a      	str	r2, [r3, #24]
      htim->Instance->CCMR1 |= sConfig->OCFastMode;
 8006830:	68fb      	ldr	r3, [r7, #12]
 8006832:	681b      	ldr	r3, [r3, #0]
 8006834:	6999      	ldr	r1, [r3, #24]
 8006836:	68bb      	ldr	r3, [r7, #8]
 8006838:	691a      	ldr	r2, [r3, #16]
 800683a:	68fb      	ldr	r3, [r7, #12]
 800683c:	681b      	ldr	r3, [r3, #0]
 800683e:	430a      	orrs	r2, r1
 8006840:	619a      	str	r2, [r3, #24]
      break;
 8006842:	e064      	b.n	800690e <HAL_TIM_PWM_ConfigChannel+0x172>
    {
      /* Check the parameters */
      assert_param(IS_TIM_CC2_INSTANCE(htim->Instance));

      /* Configure the Channel 2 in PWM mode */
      TIM_OC2_SetConfig(htim->Instance, sConfig);
 8006844:	68fb      	ldr	r3, [r7, #12]
 8006846:	681b      	ldr	r3, [r3, #0]
 8006848:	68b9      	ldr	r1, [r7, #8]
 800684a:	4618      	mov	r0, r3
 800684c:	f000 fa1a 	bl	8006c84 <TIM_OC2_SetConfig>

      /* Set the Preload enable bit for channel2 */
      htim->Instance->CCMR1 |= TIM_CCMR1_OC2PE;
 8006850:	68fb      	ldr	r3, [r7, #12]
 8006852:	681b      	ldr	r3, [r3, #0]
 8006854:	699a      	ldr	r2, [r3, #24]
 8006856:	68fb      	ldr	r3, [r7, #12]
 8006858:	681b      	ldr	r3, [r3, #0]
 800685a:	f442 6200 	orr.w	r2, r2, #2048	; 0x800
 800685e:	619a      	str	r2, [r3, #24]

      /* Configure the Output Fast mode */
      htim->Instance->CCMR1 &= ~TIM_CCMR1_OC2FE;
 8006860:	68fb      	ldr	r3, [r7, #12]
 8006862:	681b      	ldr	r3, [r3, #0]
 8006864:	699a      	ldr	r2, [r3, #24]
 8006866:	68fb      	ldr	r3, [r7, #12]
 8006868:	681b      	ldr	r3, [r3, #0]
 800686a:	f422 6280 	bic.w	r2, r2, #1024	; 0x400
 800686e:	619a      	str	r2, [r3, #24]
      htim->Instance->CCMR1 |= sConfig->OCFastMode << 8U;
 8006870:	68fb      	ldr	r3, [r7, #12]
 8006872:	681b      	ldr	r3, [r3, #0]
 8006874:	6999      	ldr	r1, [r3, #24]
 8006876:	68bb      	ldr	r3, [r7, #8]
 8006878:	691b      	ldr	r3, [r3, #16]
 800687a:	021a      	lsls	r2, r3, #8
 800687c:	68fb      	ldr	r3, [r7, #12]
 800687e:	681b      	ldr	r3, [r3, #0]
 8006880:	430a      	orrs	r2, r1
 8006882:	619a      	str	r2, [r3, #24]
      break;
 8006884:	e043      	b.n	800690e <HAL_TIM_PWM_ConfigChannel+0x172>
    {
      /* Check the parameters */
      assert_param(IS_TIM_CC3_INSTANCE(htim->Instance));

      /* Configure the Channel 3 in PWM mode */
      TIM_OC3_SetConfig(htim->Instance, sConfig);
 8006886:	68fb      	ldr	r3, [r7, #12]
 8006888:	681b      	ldr	r3, [r3, #0]
 800688a:	68b9      	ldr	r1, [r7, #8]
 800688c:	4618      	mov	r0, r3
 800688e:	f000 fa6d 	bl	8006d6c <TIM_OC3_SetConfig>

      /* Set the Preload enable bit for channel3 */
      htim->Instance->CCMR2 |= TIM_CCMR2_OC3PE;
 8006892:	68fb      	ldr	r3, [r7, #12]
 8006894:	681b      	ldr	r3, [r3, #0]
 8006896:	69da      	ldr	r2, [r3, #28]
 8006898:	68fb      	ldr	r3, [r7, #12]
 800689a:	681b      	ldr	r3, [r3, #0]
 800689c:	f042 0208 	orr.w	r2, r2, #8
 80068a0:	61da      	str	r2, [r3, #28]

      /* Configure the Output Fast mode */
      htim->Instance->CCMR2 &= ~TIM_CCMR2_OC3FE;
 80068a2:	68fb      	ldr	r3, [r7, #12]
 80068a4:	681b      	ldr	r3, [r3, #0]
 80068a6:	69da      	ldr	r2, [r3, #28]
 80068a8:	68fb      	ldr	r3, [r7, #12]
 80068aa:	681b      	ldr	r3, [r3, #0]
 80068ac:	f022 0204 	bic.w	r2, r2, #4
 80068b0:	61da      	str	r2, [r3, #28]
      htim->Instance->CCMR2 |= sConfig->OCFastMode;
 80068b2:	68fb      	ldr	r3, [r7, #12]
 80068b4:	681b      	ldr	r3, [r3, #0]
 80068b6:	69d9      	ldr	r1, [r3, #28]
 80068b8:	68bb      	ldr	r3, [r7, #8]
 80068ba:	691a      	ldr	r2, [r3, #16]
 80068bc:	68fb      	ldr	r3, [r7, #12]
 80068be:	681b      	ldr	r3, [r3, #0]
 80068c0:	430a      	orrs	r2, r1
 80068c2:	61da      	str	r2, [r3, #28]
      break;
 80068c4:	e023      	b.n	800690e <HAL_TIM_PWM_ConfigChannel+0x172>
    {
      /* Check the parameters */
      assert_param(IS_TIM_CC4_INSTANCE(htim->Instance));

      /* Configure the Channel 4 in PWM mode */
      TIM_OC4_SetConfig(htim->Instance, sConfig);
 80068c6:	68fb      	ldr	r3, [r7, #12]
 80068c8:	681b      	ldr	r3, [r3, #0]
 80068ca:	68b9      	ldr	r1, [r7, #8]
 80068cc:	4618      	mov	r0, r3
 80068ce:	f000 fac1 	bl	8006e54 <TIM_OC4_SetConfig>

      /* Set the Preload enable bit for channel4 */
      htim->Instance->CCMR2 |= TIM_CCMR2_OC4PE;
 80068d2:	68fb      	ldr	r3, [r7, #12]
 80068d4:	681b      	ldr	r3, [r3, #0]
 80068d6:	69da      	ldr	r2, [r3, #28]
 80068d8:	68fb      	ldr	r3, [r7, #12]
 80068da:	681b      	ldr	r3, [r3, #0]
 80068dc:	f442 6200 	orr.w	r2, r2, #2048	; 0x800
 80068e0:	61da      	str	r2, [r3, #28]

      /* Configure the Output Fast mode */
      htim->Instance->CCMR2 &= ~TIM_CCMR2_OC4FE;
 80068e2:	68fb      	ldr	r3, [r7, #12]
 80068e4:	681b      	ldr	r3, [r3, #0]
 80068e6:	69da      	ldr	r2, [r3, #28]
 80068e8:	68fb      	ldr	r3, [r7, #12]
 80068ea:	681b      	ldr	r3, [r3, #0]
 80068ec:	f422 6280 	bic.w	r2, r2, #1024	; 0x400
 80068f0:	61da      	str	r2, [r3, #28]
      htim->Instance->CCMR2 |= sConfig->OCFastMode << 8U;
 80068f2:	68fb      	ldr	r3, [r7, #12]
 80068f4:	681b      	ldr	r3, [r3, #0]
 80068f6:	69d9      	ldr	r1, [r3, #28]
 80068f8:	68bb      	ldr	r3, [r7, #8]
 80068fa:	691b      	ldr	r3, [r3, #16]
 80068fc:	021a      	lsls	r2, r3, #8
 80068fe:	68fb      	ldr	r3, [r7, #12]
 8006900:	681b      	ldr	r3, [r3, #0]
 8006902:	430a      	orrs	r2, r1
 8006904:	61da      	str	r2, [r3, #28]
      break;
 8006906:	e002      	b.n	800690e <HAL_TIM_PWM_ConfigChannel+0x172>
    }

    default:
      status = HAL_ERROR;
 8006908:	2301      	movs	r3, #1
 800690a:	75fb      	strb	r3, [r7, #23]
      break;
 800690c:	bf00      	nop
  }

  __HAL_UNLOCK(htim);
 800690e:	68fb      	ldr	r3, [r7, #12]
 8006910:	2200      	movs	r2, #0
 8006912:	f883 203c 	strb.w	r2, [r3, #60]	; 0x3c

  return status;
 8006916:	7dfb      	ldrb	r3, [r7, #23]
}
 8006918:	4618      	mov	r0, r3
 800691a:	3718      	adds	r7, #24
 800691c:	46bd      	mov	sp, r7
 800691e:	bd80      	pop	{r7, pc}

08006920 <HAL_TIM_ConfigClockSource>:
  * @param  sClockSourceConfig pointer to a TIM_ClockConfigTypeDef structure that
  *         contains the clock source information for the TIM peripheral.
  * @retval HAL status
  */
HAL_StatusTypeDef HAL_TIM_ConfigClockSource(TIM_HandleTypeDef *htim, const TIM_ClockConfigTypeDef *sClockSourceConfig)
{
 8006920:	b580      	push	{r7, lr}
 8006922:	b084      	sub	sp, #16
 8006924:	af00      	add	r7, sp, #0
 8006926:	6078      	str	r0, [r7, #4]
 8006928:	6039      	str	r1, [r7, #0]
  HAL_StatusTypeDef status = HAL_OK;
 800692a:	2300      	movs	r3, #0
 800692c:	73fb      	strb	r3, [r7, #15]
  uint32_t tmpsmcr;

  /* Process Locked */
  __HAL_LOCK(htim);
 800692e:	687b      	ldr	r3, [r7, #4]
 8006930:	f893 303c 	ldrb.w	r3, [r3, #60]	; 0x3c
 8006934:	2b01      	cmp	r3, #1
 8006936:	d101      	bne.n	800693c <HAL_TIM_ConfigClockSource+0x1c>
 8006938:	2302      	movs	r3, #2
 800693a:	e0b4      	b.n	8006aa6 <HAL_TIM_ConfigClockSource+0x186>
 800693c:	687b      	ldr	r3, [r7, #4]
 800693e:	2201      	movs	r2, #1
 8006940:	f883 203c 	strb.w	r2, [r3, #60]	; 0x3c

  htim->State = HAL_TIM_STATE_BUSY;
 8006944:	687b      	ldr	r3, [r7, #4]
 8006946:	2202      	movs	r2, #2
 8006948:	f883 203d 	strb.w	r2, [r3, #61]	; 0x3d

  /* Check the parameters */
  assert_param(IS_TIM_CLOCKSOURCE(sClockSourceConfig->ClockSource));

  /* Reset the SMS, TS, ECE, ETPS and ETRF bits */
  tmpsmcr = htim->Instance->SMCR;
 800694c:	687b      	ldr	r3, [r7, #4]
 800694e:	681b      	ldr	r3, [r3, #0]
 8006950:	689b      	ldr	r3, [r3, #8]
 8006952:	60bb      	str	r3, [r7, #8]
  tmpsmcr &= ~(TIM_SMCR_SMS | TIM_SMCR_TS);
 8006954:	68bb      	ldr	r3, [r7, #8]
 8006956:	f023 0377 	bic.w	r3, r3, #119	; 0x77
 800695a:	60bb      	str	r3, [r7, #8]
  tmpsmcr &= ~(TIM_SMCR_ETF | TIM_SMCR_ETPS | TIM_SMCR_ECE | TIM_SMCR_ETP);
 800695c:	68bb      	ldr	r3, [r7, #8]
 800695e:	f423 437f 	bic.w	r3, r3, #65280	; 0xff00
 8006962:	60bb      	str	r3, [r7, #8]
  htim->Instance->SMCR = tmpsmcr;
 8006964:	687b      	ldr	r3, [r7, #4]
 8006966:	681b      	ldr	r3, [r3, #0]
 8006968:	68ba      	ldr	r2, [r7, #8]
 800696a:	609a      	str	r2, [r3, #8]

  switch (sClockSourceConfig->ClockSource)
 800696c:	683b      	ldr	r3, [r7, #0]
 800696e:	681b      	ldr	r3, [r3, #0]
 8006970:	f5b3 5f00 	cmp.w	r3, #8192	; 0x2000
 8006974:	d03e      	beq.n	80069f4 <HAL_TIM_ConfigClockSource+0xd4>
 8006976:	f5b3 5f00 	cmp.w	r3, #8192	; 0x2000
 800697a:	f200 8087 	bhi.w	8006a8c <HAL_TIM_ConfigClockSource+0x16c>
 800697e:	f5b3 5f80 	cmp.w	r3, #4096	; 0x1000
 8006982:	f000 8086 	beq.w	8006a92 <HAL_TIM_ConfigClockSource+0x172>
 8006986:	f5b3 5f80 	cmp.w	r3, #4096	; 0x1000
 800698a:	d87f      	bhi.n	8006a8c <HAL_TIM_ConfigClockSource+0x16c>
 800698c:	2b70      	cmp	r3, #112	; 0x70
 800698e:	d01a      	beq.n	80069c6 <HAL_TIM_ConfigClockSource+0xa6>
 8006990:	2b70      	cmp	r3, #112	; 0x70
 8006992:	d87b      	bhi.n	8006a8c <HAL_TIM_ConfigClockSource+0x16c>
 8006994:	2b60      	cmp	r3, #96	; 0x60
 8006996:	d050      	beq.n	8006a3a <HAL_TIM_ConfigClockSource+0x11a>
 8006998:	2b60      	cmp	r3, #96	; 0x60
 800699a:	d877      	bhi.n	8006a8c <HAL_TIM_ConfigClockSource+0x16c>
 800699c:	2b50      	cmp	r3, #80	; 0x50
 800699e:	d03c      	beq.n	8006a1a <HAL_TIM_ConfigClockSource+0xfa>
 80069a0:	2b50      	cmp	r3, #80	; 0x50
 80069a2:	d873      	bhi.n	8006a8c <HAL_TIM_ConfigClockSource+0x16c>
 80069a4:	2b40      	cmp	r3, #64	; 0x40
 80069a6:	d058      	beq.n	8006a5a <HAL_TIM_ConfigClockSource+0x13a>
 80069a8:	2b40      	cmp	r3, #64	; 0x40
 80069aa:	d86f      	bhi.n	8006a8c <HAL_TIM_ConfigClockSource+0x16c>
 80069ac:	2b30      	cmp	r3, #48	; 0x30
 80069ae:	d064      	beq.n	8006a7a <HAL_TIM_ConfigClockSource+0x15a>
 80069b0:	2b30      	cmp	r3, #48	; 0x30
 80069b2:	d86b      	bhi.n	8006a8c <HAL_TIM_ConfigClockSource+0x16c>
 80069b4:	2b20      	cmp	r3, #32
 80069b6:	d060      	beq.n	8006a7a <HAL_TIM_ConfigClockSource+0x15a>
 80069b8:	2b20      	cmp	r3, #32
 80069ba:	d867      	bhi.n	8006a8c <HAL_TIM_ConfigClockSource+0x16c>
 80069bc:	2b00      	cmp	r3, #0
 80069be:	d05c      	beq.n	8006a7a <HAL_TIM_ConfigClockSource+0x15a>
 80069c0:	2b10      	cmp	r3, #16
 80069c2:	d05a      	beq.n	8006a7a <HAL_TIM_ConfigClockSource+0x15a>
 80069c4:	e062      	b.n	8006a8c <HAL_TIM_ConfigClockSource+0x16c>
      assert_param(IS_TIM_CLOCKPRESCALER(sClockSourceConfig->ClockPrescaler));
      assert_param(IS_TIM_CLOCKPOLARITY(sClockSourceConfig->ClockPolarity));
      assert_param(IS_TIM_CLOCKFILTER(sClockSourceConfig->ClockFilter));

      /* Configure the ETR Clock source */
      TIM_ETR_SetConfig(htim->Instance,
 80069c6:	687b      	ldr	r3, [r7, #4]
 80069c8:	6818      	ldr	r0, [r3, #0]
 80069ca:	683b      	ldr	r3, [r7, #0]
 80069cc:	6899      	ldr	r1, [r3, #8]
 80069ce:	683b      	ldr	r3, [r7, #0]
 80069d0:	685a      	ldr	r2, [r3, #4]
 80069d2:	683b      	ldr	r3, [r7, #0]
 80069d4:	68db      	ldr	r3, [r3, #12]
 80069d6:	f000 fb08 	bl	8006fea <TIM_ETR_SetConfig>
                        sClockSourceConfig->ClockPrescaler,
                        sClockSourceConfig->ClockPolarity,
                        sClockSourceConfig->ClockFilter);

      /* Select the External clock mode1 and the ETRF trigger */
      tmpsmcr = htim->Instance->SMCR;
 80069da:	687b      	ldr	r3, [r7, #4]
 80069dc:	681b      	ldr	r3, [r3, #0]
 80069de:	689b      	ldr	r3, [r3, #8]
 80069e0:	60bb      	str	r3, [r7, #8]
      tmpsmcr |= (TIM_SLAVEMODE_EXTERNAL1 | TIM_CLOCKSOURCE_ETRMODE1);
 80069e2:	68bb      	ldr	r3, [r7, #8]
 80069e4:	f043 0377 	orr.w	r3, r3, #119	; 0x77
 80069e8:	60bb      	str	r3, [r7, #8]
      /* Write to TIMx SMCR */
      htim->Instance->SMCR = tmpsmcr;
 80069ea:	687b      	ldr	r3, [r7, #4]
 80069ec:	681b      	ldr	r3, [r3, #0]
 80069ee:	68ba      	ldr	r2, [r7, #8]
 80069f0:	609a      	str	r2, [r3, #8]
      break;
 80069f2:	e04f      	b.n	8006a94 <HAL_TIM_ConfigClockSource+0x174>
      assert_param(IS_TIM_CLOCKPRESCALER(sClockSourceConfig->ClockPrescaler));
      assert_param(IS_TIM_CLOCKPOLARITY(sClockSourceConfig->ClockPolarity));
      assert_param(IS_TIM_CLOCKFILTER(sClockSourceConfig->ClockFilter));

      /* Configure the ETR Clock source */
      TIM_ETR_SetConfig(htim->Instance,
 80069f4:	687b      	ldr	r3, [r7, #4]
 80069f6:	6818      	ldr	r0, [r3, #0]
 80069f8:	683b      	ldr	r3, [r7, #0]
 80069fa:	6899      	ldr	r1, [r3, #8]
 80069fc:	683b      	ldr	r3, [r7, #0]
 80069fe:	685a      	ldr	r2, [r3, #4]
 8006a00:	683b      	ldr	r3, [r7, #0]
 8006a02:	68db      	ldr	r3, [r3, #12]
 8006a04:	f000 faf1 	bl	8006fea <TIM_ETR_SetConfig>
                        sClockSourceConfig->ClockPrescaler,
                        sClockSourceConfig->ClockPolarity,
                        sClockSourceConfig->ClockFilter);
      /* Enable the External clock mode2 */
      htim->Instance->SMCR |= TIM_SMCR_ECE;
 8006a08:	687b      	ldr	r3, [r7, #4]
 8006a0a:	681b      	ldr	r3, [r3, #0]
 8006a0c:	689a      	ldr	r2, [r3, #8]
 8006a0e:	687b      	ldr	r3, [r7, #4]
 8006a10:	681b      	ldr	r3, [r3, #0]
 8006a12:	f442 4280 	orr.w	r2, r2, #16384	; 0x4000
 8006a16:	609a      	str	r2, [r3, #8]
      break;
 8006a18:	e03c      	b.n	8006a94 <HAL_TIM_ConfigClockSource+0x174>

      /* Check TI1 input conditioning related parameters */
      assert_param(IS_TIM_CLOCKPOLARITY(sClockSourceConfig->ClockPolarity));
      assert_param(IS_TIM_CLOCKFILTER(sClockSourceConfig->ClockFilter));

      TIM_TI1_ConfigInputStage(htim->Instance,
 8006a1a:	687b      	ldr	r3, [r7, #4]
 8006a1c:	6818      	ldr	r0, [r3, #0]
 8006a1e:	683b      	ldr	r3, [r7, #0]
 8006a20:	6859      	ldr	r1, [r3, #4]
 8006a22:	683b      	ldr	r3, [r7, #0]
 8006a24:	68db      	ldr	r3, [r3, #12]
 8006a26:	461a      	mov	r2, r3
 8006a28:	f000 fa68 	bl	8006efc <TIM_TI1_ConfigInputStage>
                               sClockSourceConfig->ClockPolarity,
                               sClockSourceConfig->ClockFilter);
      TIM_ITRx_SetConfig(htim->Instance, TIM_CLOCKSOURCE_TI1);
 8006a2c:	687b      	ldr	r3, [r7, #4]
 8006a2e:	681b      	ldr	r3, [r3, #0]
 8006a30:	2150      	movs	r1, #80	; 0x50
 8006a32:	4618      	mov	r0, r3
 8006a34:	f000 fabf 	bl	8006fb6 <TIM_ITRx_SetConfig>
      break;
 8006a38:	e02c      	b.n	8006a94 <HAL_TIM_ConfigClockSource+0x174>

      /* Check TI2 input conditioning related parameters */
      assert_param(IS_TIM_CLOCKPOLARITY(sClockSourceConfig->ClockPolarity));
      assert_param(IS_TIM_CLOCKFILTER(sClockSourceConfig->ClockFilter));

      TIM_TI2_ConfigInputStage(htim->Instance,
 8006a3a:	687b      	ldr	r3, [r7, #4]
 8006a3c:	6818      	ldr	r0, [r3, #0]
 8006a3e:	683b      	ldr	r3, [r7, #0]
 8006a40:	6859      	ldr	r1, [r3, #4]
 8006a42:	683b      	ldr	r3, [r7, #0]
 8006a44:	68db      	ldr	r3, [r3, #12]
 8006a46:	461a      	mov	r2, r3
 8006a48:	f000 fa86 	bl	8006f58 <TIM_TI2_ConfigInputStage>
                               sClockSourceConfig->ClockPolarity,
                               sClockSourceConfig->ClockFilter);
      TIM_ITRx_SetConfig(htim->Instance, TIM_CLOCKSOURCE_TI2);
 8006a4c:	687b      	ldr	r3, [r7, #4]
 8006a4e:	681b      	ldr	r3, [r3, #0]
 8006a50:	2160      	movs	r1, #96	; 0x60
 8006a52:	4618      	mov	r0, r3
 8006a54:	f000 faaf 	bl	8006fb6 <TIM_ITRx_SetConfig>
      break;
 8006a58:	e01c      	b.n	8006a94 <HAL_TIM_ConfigClockSource+0x174>

      /* Check TI1 input conditioning related parameters */
      assert_param(IS_TIM_CLOCKPOLARITY(sClockSourceConfig->ClockPolarity));
      assert_param(IS_TIM_CLOCKFILTER(sClockSourceConfig->ClockFilter));

      TIM_TI1_ConfigInputStage(htim->Instance,
 8006a5a:	687b      	ldr	r3, [r7, #4]
 8006a5c:	6818      	ldr	r0, [r3, #0]
 8006a5e:	683b      	ldr	r3, [r7, #0]
 8006a60:	6859      	ldr	r1, [r3, #4]
 8006a62:	683b      	ldr	r3, [r7, #0]
 8006a64:	68db      	ldr	r3, [r3, #12]
 8006a66:	461a      	mov	r2, r3
 8006a68:	f000 fa48 	bl	8006efc <TIM_TI1_ConfigInputStage>
                               sClockSourceConfig->ClockPolarity,
                               sClockSourceConfig->ClockFilter);
      TIM_ITRx_SetConfig(htim->Instance, TIM_CLOCKSOURCE_TI1ED);
 8006a6c:	687b      	ldr	r3, [r7, #4]
 8006a6e:	681b      	ldr	r3, [r3, #0]
 8006a70:	2140      	movs	r1, #64	; 0x40
 8006a72:	4618      	mov	r0, r3
 8006a74:	f000 fa9f 	bl	8006fb6 <TIM_ITRx_SetConfig>
      break;
 8006a78:	e00c      	b.n	8006a94 <HAL_TIM_ConfigClockSource+0x174>
    case TIM_CLOCKSOURCE_ITR3:
    {
      /* Check whether or not the timer instance supports internal trigger input */
      assert_param(IS_TIM_CLOCKSOURCE_ITRX_INSTANCE(htim->Instance));

      TIM_ITRx_SetConfig(htim->Instance, sClockSourceConfig->ClockSource);
 8006a7a:	687b      	ldr	r3, [r7, #4]
 8006a7c:	681a      	ldr	r2, [r3, #0]
 8006a7e:	683b      	ldr	r3, [r7, #0]
 8006a80:	681b      	ldr	r3, [r3, #0]
 8006a82:	4619      	mov	r1, r3
 8006a84:	4610      	mov	r0, r2
 8006a86:	f000 fa96 	bl	8006fb6 <TIM_ITRx_SetConfig>
      break;
 8006a8a:	e003      	b.n	8006a94 <HAL_TIM_ConfigClockSource+0x174>
    }

    default:
      status = HAL_ERROR;
 8006a8c:	2301      	movs	r3, #1
 8006a8e:	73fb      	strb	r3, [r7, #15]
      break;
 8006a90:	e000      	b.n	8006a94 <HAL_TIM_ConfigClockSource+0x174>
      break;
 8006a92:	bf00      	nop
  }
  htim->State = HAL_TIM_STATE_READY;
 8006a94:	687b      	ldr	r3, [r7, #4]
 8006a96:	2201      	movs	r2, #1
 8006a98:	f883 203d 	strb.w	r2, [r3, #61]	; 0x3d

  __HAL_UNLOCK(htim);
 8006a9c:	687b      	ldr	r3, [r7, #4]
 8006a9e:	2200      	movs	r2, #0
 8006aa0:	f883 203c 	strb.w	r2, [r3, #60]	; 0x3c

  return status;
 8006aa4:	7bfb      	ldrb	r3, [r7, #15]
}
 8006aa6:	4618      	mov	r0, r3
 8006aa8:	3710      	adds	r7, #16
 8006aaa:	46bd      	mov	sp, r7
 8006aac:	bd80      	pop	{r7, pc}
	...

08006ab0 <TIM_Base_SetConfig>:
  * @param  TIMx TIM peripheral
  * @param  Structure TIM Base configuration structure
  * @retval None
  */
void TIM_Base_SetConfig(TIM_TypeDef *TIMx, const TIM_Base_InitTypeDef *Structure)
{
 8006ab0:	b480      	push	{r7}
 8006ab2:	b085      	sub	sp, #20
 8006ab4:	af00      	add	r7, sp, #0
 8006ab6:	6078      	str	r0, [r7, #4]
 8006ab8:	6039      	str	r1, [r7, #0]
  uint32_t tmpcr1;
  tmpcr1 = TIMx->CR1;
 8006aba:	687b      	ldr	r3, [r7, #4]
 8006abc:	681b      	ldr	r3, [r3, #0]
 8006abe:	60fb      	str	r3, [r7, #12]

  /* Set TIM Time Base Unit parameters ---------------------------------------*/
  if (IS_TIM_COUNTER_MODE_SELECT_INSTANCE(TIMx))
 8006ac0:	687b      	ldr	r3, [r7, #4]
 8006ac2:	4a33      	ldr	r2, [pc, #204]	; (8006b90 <TIM_Base_SetConfig+0xe0>)
 8006ac4:	4293      	cmp	r3, r2
 8006ac6:	d013      	beq.n	8006af0 <TIM_Base_SetConfig+0x40>
 8006ac8:	687b      	ldr	r3, [r7, #4]
 8006aca:	4a32      	ldr	r2, [pc, #200]	; (8006b94 <TIM_Base_SetConfig+0xe4>)
 8006acc:	4293      	cmp	r3, r2
 8006ace:	d00f      	beq.n	8006af0 <TIM_Base_SetConfig+0x40>
 8006ad0:	687b      	ldr	r3, [r7, #4]
 8006ad2:	f1b3 4f80 	cmp.w	r3, #1073741824	; 0x40000000
 8006ad6:	d00b      	beq.n	8006af0 <TIM_Base_SetConfig+0x40>
 8006ad8:	687b      	ldr	r3, [r7, #4]
 8006ada:	4a2f      	ldr	r2, [pc, #188]	; (8006b98 <TIM_Base_SetConfig+0xe8>)
 8006adc:	4293      	cmp	r3, r2
 8006ade:	d007      	beq.n	8006af0 <TIM_Base_SetConfig+0x40>
 8006ae0:	687b      	ldr	r3, [r7, #4]
 8006ae2:	4a2e      	ldr	r2, [pc, #184]	; (8006b9c <TIM_Base_SetConfig+0xec>)
 8006ae4:	4293      	cmp	r3, r2
 8006ae6:	d003      	beq.n	8006af0 <TIM_Base_SetConfig+0x40>
 8006ae8:	687b      	ldr	r3, [r7, #4]
 8006aea:	4a2d      	ldr	r2, [pc, #180]	; (8006ba0 <TIM_Base_SetConfig+0xf0>)
 8006aec:	4293      	cmp	r3, r2
 8006aee:	d108      	bne.n	8006b02 <TIM_Base_SetConfig+0x52>
  {
    /* Select the Counter Mode */
    tmpcr1 &= ~(TIM_CR1_DIR | TIM_CR1_CMS);
 8006af0:	68fb      	ldr	r3, [r7, #12]
 8006af2:	f023 0370 	bic.w	r3, r3, #112	; 0x70
 8006af6:	60fb      	str	r3, [r7, #12]
    tmpcr1 |= Structure->CounterMode;
 8006af8:	683b      	ldr	r3, [r7, #0]
 8006afa:	685b      	ldr	r3, [r3, #4]
 8006afc:	68fa      	ldr	r2, [r7, #12]
 8006afe:	4313      	orrs	r3, r2
 8006b00:	60fb      	str	r3, [r7, #12]
  }

  if (IS_TIM_CLOCK_DIVISION_INSTANCE(TIMx))
 8006b02:	687b      	ldr	r3, [r7, #4]
 8006b04:	4a22      	ldr	r2, [pc, #136]	; (8006b90 <TIM_Base_SetConfig+0xe0>)
 8006b06:	4293      	cmp	r3, r2
 8006b08:	d013      	beq.n	8006b32 <TIM_Base_SetConfig+0x82>
 8006b0a:	687b      	ldr	r3, [r7, #4]
 8006b0c:	4a21      	ldr	r2, [pc, #132]	; (8006b94 <TIM_Base_SetConfig+0xe4>)
 8006b0e:	4293      	cmp	r3, r2
 8006b10:	d00f      	beq.n	8006b32 <TIM_Base_SetConfig+0x82>
 8006b12:	687b      	ldr	r3, [r7, #4]
 8006b14:	f1b3 4f80 	cmp.w	r3, #1073741824	; 0x40000000
 8006b18:	d00b      	beq.n	8006b32 <TIM_Base_SetConfig+0x82>
 8006b1a:	687b      	ldr	r3, [r7, #4]
 8006b1c:	4a1e      	ldr	r2, [pc, #120]	; (8006b98 <TIM_Base_SetConfig+0xe8>)
 8006b1e:	4293      	cmp	r3, r2
 8006b20:	d007      	beq.n	8006b32 <TIM_Base_SetConfig+0x82>
 8006b22:	687b      	ldr	r3, [r7, #4]
 8006b24:	4a1d      	ldr	r2, [pc, #116]	; (8006b9c <TIM_Base_SetConfig+0xec>)
 8006b26:	4293      	cmp	r3, r2
 8006b28:	d003      	beq.n	8006b32 <TIM_Base_SetConfig+0x82>
 8006b2a:	687b      	ldr	r3, [r7, #4]
 8006b2c:	4a1c      	ldr	r2, [pc, #112]	; (8006ba0 <TIM_Base_SetConfig+0xf0>)
 8006b2e:	4293      	cmp	r3, r2
 8006b30:	d108      	bne.n	8006b44 <TIM_Base_SetConfig+0x94>
  {
    /* Set the clock division */
    tmpcr1 &= ~TIM_CR1_CKD;
 8006b32:	68fb      	ldr	r3, [r7, #12]
 8006b34:	f423 7340 	bic.w	r3, r3, #768	; 0x300
 8006b38:	60fb      	str	r3, [r7, #12]
    tmpcr1 |= (uint32_t)Structure->ClockDivision;
 8006b3a:	683b      	ldr	r3, [r7, #0]
 8006b3c:	68db      	ldr	r3, [r3, #12]
 8006b3e:	68fa      	ldr	r2, [r7, #12]
 8006b40:	4313      	orrs	r3, r2
 8006b42:	60fb      	str	r3, [r7, #12]
  }

  /* Set the auto-reload preload */
  MODIFY_REG(tmpcr1, TIM_CR1_ARPE, Structure->AutoReloadPreload);
 8006b44:	68fb      	ldr	r3, [r7, #12]
 8006b46:	f023 0280 	bic.w	r2, r3, #128	; 0x80
 8006b4a:	683b      	ldr	r3, [r7, #0]
 8006b4c:	695b      	ldr	r3, [r3, #20]
 8006b4e:	4313      	orrs	r3, r2
 8006b50:	60fb      	str	r3, [r7, #12]

  TIMx->CR1 = tmpcr1;
 8006b52:	687b      	ldr	r3, [r7, #4]
 8006b54:	68fa      	ldr	r2, [r7, #12]
 8006b56:	601a      	str	r2, [r3, #0]

  /* Set the Autoreload value */
  TIMx->ARR = (uint32_t)Structure->Period ;
 8006b58:	683b      	ldr	r3, [r7, #0]
 8006b5a:	689a      	ldr	r2, [r3, #8]
 8006b5c:	687b      	ldr	r3, [r7, #4]
 8006b5e:	62da      	str	r2, [r3, #44]	; 0x2c

  /* Set the Prescaler value */
  TIMx->PSC = Structure->Prescaler;
 8006b60:	683b      	ldr	r3, [r7, #0]
 8006b62:	681a      	ldr	r2, [r3, #0]
 8006b64:	687b      	ldr	r3, [r7, #4]
 8006b66:	629a      	str	r2, [r3, #40]	; 0x28

  if (IS_TIM_REPETITION_COUNTER_INSTANCE(TIMx))
 8006b68:	687b      	ldr	r3, [r7, #4]
 8006b6a:	4a09      	ldr	r2, [pc, #36]	; (8006b90 <TIM_Base_SetConfig+0xe0>)
 8006b6c:	4293      	cmp	r3, r2
 8006b6e:	d003      	beq.n	8006b78 <TIM_Base_SetConfig+0xc8>
 8006b70:	687b      	ldr	r3, [r7, #4]
 8006b72:	4a08      	ldr	r2, [pc, #32]	; (8006b94 <TIM_Base_SetConfig+0xe4>)
 8006b74:	4293      	cmp	r3, r2
 8006b76:	d103      	bne.n	8006b80 <TIM_Base_SetConfig+0xd0>
  {
    /* Set the Repetition Counter value */
    TIMx->RCR = Structure->RepetitionCounter;
 8006b78:	683b      	ldr	r3, [r7, #0]
 8006b7a:	691a      	ldr	r2, [r3, #16]
 8006b7c:	687b      	ldr	r3, [r7, #4]
 8006b7e:	631a      	str	r2, [r3, #48]	; 0x30
  }

  /* Generate an update event to reload the Prescaler
     and the repetition counter (only for advanced timer) value immediately */
  TIMx->EGR = TIM_EGR_UG;
 8006b80:	687b      	ldr	r3, [r7, #4]
 8006b82:	2201      	movs	r2, #1
 8006b84:	615a      	str	r2, [r3, #20]
}
 8006b86:	bf00      	nop
 8006b88:	3714      	adds	r7, #20
 8006b8a:	46bd      	mov	sp, r7
 8006b8c:	bc80      	pop	{r7}
 8006b8e:	4770      	bx	lr
 8006b90:	40012c00 	.word	0x40012c00
 8006b94:	40013400 	.word	0x40013400
 8006b98:	40000400 	.word	0x40000400
 8006b9c:	40000800 	.word	0x40000800
 8006ba0:	40000c00 	.word	0x40000c00

08006ba4 <TIM_OC1_SetConfig>:
  * @param  TIMx to select the TIM peripheral
  * @param  OC_Config The output configuration structure
  * @retval None
  */
static void TIM_OC1_SetConfig(TIM_TypeDef *TIMx, const TIM_OC_InitTypeDef *OC_Config)
{
 8006ba4:	b480      	push	{r7}
 8006ba6:	b087      	sub	sp, #28
 8006ba8:	af00      	add	r7, sp, #0
 8006baa:	6078      	str	r0, [r7, #4]
 8006bac:	6039      	str	r1, [r7, #0]
  uint32_t tmpccmrx;
  uint32_t tmpccer;
  uint32_t tmpcr2;

  /* Get the TIMx CCER register value */
  tmpccer = TIMx->CCER;
 8006bae:	687b      	ldr	r3, [r7, #4]
 8006bb0:	6a1b      	ldr	r3, [r3, #32]
 8006bb2:	617b      	str	r3, [r7, #20]

  /* Disable the Channel 1: Reset the CC1E Bit */
  TIMx->CCER &= ~TIM_CCER_CC1E;
 8006bb4:	687b      	ldr	r3, [r7, #4]
 8006bb6:	6a1b      	ldr	r3, [r3, #32]
 8006bb8:	f023 0201 	bic.w	r2, r3, #1
 8006bbc:	687b      	ldr	r3, [r7, #4]
 8006bbe:	621a      	str	r2, [r3, #32]

  /* Get the TIMx CR2 register value */
  tmpcr2 =  TIMx->CR2;
 8006bc0:	687b      	ldr	r3, [r7, #4]
 8006bc2:	685b      	ldr	r3, [r3, #4]
 8006bc4:	613b      	str	r3, [r7, #16]

  /* Get the TIMx CCMR1 register value */
  tmpccmrx = TIMx->CCMR1;
 8006bc6:	687b      	ldr	r3, [r7, #4]
 8006bc8:	699b      	ldr	r3, [r3, #24]
 8006bca:	60fb      	str	r3, [r7, #12]

  /* Reset the Output Compare Mode Bits */
  tmpccmrx &= ~TIM_CCMR1_OC1M;
 8006bcc:	68fb      	ldr	r3, [r7, #12]
 8006bce:	f023 0370 	bic.w	r3, r3, #112	; 0x70
 8006bd2:	60fb      	str	r3, [r7, #12]
  tmpccmrx &= ~TIM_CCMR1_CC1S;
 8006bd4:	68fb      	ldr	r3, [r7, #12]
 8006bd6:	f023 0303 	bic.w	r3, r3, #3
 8006bda:	60fb      	str	r3, [r7, #12]
  /* Select the Output Compare Mode */
  tmpccmrx |= OC_Config->OCMode;
 8006bdc:	683b      	ldr	r3, [r7, #0]
 8006bde:	681b      	ldr	r3, [r3, #0]
 8006be0:	68fa      	ldr	r2, [r7, #12]
 8006be2:	4313      	orrs	r3, r2
 8006be4:	60fb      	str	r3, [r7, #12]

  /* Reset the Output Polarity level */
  tmpccer &= ~TIM_CCER_CC1P;
 8006be6:	697b      	ldr	r3, [r7, #20]
 8006be8:	f023 0302 	bic.w	r3, r3, #2
 8006bec:	617b      	str	r3, [r7, #20]
  /* Set the Output Compare Polarity */
  tmpccer |= OC_Config->OCPolarity;
 8006bee:	683b      	ldr	r3, [r7, #0]
 8006bf0:	689b      	ldr	r3, [r3, #8]
 8006bf2:	697a      	ldr	r2, [r7, #20]
 8006bf4:	4313      	orrs	r3, r2
 8006bf6:	617b      	str	r3, [r7, #20]

  if (IS_TIM_CCXN_INSTANCE(TIMx, TIM_CHANNEL_1))
 8006bf8:	687b      	ldr	r3, [r7, #4]
 8006bfa:	4a20      	ldr	r2, [pc, #128]	; (8006c7c <TIM_OC1_SetConfig+0xd8>)
 8006bfc:	4293      	cmp	r3, r2
 8006bfe:	d003      	beq.n	8006c08 <TIM_OC1_SetConfig+0x64>
 8006c00:	687b      	ldr	r3, [r7, #4]
 8006c02:	4a1f      	ldr	r2, [pc, #124]	; (8006c80 <TIM_OC1_SetConfig+0xdc>)
 8006c04:	4293      	cmp	r3, r2
 8006c06:	d10c      	bne.n	8006c22 <TIM_OC1_SetConfig+0x7e>
  {
    /* Check parameters */
    assert_param(IS_TIM_OCN_POLARITY(OC_Config->OCNPolarity));

    /* Reset the Output N Polarity level */
    tmpccer &= ~TIM_CCER_CC1NP;
 8006c08:	697b      	ldr	r3, [r7, #20]
 8006c0a:	f023 0308 	bic.w	r3, r3, #8
 8006c0e:	617b      	str	r3, [r7, #20]
    /* Set the Output N Polarity */
    tmpccer |= OC_Config->OCNPolarity;
 8006c10:	683b      	ldr	r3, [r7, #0]
 8006c12:	68db      	ldr	r3, [r3, #12]
 8006c14:	697a      	ldr	r2, [r7, #20]
 8006c16:	4313      	orrs	r3, r2
 8006c18:	617b      	str	r3, [r7, #20]
    /* Reset the Output N State */
    tmpccer &= ~TIM_CCER_CC1NE;
 8006c1a:	697b      	ldr	r3, [r7, #20]
 8006c1c:	f023 0304 	bic.w	r3, r3, #4
 8006c20:	617b      	str	r3, [r7, #20]
  }

  if (IS_TIM_BREAK_INSTANCE(TIMx))
 8006c22:	687b      	ldr	r3, [r7, #4]
 8006c24:	4a15      	ldr	r2, [pc, #84]	; (8006c7c <TIM_OC1_SetConfig+0xd8>)
 8006c26:	4293      	cmp	r3, r2
 8006c28:	d003      	beq.n	8006c32 <TIM_OC1_SetConfig+0x8e>
 8006c2a:	687b      	ldr	r3, [r7, #4]
 8006c2c:	4a14      	ldr	r2, [pc, #80]	; (8006c80 <TIM_OC1_SetConfig+0xdc>)
 8006c2e:	4293      	cmp	r3, r2
 8006c30:	d111      	bne.n	8006c56 <TIM_OC1_SetConfig+0xb2>
    /* Check parameters */
    assert_param(IS_TIM_OCNIDLE_STATE(OC_Config->OCNIdleState));
    assert_param(IS_TIM_OCIDLE_STATE(OC_Config->OCIdleState));

    /* Reset the Output Compare and Output Compare N IDLE State */
    tmpcr2 &= ~TIM_CR2_OIS1;
 8006c32:	693b      	ldr	r3, [r7, #16]
 8006c34:	f423 7380 	bic.w	r3, r3, #256	; 0x100
 8006c38:	613b      	str	r3, [r7, #16]
    tmpcr2 &= ~TIM_CR2_OIS1N;
 8006c3a:	693b      	ldr	r3, [r7, #16]
 8006c3c:	f423 7300 	bic.w	r3, r3, #512	; 0x200
 8006c40:	613b      	str	r3, [r7, #16]
    /* Set the Output Idle state */
    tmpcr2 |= OC_Config->OCIdleState;
 8006c42:	683b      	ldr	r3, [r7, #0]
 8006c44:	695b      	ldr	r3, [r3, #20]
 8006c46:	693a      	ldr	r2, [r7, #16]
 8006c48:	4313      	orrs	r3, r2
 8006c4a:	613b      	str	r3, [r7, #16]
    /* Set the Output N Idle state */
    tmpcr2 |= OC_Config->OCNIdleState;
 8006c4c:	683b      	ldr	r3, [r7, #0]
 8006c4e:	699b      	ldr	r3, [r3, #24]
 8006c50:	693a      	ldr	r2, [r7, #16]
 8006c52:	4313      	orrs	r3, r2
 8006c54:	613b      	str	r3, [r7, #16]
  }

  /* Write to TIMx CR2 */
  TIMx->CR2 = tmpcr2;
 8006c56:	687b      	ldr	r3, [r7, #4]
 8006c58:	693a      	ldr	r2, [r7, #16]
 8006c5a:	605a      	str	r2, [r3, #4]

  /* Write to TIMx CCMR1 */
  TIMx->CCMR1 = tmpccmrx;
 8006c5c:	687b      	ldr	r3, [r7, #4]
 8006c5e:	68fa      	ldr	r2, [r7, #12]
 8006c60:	619a      	str	r2, [r3, #24]

  /* Set the Capture Compare Register value */
  TIMx->CCR1 = OC_Config->Pulse;
 8006c62:	683b      	ldr	r3, [r7, #0]
 8006c64:	685a      	ldr	r2, [r3, #4]
 8006c66:	687b      	ldr	r3, [r7, #4]
 8006c68:	635a      	str	r2, [r3, #52]	; 0x34

  /* Write to TIMx CCER */
  TIMx->CCER = tmpccer;
 8006c6a:	687b      	ldr	r3, [r7, #4]
 8006c6c:	697a      	ldr	r2, [r7, #20]
 8006c6e:	621a      	str	r2, [r3, #32]
}
 8006c70:	bf00      	nop
 8006c72:	371c      	adds	r7, #28
 8006c74:	46bd      	mov	sp, r7
 8006c76:	bc80      	pop	{r7}
 8006c78:	4770      	bx	lr
 8006c7a:	bf00      	nop
 8006c7c:	40012c00 	.word	0x40012c00
 8006c80:	40013400 	.word	0x40013400

08006c84 <TIM_OC2_SetConfig>:
  * @param  TIMx to select the TIM peripheral
  * @param  OC_Config The output configuration structure
  * @retval None
  */
void TIM_OC2_SetConfig(TIM_TypeDef *TIMx, const TIM_OC_InitTypeDef *OC_Config)
{
 8006c84:	b480      	push	{r7}
 8006c86:	b087      	sub	sp, #28
 8006c88:	af00      	add	r7, sp, #0
 8006c8a:	6078      	str	r0, [r7, #4]
 8006c8c:	6039      	str	r1, [r7, #0]
  uint32_t tmpccmrx;
  uint32_t tmpccer;
  uint32_t tmpcr2;

  /* Get the TIMx CCER register value */
  tmpccer = TIMx->CCER;
 8006c8e:	687b      	ldr	r3, [r7, #4]
 8006c90:	6a1b      	ldr	r3, [r3, #32]
 8006c92:	617b      	str	r3, [r7, #20]

  /* Disable the Channel 2: Reset the CC2E Bit */
  TIMx->CCER &= ~TIM_CCER_CC2E;
 8006c94:	687b      	ldr	r3, [r7, #4]
 8006c96:	6a1b      	ldr	r3, [r3, #32]
 8006c98:	f023 0210 	bic.w	r2, r3, #16
 8006c9c:	687b      	ldr	r3, [r7, #4]
 8006c9e:	621a      	str	r2, [r3, #32]

  /* Get the TIMx CR2 register value */
  tmpcr2 =  TIMx->CR2;
 8006ca0:	687b      	ldr	r3, [r7, #4]
 8006ca2:	685b      	ldr	r3, [r3, #4]
 8006ca4:	613b      	str	r3, [r7, #16]

  /* Get the TIMx CCMR1 register value */
  tmpccmrx = TIMx->CCMR1;
 8006ca6:	687b      	ldr	r3, [r7, #4]
 8006ca8:	699b      	ldr	r3, [r3, #24]
 8006caa:	60fb      	str	r3, [r7, #12]

  /* Reset the Output Compare mode and Capture/Compare selection Bits */
  tmpccmrx &= ~TIM_CCMR1_OC2M;
 8006cac:	68fb      	ldr	r3, [r7, #12]
 8006cae:	f423 43e0 	bic.w	r3, r3, #28672	; 0x7000
 8006cb2:	60fb      	str	r3, [r7, #12]
  tmpccmrx &= ~TIM_CCMR1_CC2S;
 8006cb4:	68fb      	ldr	r3, [r7, #12]
 8006cb6:	f423 7340 	bic.w	r3, r3, #768	; 0x300
 8006cba:	60fb      	str	r3, [r7, #12]

  /* Select the Output Compare Mode */
  tmpccmrx |= (OC_Config->OCMode << 8U);
 8006cbc:	683b      	ldr	r3, [r7, #0]
 8006cbe:	681b      	ldr	r3, [r3, #0]
 8006cc0:	021b      	lsls	r3, r3, #8
 8006cc2:	68fa      	ldr	r2, [r7, #12]
 8006cc4:	4313      	orrs	r3, r2
 8006cc6:	60fb      	str	r3, [r7, #12]

  /* Reset the Output Polarity level */
  tmpccer &= ~TIM_CCER_CC2P;
 8006cc8:	697b      	ldr	r3, [r7, #20]
 8006cca:	f023 0320 	bic.w	r3, r3, #32
 8006cce:	617b      	str	r3, [r7, #20]
  /* Set the Output Compare Polarity */
  tmpccer |= (OC_Config->OCPolarity << 4U);
 8006cd0:	683b      	ldr	r3, [r7, #0]
 8006cd2:	689b      	ldr	r3, [r3, #8]
 8006cd4:	011b      	lsls	r3, r3, #4
 8006cd6:	697a      	ldr	r2, [r7, #20]
 8006cd8:	4313      	orrs	r3, r2
 8006cda:	617b      	str	r3, [r7, #20]

  if (IS_TIM_CCXN_INSTANCE(TIMx, TIM_CHANNEL_2))
 8006cdc:	687b      	ldr	r3, [r7, #4]
 8006cde:	4a21      	ldr	r2, [pc, #132]	; (8006d64 <TIM_OC2_SetConfig+0xe0>)
 8006ce0:	4293      	cmp	r3, r2
 8006ce2:	d003      	beq.n	8006cec <TIM_OC2_SetConfig+0x68>
 8006ce4:	687b      	ldr	r3, [r7, #4]
 8006ce6:	4a20      	ldr	r2, [pc, #128]	; (8006d68 <TIM_OC2_SetConfig+0xe4>)
 8006ce8:	4293      	cmp	r3, r2
 8006cea:	d10d      	bne.n	8006d08 <TIM_OC2_SetConfig+0x84>
  {
    assert_param(IS_TIM_OCN_POLARITY(OC_Config->OCNPolarity));

    /* Reset the Output N Polarity level */
    tmpccer &= ~TIM_CCER_CC2NP;
 8006cec:	697b      	ldr	r3, [r7, #20]
 8006cee:	f023 0380 	bic.w	r3, r3, #128	; 0x80
 8006cf2:	617b      	str	r3, [r7, #20]
    /* Set the Output N Polarity */
    tmpccer |= (OC_Config->OCNPolarity << 4U);
 8006cf4:	683b      	ldr	r3, [r7, #0]
 8006cf6:	68db      	ldr	r3, [r3, #12]
 8006cf8:	011b      	lsls	r3, r3, #4
 8006cfa:	697a      	ldr	r2, [r7, #20]
 8006cfc:	4313      	orrs	r3, r2
 8006cfe:	617b      	str	r3, [r7, #20]
    /* Reset the Output N State */
    tmpccer &= ~TIM_CCER_CC2NE;
 8006d00:	697b      	ldr	r3, [r7, #20]
 8006d02:	f023 0340 	bic.w	r3, r3, #64	; 0x40
 8006d06:	617b      	str	r3, [r7, #20]

  }

  if (IS_TIM_BREAK_INSTANCE(TIMx))
 8006d08:	687b      	ldr	r3, [r7, #4]
 8006d0a:	4a16      	ldr	r2, [pc, #88]	; (8006d64 <TIM_OC2_SetConfig+0xe0>)
 8006d0c:	4293      	cmp	r3, r2
 8006d0e:	d003      	beq.n	8006d18 <TIM_OC2_SetConfig+0x94>
 8006d10:	687b      	ldr	r3, [r7, #4]
 8006d12:	4a15      	ldr	r2, [pc, #84]	; (8006d68 <TIM_OC2_SetConfig+0xe4>)
 8006d14:	4293      	cmp	r3, r2
 8006d16:	d113      	bne.n	8006d40 <TIM_OC2_SetConfig+0xbc>
    /* Check parameters */
    assert_param(IS_TIM_OCNIDLE_STATE(OC_Config->OCNIdleState));
    assert_param(IS_TIM_OCIDLE_STATE(OC_Config->OCIdleState));

    /* Reset the Output Compare and Output Compare N IDLE State */
    tmpcr2 &= ~TIM_CR2_OIS2;
 8006d18:	693b      	ldr	r3, [r7, #16]
 8006d1a:	f423 6380 	bic.w	r3, r3, #1024	; 0x400
 8006d1e:	613b      	str	r3, [r7, #16]
    tmpcr2 &= ~TIM_CR2_OIS2N;
 8006d20:	693b      	ldr	r3, [r7, #16]
 8006d22:	f423 6300 	bic.w	r3, r3, #2048	; 0x800
 8006d26:	613b      	str	r3, [r7, #16]
    /* Set the Output Idle state */
    tmpcr2 |= (OC_Config->OCIdleState << 2U);
 8006d28:	683b      	ldr	r3, [r7, #0]
 8006d2a:	695b      	ldr	r3, [r3, #20]
 8006d2c:	009b      	lsls	r3, r3, #2
 8006d2e:	693a      	ldr	r2, [r7, #16]
 8006d30:	4313      	orrs	r3, r2
 8006d32:	613b      	str	r3, [r7, #16]
    /* Set the Output N Idle state */
    tmpcr2 |= (OC_Config->OCNIdleState << 2U);
 8006d34:	683b      	ldr	r3, [r7, #0]
 8006d36:	699b      	ldr	r3, [r3, #24]
 8006d38:	009b      	lsls	r3, r3, #2
 8006d3a:	693a      	ldr	r2, [r7, #16]
 8006d3c:	4313      	orrs	r3, r2
 8006d3e:	613b      	str	r3, [r7, #16]
  }

  /* Write to TIMx CR2 */
  TIMx->CR2 = tmpcr2;
 8006d40:	687b      	ldr	r3, [r7, #4]
 8006d42:	693a      	ldr	r2, [r7, #16]
 8006d44:	605a      	str	r2, [r3, #4]

  /* Write to TIMx CCMR1 */
  TIMx->CCMR1 = tmpccmrx;
 8006d46:	687b      	ldr	r3, [r7, #4]
 8006d48:	68fa      	ldr	r2, [r7, #12]
 8006d4a:	619a      	str	r2, [r3, #24]

  /* Set the Capture Compare Register value */
  TIMx->CCR2 = OC_Config->Pulse;
 8006d4c:	683b      	ldr	r3, [r7, #0]
 8006d4e:	685a      	ldr	r2, [r3, #4]
 8006d50:	687b      	ldr	r3, [r7, #4]
 8006d52:	639a      	str	r2, [r3, #56]	; 0x38

  /* Write to TIMx CCER */
  TIMx->CCER = tmpccer;
 8006d54:	687b      	ldr	r3, [r7, #4]
 8006d56:	697a      	ldr	r2, [r7, #20]
 8006d58:	621a      	str	r2, [r3, #32]
}
 8006d5a:	bf00      	nop
 8006d5c:	371c      	adds	r7, #28
 8006d5e:	46bd      	mov	sp, r7
 8006d60:	bc80      	pop	{r7}
 8006d62:	4770      	bx	lr
 8006d64:	40012c00 	.word	0x40012c00
 8006d68:	40013400 	.word	0x40013400

08006d6c <TIM_OC3_SetConfig>:
  * @param  TIMx to select the TIM peripheral
  * @param  OC_Config The output configuration structure
  * @retval None
  */
static void TIM_OC3_SetConfig(TIM_TypeDef *TIMx, const TIM_OC_InitTypeDef *OC_Config)
{
 8006d6c:	b480      	push	{r7}
 8006d6e:	b087      	sub	sp, #28
 8006d70:	af00      	add	r7, sp, #0
 8006d72:	6078      	str	r0, [r7, #4]
 8006d74:	6039      	str	r1, [r7, #0]
  uint32_t tmpccmrx;
  uint32_t tmpccer;
  uint32_t tmpcr2;

  /* Get the TIMx CCER register value */
  tmpccer = TIMx->CCER;
 8006d76:	687b      	ldr	r3, [r7, #4]
 8006d78:	6a1b      	ldr	r3, [r3, #32]
 8006d7a:	617b      	str	r3, [r7, #20]

  /* Disable the Channel 3: Reset the CC2E Bit */
  TIMx->CCER &= ~TIM_CCER_CC3E;
 8006d7c:	687b      	ldr	r3, [r7, #4]
 8006d7e:	6a1b      	ldr	r3, [r3, #32]
 8006d80:	f423 7280 	bic.w	r2, r3, #256	; 0x100
 8006d84:	687b      	ldr	r3, [r7, #4]
 8006d86:	621a      	str	r2, [r3, #32]

  /* Get the TIMx CR2 register value */
  tmpcr2 =  TIMx->CR2;
 8006d88:	687b      	ldr	r3, [r7, #4]
 8006d8a:	685b      	ldr	r3, [r3, #4]
 8006d8c:	613b      	str	r3, [r7, #16]

  /* Get the TIMx CCMR2 register value */
  tmpccmrx = TIMx->CCMR2;
 8006d8e:	687b      	ldr	r3, [r7, #4]
 8006d90:	69db      	ldr	r3, [r3, #28]
 8006d92:	60fb      	str	r3, [r7, #12]

  /* Reset the Output Compare mode and Capture/Compare selection Bits */
  tmpccmrx &= ~TIM_CCMR2_OC3M;
 8006d94:	68fb      	ldr	r3, [r7, #12]
 8006d96:	f023 0370 	bic.w	r3, r3, #112	; 0x70
 8006d9a:	60fb      	str	r3, [r7, #12]
  tmpccmrx &= ~TIM_CCMR2_CC3S;
 8006d9c:	68fb      	ldr	r3, [r7, #12]
 8006d9e:	f023 0303 	bic.w	r3, r3, #3
 8006da2:	60fb      	str	r3, [r7, #12]
  /* Select the Output Compare Mode */
  tmpccmrx |= OC_Config->OCMode;
 8006da4:	683b      	ldr	r3, [r7, #0]
 8006da6:	681b      	ldr	r3, [r3, #0]
 8006da8:	68fa      	ldr	r2, [r7, #12]
 8006daa:	4313      	orrs	r3, r2
 8006dac:	60fb      	str	r3, [r7, #12]

  /* Reset the Output Polarity level */
  tmpccer &= ~TIM_CCER_CC3P;
 8006dae:	697b      	ldr	r3, [r7, #20]
 8006db0:	f423 7300 	bic.w	r3, r3, #512	; 0x200
 8006db4:	617b      	str	r3, [r7, #20]
  /* Set the Output Compare Polarity */
  tmpccer |= (OC_Config->OCPolarity << 8U);
 8006db6:	683b      	ldr	r3, [r7, #0]
 8006db8:	689b      	ldr	r3, [r3, #8]
 8006dba:	021b      	lsls	r3, r3, #8
 8006dbc:	697a      	ldr	r2, [r7, #20]
 8006dbe:	4313      	orrs	r3, r2
 8006dc0:	617b      	str	r3, [r7, #20]

  if (IS_TIM_CCXN_INSTANCE(TIMx, TIM_CHANNEL_3))
 8006dc2:	687b      	ldr	r3, [r7, #4]
 8006dc4:	4a21      	ldr	r2, [pc, #132]	; (8006e4c <TIM_OC3_SetConfig+0xe0>)
 8006dc6:	4293      	cmp	r3, r2
 8006dc8:	d003      	beq.n	8006dd2 <TIM_OC3_SetConfig+0x66>
 8006dca:	687b      	ldr	r3, [r7, #4]
 8006dcc:	4a20      	ldr	r2, [pc, #128]	; (8006e50 <TIM_OC3_SetConfig+0xe4>)
 8006dce:	4293      	cmp	r3, r2
 8006dd0:	d10d      	bne.n	8006dee <TIM_OC3_SetConfig+0x82>
  {
    assert_param(IS_TIM_OCN_POLARITY(OC_Config->OCNPolarity));

    /* Reset the Output N Polarity level */
    tmpccer &= ~TIM_CCER_CC3NP;
 8006dd2:	697b      	ldr	r3, [r7, #20]
 8006dd4:	f423 6300 	bic.w	r3, r3, #2048	; 0x800
 8006dd8:	617b      	str	r3, [r7, #20]
    /* Set the Output N Polarity */
    tmpccer |= (OC_Config->OCNPolarity << 8U);
 8006dda:	683b      	ldr	r3, [r7, #0]
 8006ddc:	68db      	ldr	r3, [r3, #12]
 8006dde:	021b      	lsls	r3, r3, #8
 8006de0:	697a      	ldr	r2, [r7, #20]
 8006de2:	4313      	orrs	r3, r2
 8006de4:	617b      	str	r3, [r7, #20]
    /* Reset the Output N State */
    tmpccer &= ~TIM_CCER_CC3NE;
 8006de6:	697b      	ldr	r3, [r7, #20]
 8006de8:	f423 6380 	bic.w	r3, r3, #1024	; 0x400
 8006dec:	617b      	str	r3, [r7, #20]
  }

  if (IS_TIM_BREAK_INSTANCE(TIMx))
 8006dee:	687b      	ldr	r3, [r7, #4]
 8006df0:	4a16      	ldr	r2, [pc, #88]	; (8006e4c <TIM_OC3_SetConfig+0xe0>)
 8006df2:	4293      	cmp	r3, r2
 8006df4:	d003      	beq.n	8006dfe <TIM_OC3_SetConfig+0x92>
 8006df6:	687b      	ldr	r3, [r7, #4]
 8006df8:	4a15      	ldr	r2, [pc, #84]	; (8006e50 <TIM_OC3_SetConfig+0xe4>)
 8006dfa:	4293      	cmp	r3, r2
 8006dfc:	d113      	bne.n	8006e26 <TIM_OC3_SetConfig+0xba>
    /* Check parameters */
    assert_param(IS_TIM_OCNIDLE_STATE(OC_Config->OCNIdleState));
    assert_param(IS_TIM_OCIDLE_STATE(OC_Config->OCIdleState));

    /* Reset the Output Compare and Output Compare N IDLE State */
    tmpcr2 &= ~TIM_CR2_OIS3;
 8006dfe:	693b      	ldr	r3, [r7, #16]
 8006e00:	f423 5380 	bic.w	r3, r3, #4096	; 0x1000
 8006e04:	613b      	str	r3, [r7, #16]
    tmpcr2 &= ~TIM_CR2_OIS3N;
 8006e06:	693b      	ldr	r3, [r7, #16]
 8006e08:	f423 5300 	bic.w	r3, r3, #8192	; 0x2000
 8006e0c:	613b      	str	r3, [r7, #16]
    /* Set the Output Idle state */
    tmpcr2 |= (OC_Config->OCIdleState << 4U);
 8006e0e:	683b      	ldr	r3, [r7, #0]
 8006e10:	695b      	ldr	r3, [r3, #20]
 8006e12:	011b      	lsls	r3, r3, #4
 8006e14:	693a      	ldr	r2, [r7, #16]
 8006e16:	4313      	orrs	r3, r2
 8006e18:	613b      	str	r3, [r7, #16]
    /* Set the Output N Idle state */
    tmpcr2 |= (OC_Config->OCNIdleState << 4U);
 8006e1a:	683b      	ldr	r3, [r7, #0]
 8006e1c:	699b      	ldr	r3, [r3, #24]
 8006e1e:	011b      	lsls	r3, r3, #4
 8006e20:	693a      	ldr	r2, [r7, #16]
 8006e22:	4313      	orrs	r3, r2
 8006e24:	613b      	str	r3, [r7, #16]
  }

  /* Write to TIMx CR2 */
  TIMx->CR2 = tmpcr2;
 8006e26:	687b      	ldr	r3, [r7, #4]
 8006e28:	693a      	ldr	r2, [r7, #16]
 8006e2a:	605a      	str	r2, [r3, #4]

  /* Write to TIMx CCMR2 */
  TIMx->CCMR2 = tmpccmrx;
 8006e2c:	687b      	ldr	r3, [r7, #4]
 8006e2e:	68fa      	ldr	r2, [r7, #12]
 8006e30:	61da      	str	r2, [r3, #28]

  /* Set the Capture Compare Register value */
  TIMx->CCR3 = OC_Config->Pulse;
 8006e32:	683b      	ldr	r3, [r7, #0]
 8006e34:	685a      	ldr	r2, [r3, #4]
 8006e36:	687b      	ldr	r3, [r7, #4]
 8006e38:	63da      	str	r2, [r3, #60]	; 0x3c

  /* Write to TIMx CCER */
  TIMx->CCER = tmpccer;
 8006e3a:	687b      	ldr	r3, [r7, #4]
 8006e3c:	697a      	ldr	r2, [r7, #20]
 8006e3e:	621a      	str	r2, [r3, #32]
}
 8006e40:	bf00      	nop
 8006e42:	371c      	adds	r7, #28
 8006e44:	46bd      	mov	sp, r7
 8006e46:	bc80      	pop	{r7}
 8006e48:	4770      	bx	lr
 8006e4a:	bf00      	nop
 8006e4c:	40012c00 	.word	0x40012c00
 8006e50:	40013400 	.word	0x40013400

08006e54 <TIM_OC4_SetConfig>:
  * @param  TIMx to select the TIM peripheral
  * @param  OC_Config The output configuration structure
  * @retval None
  */
static void TIM_OC4_SetConfig(TIM_TypeDef *TIMx, const TIM_OC_InitTypeDef *OC_Config)
{
 8006e54:	b480      	push	{r7}
 8006e56:	b087      	sub	sp, #28
 8006e58:	af00      	add	r7, sp, #0
 8006e5a:	6078      	str	r0, [r7, #4]
 8006e5c:	6039      	str	r1, [r7, #0]
  uint32_t tmpccmrx;
  uint32_t tmpccer;
  uint32_t tmpcr2;

  /* Get the TIMx CCER register value */
  tmpccer = TIMx->CCER;
 8006e5e:	687b      	ldr	r3, [r7, #4]
 8006e60:	6a1b      	ldr	r3, [r3, #32]
 8006e62:	613b      	str	r3, [r7, #16]

  /* Disable the Channel 4: Reset the CC4E Bit */
  TIMx->CCER &= ~TIM_CCER_CC4E;
 8006e64:	687b      	ldr	r3, [r7, #4]
 8006e66:	6a1b      	ldr	r3, [r3, #32]
 8006e68:	f423 5280 	bic.w	r2, r3, #4096	; 0x1000
 8006e6c:	687b      	ldr	r3, [r7, #4]
 8006e6e:	621a      	str	r2, [r3, #32]

  /* Get the TIMx CR2 register value */
  tmpcr2 =  TIMx->CR2;
 8006e70:	687b      	ldr	r3, [r7, #4]
 8006e72:	685b      	ldr	r3, [r3, #4]
 8006e74:	617b      	str	r3, [r7, #20]

  /* Get the TIMx CCMR2 register value */
  tmpccmrx = TIMx->CCMR2;
 8006e76:	687b      	ldr	r3, [r7, #4]
 8006e78:	69db      	ldr	r3, [r3, #28]
 8006e7a:	60fb      	str	r3, [r7, #12]

  /* Reset the Output Compare mode and Capture/Compare selection Bits */
  tmpccmrx &= ~TIM_CCMR2_OC4M;
 8006e7c:	68fb      	ldr	r3, [r7, #12]
 8006e7e:	f423 43e0 	bic.w	r3, r3, #28672	; 0x7000
 8006e82:	60fb      	str	r3, [r7, #12]
  tmpccmrx &= ~TIM_CCMR2_CC4S;
 8006e84:	68fb      	ldr	r3, [r7, #12]
 8006e86:	f423 7340 	bic.w	r3, r3, #768	; 0x300
 8006e8a:	60fb      	str	r3, [r7, #12]

  /* Select the Output Compare Mode */
  tmpccmrx |= (OC_Config->OCMode << 8U);
 8006e8c:	683b      	ldr	r3, [r7, #0]
 8006e8e:	681b      	ldr	r3, [r3, #0]
 8006e90:	021b      	lsls	r3, r3, #8
 8006e92:	68fa      	ldr	r2, [r7, #12]
 8006e94:	4313      	orrs	r3, r2
 8006e96:	60fb      	str	r3, [r7, #12]

  /* Reset the Output Polarity level */
  tmpccer &= ~TIM_CCER_CC4P;
 8006e98:	693b      	ldr	r3, [r7, #16]
 8006e9a:	f423 5300 	bic.w	r3, r3, #8192	; 0x2000
 8006e9e:	613b      	str	r3, [r7, #16]
  /* Set the Output Compare Polarity */
  tmpccer |= (OC_Config->OCPolarity << 12U);
 8006ea0:	683b      	ldr	r3, [r7, #0]
 8006ea2:	689b      	ldr	r3, [r3, #8]
 8006ea4:	031b      	lsls	r3, r3, #12
 8006ea6:	693a      	ldr	r2, [r7, #16]
 8006ea8:	4313      	orrs	r3, r2
 8006eaa:	613b      	str	r3, [r7, #16]

  if (IS_TIM_BREAK_INSTANCE(TIMx))
 8006eac:	687b      	ldr	r3, [r7, #4]
 8006eae:	4a11      	ldr	r2, [pc, #68]	; (8006ef4 <TIM_OC4_SetConfig+0xa0>)
 8006eb0:	4293      	cmp	r3, r2
 8006eb2:	d003      	beq.n	8006ebc <TIM_OC4_SetConfig+0x68>
 8006eb4:	687b      	ldr	r3, [r7, #4]
 8006eb6:	4a10      	ldr	r2, [pc, #64]	; (8006ef8 <TIM_OC4_SetConfig+0xa4>)
 8006eb8:	4293      	cmp	r3, r2
 8006eba:	d109      	bne.n	8006ed0 <TIM_OC4_SetConfig+0x7c>
  {
    /* Check parameters */
    assert_param(IS_TIM_OCIDLE_STATE(OC_Config->OCIdleState));

    /* Reset the Output Compare IDLE State */
    tmpcr2 &= ~TIM_CR2_OIS4;
 8006ebc:	697b      	ldr	r3, [r7, #20]
 8006ebe:	f423 4380 	bic.w	r3, r3, #16384	; 0x4000
 8006ec2:	617b      	str	r3, [r7, #20]

    /* Set the Output Idle state */
    tmpcr2 |= (OC_Config->OCIdleState << 6U);
 8006ec4:	683b      	ldr	r3, [r7, #0]
 8006ec6:	695b      	ldr	r3, [r3, #20]
 8006ec8:	019b      	lsls	r3, r3, #6
 8006eca:	697a      	ldr	r2, [r7, #20]
 8006ecc:	4313      	orrs	r3, r2
 8006ece:	617b      	str	r3, [r7, #20]
  }

  /* Write to TIMx CR2 */
  TIMx->CR2 = tmpcr2;
 8006ed0:	687b      	ldr	r3, [r7, #4]
 8006ed2:	697a      	ldr	r2, [r7, #20]
 8006ed4:	605a      	str	r2, [r3, #4]

  /* Write to TIMx CCMR2 */
  TIMx->CCMR2 = tmpccmrx;
 8006ed6:	687b      	ldr	r3, [r7, #4]
 8006ed8:	68fa      	ldr	r2, [r7, #12]
 8006eda:	61da      	str	r2, [r3, #28]

  /* Set the Capture Compare Register value */
  TIMx->CCR4 = OC_Config->Pulse;
 8006edc:	683b      	ldr	r3, [r7, #0]
 8006ede:	685a      	ldr	r2, [r3, #4]
 8006ee0:	687b      	ldr	r3, [r7, #4]
 8006ee2:	641a      	str	r2, [r3, #64]	; 0x40

  /* Write to TIMx CCER */
  TIMx->CCER = tmpccer;
 8006ee4:	687b      	ldr	r3, [r7, #4]
 8006ee6:	693a      	ldr	r2, [r7, #16]
 8006ee8:	621a      	str	r2, [r3, #32]
}
 8006eea:	bf00      	nop
 8006eec:	371c      	adds	r7, #28
 8006eee:	46bd      	mov	sp, r7
 8006ef0:	bc80      	pop	{r7}
 8006ef2:	4770      	bx	lr
 8006ef4:	40012c00 	.word	0x40012c00
 8006ef8:	40013400 	.word	0x40013400

08006efc <TIM_TI1_ConfigInputStage>:
  * @param  TIM_ICFilter Specifies the Input Capture Filter.
  *          This parameter must be a value between 0x00 and 0x0F.
  * @retval None
  */
static void TIM_TI1_ConfigInputStage(TIM_TypeDef *TIMx, uint32_t TIM_ICPolarity, uint32_t TIM_ICFilter)
{
 8006efc:	b480      	push	{r7}
 8006efe:	b087      	sub	sp, #28
 8006f00:	af00      	add	r7, sp, #0
 8006f02:	60f8      	str	r0, [r7, #12]
 8006f04:	60b9      	str	r1, [r7, #8]
 8006f06:	607a      	str	r2, [r7, #4]
  uint32_t tmpccmr1;
  uint32_t tmpccer;

  /* Disable the Channel 1: Reset the CC1E Bit */
  tmpccer = TIMx->CCER;
 8006f08:	68fb      	ldr	r3, [r7, #12]
 8006f0a:	6a1b      	ldr	r3, [r3, #32]
 8006f0c:	617b      	str	r3, [r7, #20]
  TIMx->CCER &= ~TIM_CCER_CC1E;
 8006f0e:	68fb      	ldr	r3, [r7, #12]
 8006f10:	6a1b      	ldr	r3, [r3, #32]
 8006f12:	f023 0201 	bic.w	r2, r3, #1
 8006f16:	68fb      	ldr	r3, [r7, #12]
 8006f18:	621a      	str	r2, [r3, #32]
  tmpccmr1 = TIMx->CCMR1;
 8006f1a:	68fb      	ldr	r3, [r7, #12]
 8006f1c:	699b      	ldr	r3, [r3, #24]
 8006f1e:	613b      	str	r3, [r7, #16]

  /* Set the filter */
  tmpccmr1 &= ~TIM_CCMR1_IC1F;
 8006f20:	693b      	ldr	r3, [r7, #16]
 8006f22:	f023 03f0 	bic.w	r3, r3, #240	; 0xf0
 8006f26:	613b      	str	r3, [r7, #16]
  tmpccmr1 |= (TIM_ICFilter << 4U);
 8006f28:	687b      	ldr	r3, [r7, #4]
 8006f2a:	011b      	lsls	r3, r3, #4
 8006f2c:	693a      	ldr	r2, [r7, #16]
 8006f2e:	4313      	orrs	r3, r2
 8006f30:	613b      	str	r3, [r7, #16]

  /* Select the Polarity and set the CC1E Bit */
  tmpccer &= ~(TIM_CCER_CC1P | TIM_CCER_CC1NP);
 8006f32:	697b      	ldr	r3, [r7, #20]
 8006f34:	f023 030a 	bic.w	r3, r3, #10
 8006f38:	617b      	str	r3, [r7, #20]
  tmpccer |= TIM_ICPolarity;
 8006f3a:	697a      	ldr	r2, [r7, #20]
 8006f3c:	68bb      	ldr	r3, [r7, #8]
 8006f3e:	4313      	orrs	r3, r2
 8006f40:	617b      	str	r3, [r7, #20]

  /* Write to TIMx CCMR1 and CCER registers */
  TIMx->CCMR1 = tmpccmr1;
 8006f42:	68fb      	ldr	r3, [r7, #12]
 8006f44:	693a      	ldr	r2, [r7, #16]
 8006f46:	619a      	str	r2, [r3, #24]
  TIMx->CCER = tmpccer;
 8006f48:	68fb      	ldr	r3, [r7, #12]
 8006f4a:	697a      	ldr	r2, [r7, #20]
 8006f4c:	621a      	str	r2, [r3, #32]
}
 8006f4e:	bf00      	nop
 8006f50:	371c      	adds	r7, #28
 8006f52:	46bd      	mov	sp, r7
 8006f54:	bc80      	pop	{r7}
 8006f56:	4770      	bx	lr

08006f58 <TIM_TI2_ConfigInputStage>:
  * @param  TIM_ICFilter Specifies the Input Capture Filter.
  *          This parameter must be a value between 0x00 and 0x0F.
  * @retval None
  */
static void TIM_TI2_ConfigInputStage(TIM_TypeDef *TIMx, uint32_t TIM_ICPolarity, uint32_t TIM_ICFilter)
{
 8006f58:	b480      	push	{r7}
 8006f5a:	b087      	sub	sp, #28
 8006f5c:	af00      	add	r7, sp, #0
 8006f5e:	60f8      	str	r0, [r7, #12]
 8006f60:	60b9      	str	r1, [r7, #8]
 8006f62:	607a      	str	r2, [r7, #4]
  uint32_t tmpccmr1;
  uint32_t tmpccer;

  /* Disable the Channel 2: Reset the CC2E Bit */
  tmpccer = TIMx->CCER;
 8006f64:	68fb      	ldr	r3, [r7, #12]
 8006f66:	6a1b      	ldr	r3, [r3, #32]
 8006f68:	617b      	str	r3, [r7, #20]
  TIMx->CCER &= ~TIM_CCER_CC2E;
 8006f6a:	68fb      	ldr	r3, [r7, #12]
 8006f6c:	6a1b      	ldr	r3, [r3, #32]
 8006f6e:	f023 0210 	bic.w	r2, r3, #16
 8006f72:	68fb      	ldr	r3, [r7, #12]
 8006f74:	621a      	str	r2, [r3, #32]
  tmpccmr1 = TIMx->CCMR1;
 8006f76:	68fb      	ldr	r3, [r7, #12]
 8006f78:	699b      	ldr	r3, [r3, #24]
 8006f7a:	613b      	str	r3, [r7, #16]

  /* Set the filter */
  tmpccmr1 &= ~TIM_CCMR1_IC2F;
 8006f7c:	693b      	ldr	r3, [r7, #16]
 8006f7e:	f423 4370 	bic.w	r3, r3, #61440	; 0xf000
 8006f82:	613b      	str	r3, [r7, #16]
  tmpccmr1 |= (TIM_ICFilter << 12U);
 8006f84:	687b      	ldr	r3, [r7, #4]
 8006f86:	031b      	lsls	r3, r3, #12
 8006f88:	693a      	ldr	r2, [r7, #16]
 8006f8a:	4313      	orrs	r3, r2
 8006f8c:	613b      	str	r3, [r7, #16]

  /* Select the Polarity and set the CC2E Bit */
  tmpccer &= ~(TIM_CCER_CC2P | TIM_CCER_CC2NP);
 8006f8e:	697b      	ldr	r3, [r7, #20]
 8006f90:	f023 03a0 	bic.w	r3, r3, #160	; 0xa0
 8006f94:	617b      	str	r3, [r7, #20]
  tmpccer |= (TIM_ICPolarity << 4U);
 8006f96:	68bb      	ldr	r3, [r7, #8]
 8006f98:	011b      	lsls	r3, r3, #4
 8006f9a:	697a      	ldr	r2, [r7, #20]
 8006f9c:	4313      	orrs	r3, r2
 8006f9e:	617b      	str	r3, [r7, #20]

  /* Write to TIMx CCMR1 and CCER registers */
  TIMx->CCMR1 = tmpccmr1 ;
 8006fa0:	68fb      	ldr	r3, [r7, #12]
 8006fa2:	693a      	ldr	r2, [r7, #16]
 8006fa4:	619a      	str	r2, [r3, #24]
  TIMx->CCER = tmpccer;
 8006fa6:	68fb      	ldr	r3, [r7, #12]
 8006fa8:	697a      	ldr	r2, [r7, #20]
 8006faa:	621a      	str	r2, [r3, #32]
}
 8006fac:	bf00      	nop
 8006fae:	371c      	adds	r7, #28
 8006fb0:	46bd      	mov	sp, r7
 8006fb2:	bc80      	pop	{r7}
 8006fb4:	4770      	bx	lr

08006fb6 <TIM_ITRx_SetConfig>:
  *            @arg TIM_TS_TI2FP2: Filtered Timer Input 2
  *            @arg TIM_TS_ETRF: External Trigger input
  * @retval None
  */
static void TIM_ITRx_SetConfig(TIM_TypeDef *TIMx, uint32_t InputTriggerSource)
{
 8006fb6:	b480      	push	{r7}
 8006fb8:	b085      	sub	sp, #20
 8006fba:	af00      	add	r7, sp, #0
 8006fbc:	6078      	str	r0, [r7, #4]
 8006fbe:	6039      	str	r1, [r7, #0]
  uint32_t tmpsmcr;

  /* Get the TIMx SMCR register value */
  tmpsmcr = TIMx->SMCR;
 8006fc0:	687b      	ldr	r3, [r7, #4]
 8006fc2:	689b      	ldr	r3, [r3, #8]
 8006fc4:	60fb      	str	r3, [r7, #12]
  /* Reset the TS Bits */
  tmpsmcr &= ~TIM_SMCR_TS;
 8006fc6:	68fb      	ldr	r3, [r7, #12]
 8006fc8:	f023 0370 	bic.w	r3, r3, #112	; 0x70
 8006fcc:	60fb      	str	r3, [r7, #12]
  /* Set the Input Trigger source and the slave mode*/
  tmpsmcr |= (InputTriggerSource | TIM_SLAVEMODE_EXTERNAL1);
 8006fce:	683a      	ldr	r2, [r7, #0]
 8006fd0:	68fb      	ldr	r3, [r7, #12]
 8006fd2:	4313      	orrs	r3, r2
 8006fd4:	f043 0307 	orr.w	r3, r3, #7
 8006fd8:	60fb      	str	r3, [r7, #12]
  /* Write to TIMx SMCR */
  TIMx->SMCR = tmpsmcr;
 8006fda:	687b      	ldr	r3, [r7, #4]
 8006fdc:	68fa      	ldr	r2, [r7, #12]
 8006fde:	609a      	str	r2, [r3, #8]
}
 8006fe0:	bf00      	nop
 8006fe2:	3714      	adds	r7, #20
 8006fe4:	46bd      	mov	sp, r7
 8006fe6:	bc80      	pop	{r7}
 8006fe8:	4770      	bx	lr

08006fea <TIM_ETR_SetConfig>:
  *          This parameter must be a value between 0x00 and 0x0F
  * @retval None
  */
void TIM_ETR_SetConfig(TIM_TypeDef *TIMx, uint32_t TIM_ExtTRGPrescaler,
                       uint32_t TIM_ExtTRGPolarity, uint32_t ExtTRGFilter)
{
 8006fea:	b480      	push	{r7}
 8006fec:	b087      	sub	sp, #28
 8006fee:	af00      	add	r7, sp, #0
 8006ff0:	60f8      	str	r0, [r7, #12]
 8006ff2:	60b9      	str	r1, [r7, #8]
 8006ff4:	607a      	str	r2, [r7, #4]
 8006ff6:	603b      	str	r3, [r7, #0]
  uint32_t tmpsmcr;

  tmpsmcr = TIMx->SMCR;
 8006ff8:	68fb      	ldr	r3, [r7, #12]
 8006ffa:	689b      	ldr	r3, [r3, #8]
 8006ffc:	617b      	str	r3, [r7, #20]

  /* Reset the ETR Bits */
  tmpsmcr &= ~(TIM_SMCR_ETF | TIM_SMCR_ETPS | TIM_SMCR_ECE | TIM_SMCR_ETP);
 8006ffe:	697b      	ldr	r3, [r7, #20]
 8007000:	f423 437f 	bic.w	r3, r3, #65280	; 0xff00
 8007004:	617b      	str	r3, [r7, #20]

  /* Set the Prescaler, the Filter value and the Polarity */
  tmpsmcr |= (uint32_t)(TIM_ExtTRGPrescaler | (TIM_ExtTRGPolarity | (ExtTRGFilter << 8U)));
 8007006:	683b      	ldr	r3, [r7, #0]
 8007008:	021a      	lsls	r2, r3, #8
 800700a:	687b      	ldr	r3, [r7, #4]
 800700c:	431a      	orrs	r2, r3
 800700e:	68bb      	ldr	r3, [r7, #8]
 8007010:	4313      	orrs	r3, r2
 8007012:	697a      	ldr	r2, [r7, #20]
 8007014:	4313      	orrs	r3, r2
 8007016:	617b      	str	r3, [r7, #20]

  /* Write to TIMx SMCR */
  TIMx->SMCR = tmpsmcr;
 8007018:	68fb      	ldr	r3, [r7, #12]
 800701a:	697a      	ldr	r2, [r7, #20]
 800701c:	609a      	str	r2, [r3, #8]
}
 800701e:	bf00      	nop
 8007020:	371c      	adds	r7, #28
 8007022:	46bd      	mov	sp, r7
 8007024:	bc80      	pop	{r7}
 8007026:	4770      	bx	lr

08007028 <TIM_CCxChannelCmd>:
  * @param  ChannelState specifies the TIM Channel CCxE bit new state.
  *          This parameter can be: TIM_CCx_ENABLE or TIM_CCx_DISABLE.
  * @retval None
  */
void TIM_CCxChannelCmd(TIM_TypeDef *TIMx, uint32_t Channel, uint32_t ChannelState)
{
 8007028:	b480      	push	{r7}
 800702a:	b087      	sub	sp, #28
 800702c:	af00      	add	r7, sp, #0
 800702e:	60f8      	str	r0, [r7, #12]
 8007030:	60b9      	str	r1, [r7, #8]
 8007032:	607a      	str	r2, [r7, #4]

  /* Check the parameters */
  assert_param(IS_TIM_CC1_INSTANCE(TIMx));
  assert_param(IS_TIM_CHANNELS(Channel));

  tmp = TIM_CCER_CC1E << (Channel & 0x1FU); /* 0x1FU = 31 bits max shift */
 8007034:	68bb      	ldr	r3, [r7, #8]
 8007036:	f003 031f 	and.w	r3, r3, #31
 800703a:	2201      	movs	r2, #1
 800703c:	fa02 f303 	lsl.w	r3, r2, r3
 8007040:	617b      	str	r3, [r7, #20]

  /* Reset the CCxE Bit */
  TIMx->CCER &= ~tmp;
 8007042:	68fb      	ldr	r3, [r7, #12]
 8007044:	6a1a      	ldr	r2, [r3, #32]
 8007046:	697b      	ldr	r3, [r7, #20]
 8007048:	43db      	mvns	r3, r3
 800704a:	401a      	ands	r2, r3
 800704c:	68fb      	ldr	r3, [r7, #12]
 800704e:	621a      	str	r2, [r3, #32]

  /* Set or reset the CCxE Bit */
  TIMx->CCER |= (uint32_t)(ChannelState << (Channel & 0x1FU)); /* 0x1FU = 31 bits max shift */
 8007050:	68fb      	ldr	r3, [r7, #12]
 8007052:	6a1a      	ldr	r2, [r3, #32]
 8007054:	68bb      	ldr	r3, [r7, #8]
 8007056:	f003 031f 	and.w	r3, r3, #31
 800705a:	6879      	ldr	r1, [r7, #4]
 800705c:	fa01 f303 	lsl.w	r3, r1, r3
 8007060:	431a      	orrs	r2, r3
 8007062:	68fb      	ldr	r3, [r7, #12]
 8007064:	621a      	str	r2, [r3, #32]
}
 8007066:	bf00      	nop
 8007068:	371c      	adds	r7, #28
 800706a:	46bd      	mov	sp, r7
 800706c:	bc80      	pop	{r7}
 800706e:	4770      	bx	lr

08007070 <HAL_TIMEx_MasterConfigSynchronization>:
  *         mode.
  * @retval HAL status
  */
HAL_StatusTypeDef HAL_TIMEx_MasterConfigSynchronization(TIM_HandleTypeDef *htim,
                                                        const TIM_MasterConfigTypeDef *sMasterConfig)
{
 8007070:	b480      	push	{r7}
 8007072:	b085      	sub	sp, #20
 8007074:	af00      	add	r7, sp, #0
 8007076:	6078      	str	r0, [r7, #4]
 8007078:	6039      	str	r1, [r7, #0]
  assert_param(IS_TIM_MASTER_INSTANCE(htim->Instance));
  assert_param(IS_TIM_TRGO_SOURCE(sMasterConfig->MasterOutputTrigger));
  assert_param(IS_TIM_MSM_STATE(sMasterConfig->MasterSlaveMode));

  /* Check input state */
  __HAL_LOCK(htim);
 800707a:	687b      	ldr	r3, [r7, #4]
 800707c:	f893 303c 	ldrb.w	r3, [r3, #60]	; 0x3c
 8007080:	2b01      	cmp	r3, #1
 8007082:	d101      	bne.n	8007088 <HAL_TIMEx_MasterConfigSynchronization+0x18>
 8007084:	2302      	movs	r3, #2
 8007086:	e050      	b.n	800712a <HAL_TIMEx_MasterConfigSynchronization+0xba>
 8007088:	687b      	ldr	r3, [r7, #4]
 800708a:	2201      	movs	r2, #1
 800708c:	f883 203c 	strb.w	r2, [r3, #60]	; 0x3c

  /* Change the handler state */
  htim->State = HAL_TIM_STATE_BUSY;
 8007090:	687b      	ldr	r3, [r7, #4]
 8007092:	2202      	movs	r2, #2
 8007094:	f883 203d 	strb.w	r2, [r3, #61]	; 0x3d

  /* Get the TIMx CR2 register value */
  tmpcr2 = htim->Instance->CR2;
 8007098:	687b      	ldr	r3, [r7, #4]
 800709a:	681b      	ldr	r3, [r3, #0]
 800709c:	685b      	ldr	r3, [r3, #4]
 800709e:	60fb      	str	r3, [r7, #12]

  /* Get the TIMx SMCR register value */
  tmpsmcr = htim->Instance->SMCR;
 80070a0:	687b      	ldr	r3, [r7, #4]
 80070a2:	681b      	ldr	r3, [r3, #0]
 80070a4:	689b      	ldr	r3, [r3, #8]
 80070a6:	60bb      	str	r3, [r7, #8]

  /* Reset the MMS Bits */
  tmpcr2 &= ~TIM_CR2_MMS;
 80070a8:	68fb      	ldr	r3, [r7, #12]
 80070aa:	f023 0370 	bic.w	r3, r3, #112	; 0x70
 80070ae:	60fb      	str	r3, [r7, #12]
  /* Select the TRGO source */
  tmpcr2 |=  sMasterConfig->MasterOutputTrigger;
 80070b0:	683b      	ldr	r3, [r7, #0]
 80070b2:	681b      	ldr	r3, [r3, #0]
 80070b4:	68fa      	ldr	r2, [r7, #12]
 80070b6:	4313      	orrs	r3, r2
 80070b8:	60fb      	str	r3, [r7, #12]

  /* Update TIMx CR2 */
  htim->Instance->CR2 = tmpcr2;
 80070ba:	687b      	ldr	r3, [r7, #4]
 80070bc:	681b      	ldr	r3, [r3, #0]
 80070be:	68fa      	ldr	r2, [r7, #12]
 80070c0:	605a      	str	r2, [r3, #4]

  if (IS_TIM_SLAVE_INSTANCE(htim->Instance))
 80070c2:	687b      	ldr	r3, [r7, #4]
 80070c4:	681b      	ldr	r3, [r3, #0]
 80070c6:	4a1b      	ldr	r2, [pc, #108]	; (8007134 <HAL_TIMEx_MasterConfigSynchronization+0xc4>)
 80070c8:	4293      	cmp	r3, r2
 80070ca:	d018      	beq.n	80070fe <HAL_TIMEx_MasterConfigSynchronization+0x8e>
 80070cc:	687b      	ldr	r3, [r7, #4]
 80070ce:	681b      	ldr	r3, [r3, #0]
 80070d0:	4a19      	ldr	r2, [pc, #100]	; (8007138 <HAL_TIMEx_MasterConfigSynchronization+0xc8>)
 80070d2:	4293      	cmp	r3, r2
 80070d4:	d013      	beq.n	80070fe <HAL_TIMEx_MasterConfigSynchronization+0x8e>
 80070d6:	687b      	ldr	r3, [r7, #4]
 80070d8:	681b      	ldr	r3, [r3, #0]
 80070da:	f1b3 4f80 	cmp.w	r3, #1073741824	; 0x40000000
 80070de:	d00e      	beq.n	80070fe <HAL_TIMEx_MasterConfigSynchronization+0x8e>
 80070e0:	687b      	ldr	r3, [r7, #4]
 80070e2:	681b      	ldr	r3, [r3, #0]
 80070e4:	4a15      	ldr	r2, [pc, #84]	; (800713c <HAL_TIMEx_MasterConfigSynchronization+0xcc>)
 80070e6:	4293      	cmp	r3, r2
 80070e8:	d009      	beq.n	80070fe <HAL_TIMEx_MasterConfigSynchronization+0x8e>
 80070ea:	687b      	ldr	r3, [r7, #4]
 80070ec:	681b      	ldr	r3, [r3, #0]
 80070ee:	4a14      	ldr	r2, [pc, #80]	; (8007140 <HAL_TIMEx_MasterConfigSynchronization+0xd0>)
 80070f0:	4293      	cmp	r3, r2
 80070f2:	d004      	beq.n	80070fe <HAL_TIMEx_MasterConfigSynchronization+0x8e>
 80070f4:	687b      	ldr	r3, [r7, #4]
 80070f6:	681b      	ldr	r3, [r3, #0]
 80070f8:	4a12      	ldr	r2, [pc, #72]	; (8007144 <HAL_TIMEx_MasterConfigSynchronization+0xd4>)
 80070fa:	4293      	cmp	r3, r2
 80070fc:	d10c      	bne.n	8007118 <HAL_TIMEx_MasterConfigSynchronization+0xa8>
  {
    /* Reset the MSM Bit */
    tmpsmcr &= ~TIM_SMCR_MSM;
 80070fe:	68bb      	ldr	r3, [r7, #8]
 8007100:	f023 0380 	bic.w	r3, r3, #128	; 0x80
 8007104:	60bb      	str	r3, [r7, #8]
    /* Set master mode */
    tmpsmcr |= sMasterConfig->MasterSlaveMode;
 8007106:	683b      	ldr	r3, [r7, #0]
 8007108:	685b      	ldr	r3, [r3, #4]
 800710a:	68ba      	ldr	r2, [r7, #8]
 800710c:	4313      	orrs	r3, r2
 800710e:	60bb      	str	r3, [r7, #8]

    /* Update TIMx SMCR */
    htim->Instance->SMCR = tmpsmcr;
 8007110:	687b      	ldr	r3, [r7, #4]
 8007112:	681b      	ldr	r3, [r3, #0]
 8007114:	68ba      	ldr	r2, [r7, #8]
 8007116:	609a      	str	r2, [r3, #8]
  }

  /* Change the htim state */
  htim->State = HAL_TIM_STATE_READY;
 8007118:	687b      	ldr	r3, [r7, #4]
 800711a:	2201      	movs	r2, #1
 800711c:	f883 203d 	strb.w	r2, [r3, #61]	; 0x3d

  __HAL_UNLOCK(htim);
 8007120:	687b      	ldr	r3, [r7, #4]
 8007122:	2200      	movs	r2, #0
 8007124:	f883 203c 	strb.w	r2, [r3, #60]	; 0x3c

  return HAL_OK;
 8007128:	2300      	movs	r3, #0
}
 800712a:	4618      	mov	r0, r3
 800712c:	3714      	adds	r7, #20
 800712e:	46bd      	mov	sp, r7
 8007130:	bc80      	pop	{r7}
 8007132:	4770      	bx	lr
 8007134:	40012c00 	.word	0x40012c00
 8007138:	40013400 	.word	0x40013400
 800713c:	40000400 	.word	0x40000400
 8007140:	40000800 	.word	0x40000800
 8007144:	40000c00 	.word	0x40000c00

08007148 <FSMC_NORSRAM_Init>:
  * @param  Init Pointer to NORSRAM Initialization structure
  * @retval HAL status
  */
HAL_StatusTypeDef  FSMC_NORSRAM_Init(FSMC_NORSRAM_TypeDef *Device,
                                    FSMC_NORSRAM_InitTypeDef *Init)
{
 8007148:	b480      	push	{r7}
 800714a:	b087      	sub	sp, #28
 800714c:	af00      	add	r7, sp, #0
 800714e:	6078      	str	r0, [r7, #4]
 8007150:	6039      	str	r1, [r7, #0]
  assert_param(IS_FSMC_ASYNWAIT(Init->AsynchronousWait));
  assert_param(IS_FSMC_WRITE_BURST(Init->WriteBurst));
  assert_param(IS_FSMC_PAGESIZE(Init->PageSize));

  /* Disable NORSRAM Device */
  __FSMC_NORSRAM_DISABLE(Device, Init->NSBank);
 8007152:	683b      	ldr	r3, [r7, #0]
 8007154:	681a      	ldr	r2, [r3, #0]
 8007156:	687b      	ldr	r3, [r7, #4]
 8007158:	f853 3022 	ldr.w	r3, [r3, r2, lsl #2]
 800715c:	683a      	ldr	r2, [r7, #0]
 800715e:	6812      	ldr	r2, [r2, #0]
 8007160:	f023 0101 	bic.w	r1, r3, #1
 8007164:	687b      	ldr	r3, [r7, #4]
 8007166:	f843 1022 	str.w	r1, [r3, r2, lsl #2]

  /* Set NORSRAM device control parameters */
  if (Init->MemoryType == FSMC_MEMORY_TYPE_NOR)
 800716a:	683b      	ldr	r3, [r7, #0]
 800716c:	689b      	ldr	r3, [r3, #8]
 800716e:	2b08      	cmp	r3, #8
 8007170:	d102      	bne.n	8007178 <FSMC_NORSRAM_Init+0x30>
  {
    flashaccess = FSMC_NORSRAM_FLASH_ACCESS_ENABLE;
 8007172:	2340      	movs	r3, #64	; 0x40
 8007174:	617b      	str	r3, [r7, #20]
 8007176:	e001      	b.n	800717c <FSMC_NORSRAM_Init+0x34>
  }
  else
  {
    flashaccess = FSMC_NORSRAM_FLASH_ACCESS_DISABLE;
 8007178:	2300      	movs	r3, #0
 800717a:	617b      	str	r3, [r7, #20]
  }

  btcr_reg = (flashaccess                   | \
              Init->DataAddressMux          | \
 800717c:	683b      	ldr	r3, [r7, #0]
 800717e:	685a      	ldr	r2, [r3, #4]
  btcr_reg = (flashaccess                   | \
 8007180:	697b      	ldr	r3, [r7, #20]
 8007182:	431a      	orrs	r2, r3
              Init->MemoryType              | \
 8007184:	683b      	ldr	r3, [r7, #0]
 8007186:	689b      	ldr	r3, [r3, #8]
              Init->DataAddressMux          | \
 8007188:	431a      	orrs	r2, r3
              Init->MemoryDataWidth         | \
 800718a:	683b      	ldr	r3, [r7, #0]
 800718c:	68db      	ldr	r3, [r3, #12]
              Init->MemoryType              | \
 800718e:	431a      	orrs	r2, r3
              Init->BurstAccessMode         | \
 8007190:	683b      	ldr	r3, [r7, #0]
 8007192:	691b      	ldr	r3, [r3, #16]
              Init->MemoryDataWidth         | \
 8007194:	431a      	orrs	r2, r3
              Init->WaitSignalPolarity      | \
 8007196:	683b      	ldr	r3, [r7, #0]
 8007198:	695b      	ldr	r3, [r3, #20]
              Init->BurstAccessMode         | \
 800719a:	431a      	orrs	r2, r3
              Init->WaitSignalActive        | \
 800719c:	683b      	ldr	r3, [r7, #0]
 800719e:	69db      	ldr	r3, [r3, #28]
              Init->WaitSignalPolarity      | \
 80071a0:	431a      	orrs	r2, r3
              Init->WriteOperation          | \
 80071a2:	683b      	ldr	r3, [r7, #0]
 80071a4:	6a1b      	ldr	r3, [r3, #32]
              Init->WaitSignalActive        | \
 80071a6:	431a      	orrs	r2, r3
              Init->WaitSignal              | \
 80071a8:	683b      	ldr	r3, [r7, #0]
 80071aa:	6a5b      	ldr	r3, [r3, #36]	; 0x24
              Init->WriteOperation          | \
 80071ac:	431a      	orrs	r2, r3
              Init->ExtendedMode            | \
 80071ae:	683b      	ldr	r3, [r7, #0]
 80071b0:	6a9b      	ldr	r3, [r3, #40]	; 0x28
              Init->WaitSignal              | \
 80071b2:	431a      	orrs	r2, r3
              Init->AsynchronousWait        | \
 80071b4:	683b      	ldr	r3, [r7, #0]
 80071b6:	6adb      	ldr	r3, [r3, #44]	; 0x2c
              Init->ExtendedMode            | \
 80071b8:	431a      	orrs	r2, r3
              Init->WriteBurst);
 80071ba:	683b      	ldr	r3, [r7, #0]
 80071bc:	6b1b      	ldr	r3, [r3, #48]	; 0x30
  btcr_reg = (flashaccess                   | \
 80071be:	4313      	orrs	r3, r2
 80071c0:	613b      	str	r3, [r7, #16]

  btcr_reg |= Init->WrapMode;
 80071c2:	683b      	ldr	r3, [r7, #0]
 80071c4:	699b      	ldr	r3, [r3, #24]
 80071c6:	693a      	ldr	r2, [r7, #16]
 80071c8:	4313      	orrs	r3, r2
 80071ca:	613b      	str	r3, [r7, #16]
  btcr_reg |= Init->PageSize;
 80071cc:	683b      	ldr	r3, [r7, #0]
 80071ce:	6b5b      	ldr	r3, [r3, #52]	; 0x34
 80071d0:	693a      	ldr	r2, [r7, #16]
 80071d2:	4313      	orrs	r3, r2
 80071d4:	613b      	str	r3, [r7, #16]

  mask = (FSMC_BCRx_MBKEN                |
 80071d6:	4b10      	ldr	r3, [pc, #64]	; (8007218 <FSMC_NORSRAM_Init+0xd0>)
 80071d8:	60fb      	str	r3, [r7, #12]
          FSMC_BCRx_WAITEN               |
          FSMC_BCRx_EXTMOD               |
          FSMC_BCRx_ASYNCWAIT            |
          FSMC_BCRx_CBURSTRW);

  mask |= FSMC_BCRx_WRAPMOD;
 80071da:	68fb      	ldr	r3, [r7, #12]
 80071dc:	f443 6380 	orr.w	r3, r3, #1024	; 0x400
 80071e0:	60fb      	str	r3, [r7, #12]
  mask |= 0x00070000U; /* CPSIZE to be defined in CMSIS file */
 80071e2:	68fb      	ldr	r3, [r7, #12]
 80071e4:	f443 23e0 	orr.w	r3, r3, #458752	; 0x70000
 80071e8:	60fb      	str	r3, [r7, #12]

  MODIFY_REG(Device->BTCR[Init->NSBank], mask, btcr_reg);
 80071ea:	683b      	ldr	r3, [r7, #0]
 80071ec:	681a      	ldr	r2, [r3, #0]
 80071ee:	687b      	ldr	r3, [r7, #4]
 80071f0:	f853 2022 	ldr.w	r2, [r3, r2, lsl #2]
 80071f4:	68fb      	ldr	r3, [r7, #12]
 80071f6:	43db      	mvns	r3, r3
 80071f8:	ea02 0103 	and.w	r1, r2, r3
 80071fc:	683b      	ldr	r3, [r7, #0]
 80071fe:	681a      	ldr	r2, [r3, #0]
 8007200:	693b      	ldr	r3, [r7, #16]
 8007202:	4319      	orrs	r1, r3
 8007204:	687b      	ldr	r3, [r7, #4]
 8007206:	f843 1022 	str.w	r1, [r3, r2, lsl #2]


  return HAL_OK;
 800720a:	2300      	movs	r3, #0
}
 800720c:	4618      	mov	r0, r3
 800720e:	371c      	adds	r7, #28
 8007210:	46bd      	mov	sp, r7
 8007212:	bc80      	pop	{r7}
 8007214:	4770      	bx	lr
 8007216:	bf00      	nop
 8007218:	0008fb7f 	.word	0x0008fb7f

0800721c <FSMC_NORSRAM_Timing_Init>:
  * @param  Bank NORSRAM bank number
  * @retval HAL status
  */
HAL_StatusTypeDef FSMC_NORSRAM_Timing_Init(FSMC_NORSRAM_TypeDef *Device,
                                          FSMC_NORSRAM_TimingTypeDef *Timing, uint32_t Bank)
{
 800721c:	b480      	push	{r7}
 800721e:	b085      	sub	sp, #20
 8007220:	af00      	add	r7, sp, #0
 8007222:	60f8      	str	r0, [r7, #12]
 8007224:	60b9      	str	r1, [r7, #8]
 8007226:	607a      	str	r2, [r7, #4]
  assert_param(IS_FSMC_DATA_LATENCY(Timing->DataLatency));
  assert_param(IS_FSMC_ACCESS_MODE(Timing->AccessMode));
  assert_param(IS_FSMC_NORSRAM_BANK(Bank));

  /* Set FSMC_NORSRAM device timing parameters */
  MODIFY_REG(Device->BTCR[Bank + 1U], BTR_CLEAR_MASK, (Timing->AddressSetupTime                                  |
 8007228:	687b      	ldr	r3, [r7, #4]
 800722a:	1c5a      	adds	r2, r3, #1
 800722c:	68fb      	ldr	r3, [r7, #12]
 800722e:	f853 3022 	ldr.w	r3, [r3, r2, lsl #2]
 8007232:	f003 4140 	and.w	r1, r3, #3221225472	; 0xc0000000
 8007236:	68bb      	ldr	r3, [r7, #8]
 8007238:	681a      	ldr	r2, [r3, #0]
 800723a:	68bb      	ldr	r3, [r7, #8]
 800723c:	685b      	ldr	r3, [r3, #4]
 800723e:	011b      	lsls	r3, r3, #4
 8007240:	431a      	orrs	r2, r3
 8007242:	68bb      	ldr	r3, [r7, #8]
 8007244:	689b      	ldr	r3, [r3, #8]
 8007246:	021b      	lsls	r3, r3, #8
 8007248:	431a      	orrs	r2, r3
 800724a:	68bb      	ldr	r3, [r7, #8]
 800724c:	68db      	ldr	r3, [r3, #12]
 800724e:	041b      	lsls	r3, r3, #16
 8007250:	431a      	orrs	r2, r3
 8007252:	68bb      	ldr	r3, [r7, #8]
 8007254:	691b      	ldr	r3, [r3, #16]
 8007256:	3b01      	subs	r3, #1
 8007258:	051b      	lsls	r3, r3, #20
 800725a:	431a      	orrs	r2, r3
 800725c:	68bb      	ldr	r3, [r7, #8]
 800725e:	695b      	ldr	r3, [r3, #20]
 8007260:	3b02      	subs	r3, #2
 8007262:	061b      	lsls	r3, r3, #24
 8007264:	431a      	orrs	r2, r3
 8007266:	68bb      	ldr	r3, [r7, #8]
 8007268:	699b      	ldr	r3, [r3, #24]
 800726a:	4313      	orrs	r3, r2
 800726c:	687a      	ldr	r2, [r7, #4]
 800726e:	3201      	adds	r2, #1
 8007270:	4319      	orrs	r1, r3
 8007272:	68fb      	ldr	r3, [r7, #12]
 8007274:	f843 1022 	str.w	r1, [r3, r2, lsl #2]
                                                       ((Timing->BusTurnAroundDuration)  << FSMC_BTRx_BUSTURN_Pos) |
                                                       (((Timing->CLKDivision) - 1U)     << FSMC_BTRx_CLKDIV_Pos)  |
                                                       (((Timing->DataLatency) - 2U)     << FSMC_BTRx_DATLAT_Pos)  |
                                                       (Timing->AccessMode)));

  return HAL_OK;
 8007278:	2300      	movs	r3, #0
}
 800727a:	4618      	mov	r0, r3
 800727c:	3714      	adds	r7, #20
 800727e:	46bd      	mov	sp, r7
 8007280:	bc80      	pop	{r7}
 8007282:	4770      	bx	lr

08007284 <FSMC_NORSRAM_Extended_Timing_Init>:
  * @retval HAL status
  */
HAL_StatusTypeDef FSMC_NORSRAM_Extended_Timing_Init(FSMC_NORSRAM_EXTENDED_TypeDef *Device,
                                                   FSMC_NORSRAM_TimingTypeDef *Timing, uint32_t Bank,
                                                   uint32_t ExtendedMode)
{
 8007284:	b480      	push	{r7}
 8007286:	b085      	sub	sp, #20
 8007288:	af00      	add	r7, sp, #0
 800728a:	60f8      	str	r0, [r7, #12]
 800728c:	60b9      	str	r1, [r7, #8]
 800728e:	607a      	str	r2, [r7, #4]
 8007290:	603b      	str	r3, [r7, #0]
  /* Check the parameters */
  assert_param(IS_FSMC_EXTENDED_MODE(ExtendedMode));

  /* Set NORSRAM device timing register for write configuration, if extended mode is used */
  if (ExtendedMode == FSMC_EXTENDED_MODE_ENABLE)
 8007292:	683b      	ldr	r3, [r7, #0]
 8007294:	f5b3 4f80 	cmp.w	r3, #16384	; 0x4000
 8007298:	d11d      	bne.n	80072d6 <FSMC_NORSRAM_Extended_Timing_Init+0x52>
    assert_param(IS_FSMC_ACCESS_MODE(Timing->AccessMode));
    assert_param(IS_FSMC_NORSRAM_BANK(Bank));

    /* Set NORSRAM device timing register for write configuration, if extended mode is used */
#if defined(FSMC_BWTRx_BUSTURN)
    MODIFY_REG(Device->BWTR[Bank], BWTR_CLEAR_MASK, (Timing->AddressSetupTime                                    |
 800729a:	68fb      	ldr	r3, [r7, #12]
 800729c:	687a      	ldr	r2, [r7, #4]
 800729e:	f853 2022 	ldr.w	r2, [r3, r2, lsl #2]
 80072a2:	4b13      	ldr	r3, [pc, #76]	; (80072f0 <FSMC_NORSRAM_Extended_Timing_Init+0x6c>)
 80072a4:	4013      	ands	r3, r2
 80072a6:	68ba      	ldr	r2, [r7, #8]
 80072a8:	6811      	ldr	r1, [r2, #0]
 80072aa:	68ba      	ldr	r2, [r7, #8]
 80072ac:	6852      	ldr	r2, [r2, #4]
 80072ae:	0112      	lsls	r2, r2, #4
 80072b0:	4311      	orrs	r1, r2
 80072b2:	68ba      	ldr	r2, [r7, #8]
 80072b4:	6892      	ldr	r2, [r2, #8]
 80072b6:	0212      	lsls	r2, r2, #8
 80072b8:	4311      	orrs	r1, r2
 80072ba:	68ba      	ldr	r2, [r7, #8]
 80072bc:	6992      	ldr	r2, [r2, #24]
 80072be:	4311      	orrs	r1, r2
 80072c0:	68ba      	ldr	r2, [r7, #8]
 80072c2:	68d2      	ldr	r2, [r2, #12]
 80072c4:	0412      	lsls	r2, r2, #16
 80072c6:	430a      	orrs	r2, r1
 80072c8:	ea43 0102 	orr.w	r1, r3, r2
 80072cc:	68fb      	ldr	r3, [r7, #12]
 80072ce:	687a      	ldr	r2, [r7, #4]
 80072d0:	f843 1022 	str.w	r1, [r3, r2, lsl #2]
 80072d4:	e005      	b.n	80072e2 <FSMC_NORSRAM_Extended_Timing_Init+0x5e>
                                                     (((Timing->DataLatency) - 2U)     << FSMC_BWTRx_DATLAT_Pos)));
#endif /* FSMC_BWTRx_BUSTURN */
  }
  else
  {
    Device->BWTR[Bank] = 0x0FFFFFFFU;
 80072d6:	68fb      	ldr	r3, [r7, #12]
 80072d8:	687a      	ldr	r2, [r7, #4]
 80072da:	f06f 4170 	mvn.w	r1, #4026531840	; 0xf0000000
 80072de:	f843 1022 	str.w	r1, [r3, r2, lsl #2]
  }

  return HAL_OK;
 80072e2:	2300      	movs	r3, #0
}
 80072e4:	4618      	mov	r0, r3
 80072e6:	3714      	adds	r7, #20
 80072e8:	46bd      	mov	sp, r7
 80072ea:	bc80      	pop	{r7}
 80072ec:	4770      	bx	lr
 80072ee:	bf00      	nop
 80072f0:	cff00000 	.word	0xcff00000

080072f4 <_ZdlPvj>:
 80072f4:	f000 b800 	b.w	80072f8 <_ZdlPv>

080072f8 <_ZdlPv>:
 80072f8:	f000 b82a 	b.w	8007350 <free>

080072fc <__errno>:
 80072fc:	4b01      	ldr	r3, [pc, #4]	; (8007304 <__errno+0x8>)
 80072fe:	6818      	ldr	r0, [r3, #0]
 8007300:	4770      	bx	lr
 8007302:	bf00      	nop
 8007304:	20000040 	.word	0x20000040

08007308 <__libc_init_array>:
 8007308:	b570      	push	{r4, r5, r6, lr}
 800730a:	2600      	movs	r6, #0
 800730c:	4d0c      	ldr	r5, [pc, #48]	; (8007340 <__libc_init_array+0x38>)
 800730e:	4c0d      	ldr	r4, [pc, #52]	; (8007344 <__libc_init_array+0x3c>)
 8007310:	1b64      	subs	r4, r4, r5
 8007312:	10a4      	asrs	r4, r4, #2
 8007314:	42a6      	cmp	r6, r4
 8007316:	d109      	bne.n	800732c <__libc_init_array+0x24>
 8007318:	f000 fca4 	bl	8007c64 <_init>
 800731c:	2600      	movs	r6, #0
 800731e:	4d0a      	ldr	r5, [pc, #40]	; (8007348 <__libc_init_array+0x40>)
 8007320:	4c0a      	ldr	r4, [pc, #40]	; (800734c <__libc_init_array+0x44>)
 8007322:	1b64      	subs	r4, r4, r5
 8007324:	10a4      	asrs	r4, r4, #2
 8007326:	42a6      	cmp	r6, r4
 8007328:	d105      	bne.n	8007336 <__libc_init_array+0x2e>
 800732a:	bd70      	pop	{r4, r5, r6, pc}
 800732c:	f855 3b04 	ldr.w	r3, [r5], #4
 8007330:	4798      	blx	r3
 8007332:	3601      	adds	r6, #1
 8007334:	e7ee      	b.n	8007314 <__libc_init_array+0xc>
 8007336:	f855 3b04 	ldr.w	r3, [r5], #4
 800733a:	4798      	blx	r3
 800733c:	3601      	adds	r6, #1
 800733e:	e7f2      	b.n	8007326 <__libc_init_array+0x1e>
 8007340:	080083f8 	.word	0x080083f8
 8007344:	080083f8 	.word	0x080083f8
 8007348:	080083f8 	.word	0x080083f8
 800734c:	080083fc 	.word	0x080083fc

08007350 <free>:
 8007350:	4b02      	ldr	r3, [pc, #8]	; (800735c <free+0xc>)
 8007352:	4601      	mov	r1, r0
 8007354:	6818      	ldr	r0, [r3, #0]
 8007356:	f000 b80b 	b.w	8007370 <_free_r>
 800735a:	bf00      	nop
 800735c:	20000040 	.word	0x20000040

08007360 <memset>:
 8007360:	4603      	mov	r3, r0
 8007362:	4402      	add	r2, r0
 8007364:	4293      	cmp	r3, r2
 8007366:	d100      	bne.n	800736a <memset+0xa>
 8007368:	4770      	bx	lr
 800736a:	f803 1b01 	strb.w	r1, [r3], #1
 800736e:	e7f9      	b.n	8007364 <memset+0x4>

08007370 <_free_r>:
 8007370:	b538      	push	{r3, r4, r5, lr}
 8007372:	4605      	mov	r5, r0
 8007374:	2900      	cmp	r1, #0
 8007376:	d040      	beq.n	80073fa <_free_r+0x8a>
 8007378:	f851 3c04 	ldr.w	r3, [r1, #-4]
 800737c:	1f0c      	subs	r4, r1, #4
 800737e:	2b00      	cmp	r3, #0
 8007380:	bfb8      	it	lt
 8007382:	18e4      	addlt	r4, r4, r3
 8007384:	f000 f900 	bl	8007588 <__malloc_lock>
 8007388:	4a1c      	ldr	r2, [pc, #112]	; (80073fc <_free_r+0x8c>)
 800738a:	6813      	ldr	r3, [r2, #0]
 800738c:	b933      	cbnz	r3, 800739c <_free_r+0x2c>
 800738e:	6063      	str	r3, [r4, #4]
 8007390:	6014      	str	r4, [r2, #0]
 8007392:	4628      	mov	r0, r5
 8007394:	e8bd 4038 	ldmia.w	sp!, {r3, r4, r5, lr}
 8007398:	f000 b8fc 	b.w	8007594 <__malloc_unlock>
 800739c:	42a3      	cmp	r3, r4
 800739e:	d908      	bls.n	80073b2 <_free_r+0x42>
 80073a0:	6820      	ldr	r0, [r4, #0]
 80073a2:	1821      	adds	r1, r4, r0
 80073a4:	428b      	cmp	r3, r1
 80073a6:	bf01      	itttt	eq
 80073a8:	6819      	ldreq	r1, [r3, #0]
 80073aa:	685b      	ldreq	r3, [r3, #4]
 80073ac:	1809      	addeq	r1, r1, r0
 80073ae:	6021      	streq	r1, [r4, #0]
 80073b0:	e7ed      	b.n	800738e <_free_r+0x1e>
 80073b2:	461a      	mov	r2, r3
 80073b4:	685b      	ldr	r3, [r3, #4]
 80073b6:	b10b      	cbz	r3, 80073bc <_free_r+0x4c>
 80073b8:	42a3      	cmp	r3, r4
 80073ba:	d9fa      	bls.n	80073b2 <_free_r+0x42>
 80073bc:	6811      	ldr	r1, [r2, #0]
 80073be:	1850      	adds	r0, r2, r1
 80073c0:	42a0      	cmp	r0, r4
 80073c2:	d10b      	bne.n	80073dc <_free_r+0x6c>
 80073c4:	6820      	ldr	r0, [r4, #0]
 80073c6:	4401      	add	r1, r0
 80073c8:	1850      	adds	r0, r2, r1
 80073ca:	4283      	cmp	r3, r0
 80073cc:	6011      	str	r1, [r2, #0]
 80073ce:	d1e0      	bne.n	8007392 <_free_r+0x22>
 80073d0:	6818      	ldr	r0, [r3, #0]
 80073d2:	685b      	ldr	r3, [r3, #4]
 80073d4:	4401      	add	r1, r0
 80073d6:	6011      	str	r1, [r2, #0]
 80073d8:	6053      	str	r3, [r2, #4]
 80073da:	e7da      	b.n	8007392 <_free_r+0x22>
 80073dc:	d902      	bls.n	80073e4 <_free_r+0x74>
 80073de:	230c      	movs	r3, #12
 80073e0:	602b      	str	r3, [r5, #0]
 80073e2:	e7d6      	b.n	8007392 <_free_r+0x22>
 80073e4:	6820      	ldr	r0, [r4, #0]
 80073e6:	1821      	adds	r1, r4, r0
 80073e8:	428b      	cmp	r3, r1
 80073ea:	bf01      	itttt	eq
 80073ec:	6819      	ldreq	r1, [r3, #0]
 80073ee:	685b      	ldreq	r3, [r3, #4]
 80073f0:	1809      	addeq	r1, r1, r0
 80073f2:	6021      	streq	r1, [r4, #0]
 80073f4:	6063      	str	r3, [r4, #4]
 80073f6:	6054      	str	r4, [r2, #4]
 80073f8:	e7cb      	b.n	8007392 <_free_r+0x22>
 80073fa:	bd38      	pop	{r3, r4, r5, pc}
 80073fc:	200001c0 	.word	0x200001c0

08007400 <sbrk_aligned>:
 8007400:	b570      	push	{r4, r5, r6, lr}
 8007402:	4e0e      	ldr	r6, [pc, #56]	; (800743c <sbrk_aligned+0x3c>)
 8007404:	460c      	mov	r4, r1
 8007406:	6831      	ldr	r1, [r6, #0]
 8007408:	4605      	mov	r5, r0
 800740a:	b911      	cbnz	r1, 8007412 <sbrk_aligned+0x12>
 800740c:	f000 f88c 	bl	8007528 <_sbrk_r>
 8007410:	6030      	str	r0, [r6, #0]
 8007412:	4621      	mov	r1, r4
 8007414:	4628      	mov	r0, r5
 8007416:	f000 f887 	bl	8007528 <_sbrk_r>
 800741a:	1c43      	adds	r3, r0, #1
 800741c:	d00a      	beq.n	8007434 <sbrk_aligned+0x34>
 800741e:	1cc4      	adds	r4, r0, #3
 8007420:	f024 0403 	bic.w	r4, r4, #3
 8007424:	42a0      	cmp	r0, r4
 8007426:	d007      	beq.n	8007438 <sbrk_aligned+0x38>
 8007428:	1a21      	subs	r1, r4, r0
 800742a:	4628      	mov	r0, r5
 800742c:	f000 f87c 	bl	8007528 <_sbrk_r>
 8007430:	3001      	adds	r0, #1
 8007432:	d101      	bne.n	8007438 <sbrk_aligned+0x38>
 8007434:	f04f 34ff 	mov.w	r4, #4294967295
 8007438:	4620      	mov	r0, r4
 800743a:	bd70      	pop	{r4, r5, r6, pc}
 800743c:	200001c4 	.word	0x200001c4

08007440 <_malloc_r>:
 8007440:	e92d 41f0 	stmdb	sp!, {r4, r5, r6, r7, r8, lr}
 8007444:	1ccd      	adds	r5, r1, #3
 8007446:	f025 0503 	bic.w	r5, r5, #3
 800744a:	3508      	adds	r5, #8
 800744c:	2d0c      	cmp	r5, #12
 800744e:	bf38      	it	cc
 8007450:	250c      	movcc	r5, #12
 8007452:	2d00      	cmp	r5, #0
 8007454:	4607      	mov	r7, r0
 8007456:	db01      	blt.n	800745c <_malloc_r+0x1c>
 8007458:	42a9      	cmp	r1, r5
 800745a:	d905      	bls.n	8007468 <_malloc_r+0x28>
 800745c:	230c      	movs	r3, #12
 800745e:	2600      	movs	r6, #0
 8007460:	603b      	str	r3, [r7, #0]
 8007462:	4630      	mov	r0, r6
 8007464:	e8bd 81f0 	ldmia.w	sp!, {r4, r5, r6, r7, r8, pc}
 8007468:	4e2e      	ldr	r6, [pc, #184]	; (8007524 <_malloc_r+0xe4>)
 800746a:	f000 f88d 	bl	8007588 <__malloc_lock>
 800746e:	6833      	ldr	r3, [r6, #0]
 8007470:	461c      	mov	r4, r3
 8007472:	bb34      	cbnz	r4, 80074c2 <_malloc_r+0x82>
 8007474:	4629      	mov	r1, r5
 8007476:	4638      	mov	r0, r7
 8007478:	f7ff ffc2 	bl	8007400 <sbrk_aligned>
 800747c:	1c43      	adds	r3, r0, #1
 800747e:	4604      	mov	r4, r0
 8007480:	d14d      	bne.n	800751e <_malloc_r+0xde>
 8007482:	6834      	ldr	r4, [r6, #0]
 8007484:	4626      	mov	r6, r4
 8007486:	2e00      	cmp	r6, #0
 8007488:	d140      	bne.n	800750c <_malloc_r+0xcc>
 800748a:	6823      	ldr	r3, [r4, #0]
 800748c:	4631      	mov	r1, r6
 800748e:	4638      	mov	r0, r7
 8007490:	eb04 0803 	add.w	r8, r4, r3
 8007494:	f000 f848 	bl	8007528 <_sbrk_r>
 8007498:	4580      	cmp	r8, r0
 800749a:	d13a      	bne.n	8007512 <_malloc_r+0xd2>
 800749c:	6821      	ldr	r1, [r4, #0]
 800749e:	3503      	adds	r5, #3
 80074a0:	1a6d      	subs	r5, r5, r1
 80074a2:	f025 0503 	bic.w	r5, r5, #3
 80074a6:	3508      	adds	r5, #8
 80074a8:	2d0c      	cmp	r5, #12
 80074aa:	bf38      	it	cc
 80074ac:	250c      	movcc	r5, #12
 80074ae:	4638      	mov	r0, r7
 80074b0:	4629      	mov	r1, r5
 80074b2:	f7ff ffa5 	bl	8007400 <sbrk_aligned>
 80074b6:	3001      	adds	r0, #1
 80074b8:	d02b      	beq.n	8007512 <_malloc_r+0xd2>
 80074ba:	6823      	ldr	r3, [r4, #0]
 80074bc:	442b      	add	r3, r5
 80074be:	6023      	str	r3, [r4, #0]
 80074c0:	e00e      	b.n	80074e0 <_malloc_r+0xa0>
 80074c2:	6822      	ldr	r2, [r4, #0]
 80074c4:	1b52      	subs	r2, r2, r5
 80074c6:	d41e      	bmi.n	8007506 <_malloc_r+0xc6>
 80074c8:	2a0b      	cmp	r2, #11
 80074ca:	d916      	bls.n	80074fa <_malloc_r+0xba>
 80074cc:	1961      	adds	r1, r4, r5
 80074ce:	42a3      	cmp	r3, r4
 80074d0:	6025      	str	r5, [r4, #0]
 80074d2:	bf18      	it	ne
 80074d4:	6059      	strne	r1, [r3, #4]
 80074d6:	6863      	ldr	r3, [r4, #4]
 80074d8:	bf08      	it	eq
 80074da:	6031      	streq	r1, [r6, #0]
 80074dc:	5162      	str	r2, [r4, r5]
 80074de:	604b      	str	r3, [r1, #4]
 80074e0:	4638      	mov	r0, r7
 80074e2:	f104 060b 	add.w	r6, r4, #11
 80074e6:	f000 f855 	bl	8007594 <__malloc_unlock>
 80074ea:	f026 0607 	bic.w	r6, r6, #7
 80074ee:	1d23      	adds	r3, r4, #4
 80074f0:	1af2      	subs	r2, r6, r3
 80074f2:	d0b6      	beq.n	8007462 <_malloc_r+0x22>
 80074f4:	1b9b      	subs	r3, r3, r6
 80074f6:	50a3      	str	r3, [r4, r2]
 80074f8:	e7b3      	b.n	8007462 <_malloc_r+0x22>
 80074fa:	6862      	ldr	r2, [r4, #4]
 80074fc:	42a3      	cmp	r3, r4
 80074fe:	bf0c      	ite	eq
 8007500:	6032      	streq	r2, [r6, #0]
 8007502:	605a      	strne	r2, [r3, #4]
 8007504:	e7ec      	b.n	80074e0 <_malloc_r+0xa0>
 8007506:	4623      	mov	r3, r4
 8007508:	6864      	ldr	r4, [r4, #4]
 800750a:	e7b2      	b.n	8007472 <_malloc_r+0x32>
 800750c:	4634      	mov	r4, r6
 800750e:	6876      	ldr	r6, [r6, #4]
 8007510:	e7b9      	b.n	8007486 <_malloc_r+0x46>
 8007512:	230c      	movs	r3, #12
 8007514:	4638      	mov	r0, r7
 8007516:	603b      	str	r3, [r7, #0]
 8007518:	f000 f83c 	bl	8007594 <__malloc_unlock>
 800751c:	e7a1      	b.n	8007462 <_malloc_r+0x22>
 800751e:	6025      	str	r5, [r4, #0]
 8007520:	e7de      	b.n	80074e0 <_malloc_r+0xa0>
 8007522:	bf00      	nop
 8007524:	200001c0 	.word	0x200001c0

08007528 <_sbrk_r>:
 8007528:	b538      	push	{r3, r4, r5, lr}
 800752a:	2300      	movs	r3, #0
 800752c:	4d05      	ldr	r5, [pc, #20]	; (8007544 <_sbrk_r+0x1c>)
 800752e:	4604      	mov	r4, r0
 8007530:	4608      	mov	r0, r1
 8007532:	602b      	str	r3, [r5, #0]
 8007534:	f7fc fe44 	bl	80041c0 <_sbrk>
 8007538:	1c43      	adds	r3, r0, #1
 800753a:	d102      	bne.n	8007542 <_sbrk_r+0x1a>
 800753c:	682b      	ldr	r3, [r5, #0]
 800753e:	b103      	cbz	r3, 8007542 <_sbrk_r+0x1a>
 8007540:	6023      	str	r3, [r4, #0]
 8007542:	bd38      	pop	{r3, r4, r5, pc}
 8007544:	200001c8 	.word	0x200001c8

08007548 <siprintf>:
 8007548:	b40e      	push	{r1, r2, r3}
 800754a:	f06f 4100 	mvn.w	r1, #2147483648	; 0x80000000
 800754e:	b500      	push	{lr}
 8007550:	b09c      	sub	sp, #112	; 0x70
 8007552:	ab1d      	add	r3, sp, #116	; 0x74
 8007554:	9002      	str	r0, [sp, #8]
 8007556:	9006      	str	r0, [sp, #24]
 8007558:	9107      	str	r1, [sp, #28]
 800755a:	9104      	str	r1, [sp, #16]
 800755c:	4808      	ldr	r0, [pc, #32]	; (8007580 <siprintf+0x38>)
 800755e:	4909      	ldr	r1, [pc, #36]	; (8007584 <siprintf+0x3c>)
 8007560:	f853 2b04 	ldr.w	r2, [r3], #4
 8007564:	9105      	str	r1, [sp, #20]
 8007566:	6800      	ldr	r0, [r0, #0]
 8007568:	a902      	add	r1, sp, #8
 800756a:	9301      	str	r3, [sp, #4]
 800756c:	f000 f874 	bl	8007658 <_svfiprintf_r>
 8007570:	2200      	movs	r2, #0
 8007572:	9b02      	ldr	r3, [sp, #8]
 8007574:	701a      	strb	r2, [r3, #0]
 8007576:	b01c      	add	sp, #112	; 0x70
 8007578:	f85d eb04 	ldr.w	lr, [sp], #4
 800757c:	b003      	add	sp, #12
 800757e:	4770      	bx	lr
 8007580:	20000040 	.word	0x20000040
 8007584:	ffff0208 	.word	0xffff0208

08007588 <__malloc_lock>:
 8007588:	4801      	ldr	r0, [pc, #4]	; (8007590 <__malloc_lock+0x8>)
 800758a:	f000 bafb 	b.w	8007b84 <__retarget_lock_acquire_recursive>
 800758e:	bf00      	nop
 8007590:	200001cc 	.word	0x200001cc

08007594 <__malloc_unlock>:
 8007594:	4801      	ldr	r0, [pc, #4]	; (800759c <__malloc_unlock+0x8>)
 8007596:	f000 baf6 	b.w	8007b86 <__retarget_lock_release_recursive>
 800759a:	bf00      	nop
 800759c:	200001cc 	.word	0x200001cc

080075a0 <__ssputs_r>:
 80075a0:	e92d 47f0 	stmdb	sp!, {r4, r5, r6, r7, r8, r9, sl, lr}
 80075a4:	688e      	ldr	r6, [r1, #8]
 80075a6:	4682      	mov	sl, r0
 80075a8:	429e      	cmp	r6, r3
 80075aa:	460c      	mov	r4, r1
 80075ac:	4690      	mov	r8, r2
 80075ae:	461f      	mov	r7, r3
 80075b0:	d838      	bhi.n	8007624 <__ssputs_r+0x84>
 80075b2:	898a      	ldrh	r2, [r1, #12]
 80075b4:	f412 6f90 	tst.w	r2, #1152	; 0x480
 80075b8:	d032      	beq.n	8007620 <__ssputs_r+0x80>
 80075ba:	6825      	ldr	r5, [r4, #0]
 80075bc:	6909      	ldr	r1, [r1, #16]
 80075be:	3301      	adds	r3, #1
 80075c0:	eba5 0901 	sub.w	r9, r5, r1
 80075c4:	6965      	ldr	r5, [r4, #20]
 80075c6:	444b      	add	r3, r9
 80075c8:	eb05 0545 	add.w	r5, r5, r5, lsl #1
 80075cc:	eb05 75d5 	add.w	r5, r5, r5, lsr #31
 80075d0:	106d      	asrs	r5, r5, #1
 80075d2:	429d      	cmp	r5, r3
 80075d4:	bf38      	it	cc
 80075d6:	461d      	movcc	r5, r3
 80075d8:	0553      	lsls	r3, r2, #21
 80075da:	d531      	bpl.n	8007640 <__ssputs_r+0xa0>
 80075dc:	4629      	mov	r1, r5
 80075de:	f7ff ff2f 	bl	8007440 <_malloc_r>
 80075e2:	4606      	mov	r6, r0
 80075e4:	b950      	cbnz	r0, 80075fc <__ssputs_r+0x5c>
 80075e6:	230c      	movs	r3, #12
 80075e8:	f04f 30ff 	mov.w	r0, #4294967295
 80075ec:	f8ca 3000 	str.w	r3, [sl]
 80075f0:	89a3      	ldrh	r3, [r4, #12]
 80075f2:	f043 0340 	orr.w	r3, r3, #64	; 0x40
 80075f6:	81a3      	strh	r3, [r4, #12]
 80075f8:	e8bd 87f0 	ldmia.w	sp!, {r4, r5, r6, r7, r8, r9, sl, pc}
 80075fc:	464a      	mov	r2, r9
 80075fe:	6921      	ldr	r1, [r4, #16]
 8007600:	f000 fad0 	bl	8007ba4 <memcpy>
 8007604:	89a3      	ldrh	r3, [r4, #12]
 8007606:	f423 6390 	bic.w	r3, r3, #1152	; 0x480
 800760a:	f043 0380 	orr.w	r3, r3, #128	; 0x80
 800760e:	81a3      	strh	r3, [r4, #12]
 8007610:	6126      	str	r6, [r4, #16]
 8007612:	444e      	add	r6, r9
 8007614:	6026      	str	r6, [r4, #0]
 8007616:	463e      	mov	r6, r7
 8007618:	6165      	str	r5, [r4, #20]
 800761a:	eba5 0509 	sub.w	r5, r5, r9
 800761e:	60a5      	str	r5, [r4, #8]
 8007620:	42be      	cmp	r6, r7
 8007622:	d900      	bls.n	8007626 <__ssputs_r+0x86>
 8007624:	463e      	mov	r6, r7
 8007626:	4632      	mov	r2, r6
 8007628:	4641      	mov	r1, r8
 800762a:	6820      	ldr	r0, [r4, #0]
 800762c:	f000 fac8 	bl	8007bc0 <memmove>
 8007630:	68a3      	ldr	r3, [r4, #8]
 8007632:	2000      	movs	r0, #0
 8007634:	1b9b      	subs	r3, r3, r6
 8007636:	60a3      	str	r3, [r4, #8]
 8007638:	6823      	ldr	r3, [r4, #0]
 800763a:	4433      	add	r3, r6
 800763c:	6023      	str	r3, [r4, #0]
 800763e:	e7db      	b.n	80075f8 <__ssputs_r+0x58>
 8007640:	462a      	mov	r2, r5
 8007642:	f000 fad7 	bl	8007bf4 <_realloc_r>
 8007646:	4606      	mov	r6, r0
 8007648:	2800      	cmp	r0, #0
 800764a:	d1e1      	bne.n	8007610 <__ssputs_r+0x70>
 800764c:	4650      	mov	r0, sl
 800764e:	6921      	ldr	r1, [r4, #16]
 8007650:	f7ff fe8e 	bl	8007370 <_free_r>
 8007654:	e7c7      	b.n	80075e6 <__ssputs_r+0x46>
	...

08007658 <_svfiprintf_r>:
 8007658:	e92d 4ff0 	stmdb	sp!, {r4, r5, r6, r7, r8, r9, sl, fp, lr}
 800765c:	4698      	mov	r8, r3
 800765e:	898b      	ldrh	r3, [r1, #12]
 8007660:	4607      	mov	r7, r0
 8007662:	061b      	lsls	r3, r3, #24
 8007664:	460d      	mov	r5, r1
 8007666:	4614      	mov	r4, r2
 8007668:	b09d      	sub	sp, #116	; 0x74
 800766a:	d50e      	bpl.n	800768a <_svfiprintf_r+0x32>
 800766c:	690b      	ldr	r3, [r1, #16]
 800766e:	b963      	cbnz	r3, 800768a <_svfiprintf_r+0x32>
 8007670:	2140      	movs	r1, #64	; 0x40
 8007672:	f7ff fee5 	bl	8007440 <_malloc_r>
 8007676:	6028      	str	r0, [r5, #0]
 8007678:	6128      	str	r0, [r5, #16]
 800767a:	b920      	cbnz	r0, 8007686 <_svfiprintf_r+0x2e>
 800767c:	230c      	movs	r3, #12
 800767e:	603b      	str	r3, [r7, #0]
 8007680:	f04f 30ff 	mov.w	r0, #4294967295
 8007684:	e0d1      	b.n	800782a <_svfiprintf_r+0x1d2>
 8007686:	2340      	movs	r3, #64	; 0x40
 8007688:	616b      	str	r3, [r5, #20]
 800768a:	2300      	movs	r3, #0
 800768c:	9309      	str	r3, [sp, #36]	; 0x24
 800768e:	2320      	movs	r3, #32
 8007690:	f88d 3029 	strb.w	r3, [sp, #41]	; 0x29
 8007694:	2330      	movs	r3, #48	; 0x30
 8007696:	f04f 0901 	mov.w	r9, #1
 800769a:	f8cd 800c 	str.w	r8, [sp, #12]
 800769e:	f8df 81a4 	ldr.w	r8, [pc, #420]	; 8007844 <_svfiprintf_r+0x1ec>
 80076a2:	f88d 302a 	strb.w	r3, [sp, #42]	; 0x2a
 80076a6:	4623      	mov	r3, r4
 80076a8:	469a      	mov	sl, r3
 80076aa:	f813 2b01 	ldrb.w	r2, [r3], #1
 80076ae:	b10a      	cbz	r2, 80076b4 <_svfiprintf_r+0x5c>
 80076b0:	2a25      	cmp	r2, #37	; 0x25
 80076b2:	d1f9      	bne.n	80076a8 <_svfiprintf_r+0x50>
 80076b4:	ebba 0b04 	subs.w	fp, sl, r4
 80076b8:	d00b      	beq.n	80076d2 <_svfiprintf_r+0x7a>
 80076ba:	465b      	mov	r3, fp
 80076bc:	4622      	mov	r2, r4
 80076be:	4629      	mov	r1, r5
 80076c0:	4638      	mov	r0, r7
 80076c2:	f7ff ff6d 	bl	80075a0 <__ssputs_r>
 80076c6:	3001      	adds	r0, #1
 80076c8:	f000 80aa 	beq.w	8007820 <_svfiprintf_r+0x1c8>
 80076cc:	9a09      	ldr	r2, [sp, #36]	; 0x24
 80076ce:	445a      	add	r2, fp
 80076d0:	9209      	str	r2, [sp, #36]	; 0x24
 80076d2:	f89a 3000 	ldrb.w	r3, [sl]
 80076d6:	2b00      	cmp	r3, #0
 80076d8:	f000 80a2 	beq.w	8007820 <_svfiprintf_r+0x1c8>
 80076dc:	2300      	movs	r3, #0
 80076de:	f04f 32ff 	mov.w	r2, #4294967295
 80076e2:	e9cd 2305 	strd	r2, r3, [sp, #20]
 80076e6:	f10a 0a01 	add.w	sl, sl, #1
 80076ea:	9304      	str	r3, [sp, #16]
 80076ec:	9307      	str	r3, [sp, #28]
 80076ee:	f88d 3053 	strb.w	r3, [sp, #83]	; 0x53
 80076f2:	931a      	str	r3, [sp, #104]	; 0x68
 80076f4:	4654      	mov	r4, sl
 80076f6:	2205      	movs	r2, #5
 80076f8:	f814 1b01 	ldrb.w	r1, [r4], #1
 80076fc:	4851      	ldr	r0, [pc, #324]	; (8007844 <_svfiprintf_r+0x1ec>)
 80076fe:	f000 fa43 	bl	8007b88 <memchr>
 8007702:	9a04      	ldr	r2, [sp, #16]
 8007704:	b9d8      	cbnz	r0, 800773e <_svfiprintf_r+0xe6>
 8007706:	06d0      	lsls	r0, r2, #27
 8007708:	bf44      	itt	mi
 800770a:	2320      	movmi	r3, #32
 800770c:	f88d 3053 	strbmi.w	r3, [sp, #83]	; 0x53
 8007710:	0711      	lsls	r1, r2, #28
 8007712:	bf44      	itt	mi
 8007714:	232b      	movmi	r3, #43	; 0x2b
 8007716:	f88d 3053 	strbmi.w	r3, [sp, #83]	; 0x53
 800771a:	f89a 3000 	ldrb.w	r3, [sl]
 800771e:	2b2a      	cmp	r3, #42	; 0x2a
 8007720:	d015      	beq.n	800774e <_svfiprintf_r+0xf6>
 8007722:	4654      	mov	r4, sl
 8007724:	2000      	movs	r0, #0
 8007726:	f04f 0c0a 	mov.w	ip, #10
 800772a:	9a07      	ldr	r2, [sp, #28]
 800772c:	4621      	mov	r1, r4
 800772e:	f811 3b01 	ldrb.w	r3, [r1], #1
 8007732:	3b30      	subs	r3, #48	; 0x30
 8007734:	2b09      	cmp	r3, #9
 8007736:	d94e      	bls.n	80077d6 <_svfiprintf_r+0x17e>
 8007738:	b1b0      	cbz	r0, 8007768 <_svfiprintf_r+0x110>
 800773a:	9207      	str	r2, [sp, #28]
 800773c:	e014      	b.n	8007768 <_svfiprintf_r+0x110>
 800773e:	eba0 0308 	sub.w	r3, r0, r8
 8007742:	fa09 f303 	lsl.w	r3, r9, r3
 8007746:	4313      	orrs	r3, r2
 8007748:	46a2      	mov	sl, r4
 800774a:	9304      	str	r3, [sp, #16]
 800774c:	e7d2      	b.n	80076f4 <_svfiprintf_r+0x9c>
 800774e:	9b03      	ldr	r3, [sp, #12]
 8007750:	1d19      	adds	r1, r3, #4
 8007752:	681b      	ldr	r3, [r3, #0]
 8007754:	9103      	str	r1, [sp, #12]
 8007756:	2b00      	cmp	r3, #0
 8007758:	bfbb      	ittet	lt
 800775a:	425b      	neglt	r3, r3
 800775c:	f042 0202 	orrlt.w	r2, r2, #2
 8007760:	9307      	strge	r3, [sp, #28]
 8007762:	9307      	strlt	r3, [sp, #28]
 8007764:	bfb8      	it	lt
 8007766:	9204      	strlt	r2, [sp, #16]
 8007768:	7823      	ldrb	r3, [r4, #0]
 800776a:	2b2e      	cmp	r3, #46	; 0x2e
 800776c:	d10c      	bne.n	8007788 <_svfiprintf_r+0x130>
 800776e:	7863      	ldrb	r3, [r4, #1]
 8007770:	2b2a      	cmp	r3, #42	; 0x2a
 8007772:	d135      	bne.n	80077e0 <_svfiprintf_r+0x188>
 8007774:	9b03      	ldr	r3, [sp, #12]
 8007776:	3402      	adds	r4, #2
 8007778:	1d1a      	adds	r2, r3, #4
 800777a:	681b      	ldr	r3, [r3, #0]
 800777c:	9203      	str	r2, [sp, #12]
 800777e:	2b00      	cmp	r3, #0
 8007780:	bfb8      	it	lt
 8007782:	f04f 33ff 	movlt.w	r3, #4294967295
 8007786:	9305      	str	r3, [sp, #20]
 8007788:	f8df a0bc 	ldr.w	sl, [pc, #188]	; 8007848 <_svfiprintf_r+0x1f0>
 800778c:	2203      	movs	r2, #3
 800778e:	4650      	mov	r0, sl
 8007790:	7821      	ldrb	r1, [r4, #0]
 8007792:	f000 f9f9 	bl	8007b88 <memchr>
 8007796:	b140      	cbz	r0, 80077aa <_svfiprintf_r+0x152>
 8007798:	2340      	movs	r3, #64	; 0x40
 800779a:	eba0 000a 	sub.w	r0, r0, sl
 800779e:	fa03 f000 	lsl.w	r0, r3, r0
 80077a2:	9b04      	ldr	r3, [sp, #16]
 80077a4:	3401      	adds	r4, #1
 80077a6:	4303      	orrs	r3, r0
 80077a8:	9304      	str	r3, [sp, #16]
 80077aa:	f814 1b01 	ldrb.w	r1, [r4], #1
 80077ae:	2206      	movs	r2, #6
 80077b0:	4826      	ldr	r0, [pc, #152]	; (800784c <_svfiprintf_r+0x1f4>)
 80077b2:	f88d 1028 	strb.w	r1, [sp, #40]	; 0x28
 80077b6:	f000 f9e7 	bl	8007b88 <memchr>
 80077ba:	2800      	cmp	r0, #0
 80077bc:	d038      	beq.n	8007830 <_svfiprintf_r+0x1d8>
 80077be:	4b24      	ldr	r3, [pc, #144]	; (8007850 <_svfiprintf_r+0x1f8>)
 80077c0:	bb1b      	cbnz	r3, 800780a <_svfiprintf_r+0x1b2>
 80077c2:	9b03      	ldr	r3, [sp, #12]
 80077c4:	3307      	adds	r3, #7
 80077c6:	f023 0307 	bic.w	r3, r3, #7
 80077ca:	3308      	adds	r3, #8
 80077cc:	9303      	str	r3, [sp, #12]
 80077ce:	9b09      	ldr	r3, [sp, #36]	; 0x24
 80077d0:	4433      	add	r3, r6
 80077d2:	9309      	str	r3, [sp, #36]	; 0x24
 80077d4:	e767      	b.n	80076a6 <_svfiprintf_r+0x4e>
 80077d6:	460c      	mov	r4, r1
 80077d8:	2001      	movs	r0, #1
 80077da:	fb0c 3202 	mla	r2, ip, r2, r3
 80077de:	e7a5      	b.n	800772c <_svfiprintf_r+0xd4>
 80077e0:	2300      	movs	r3, #0
 80077e2:	f04f 0c0a 	mov.w	ip, #10
 80077e6:	4619      	mov	r1, r3
 80077e8:	3401      	adds	r4, #1
 80077ea:	9305      	str	r3, [sp, #20]
 80077ec:	4620      	mov	r0, r4
 80077ee:	f810 2b01 	ldrb.w	r2, [r0], #1
 80077f2:	3a30      	subs	r2, #48	; 0x30
 80077f4:	2a09      	cmp	r2, #9
 80077f6:	d903      	bls.n	8007800 <_svfiprintf_r+0x1a8>
 80077f8:	2b00      	cmp	r3, #0
 80077fa:	d0c5      	beq.n	8007788 <_svfiprintf_r+0x130>
 80077fc:	9105      	str	r1, [sp, #20]
 80077fe:	e7c3      	b.n	8007788 <_svfiprintf_r+0x130>
 8007800:	4604      	mov	r4, r0
 8007802:	2301      	movs	r3, #1
 8007804:	fb0c 2101 	mla	r1, ip, r1, r2
 8007808:	e7f0      	b.n	80077ec <_svfiprintf_r+0x194>
 800780a:	ab03      	add	r3, sp, #12
 800780c:	9300      	str	r3, [sp, #0]
 800780e:	462a      	mov	r2, r5
 8007810:	4638      	mov	r0, r7
 8007812:	4b10      	ldr	r3, [pc, #64]	; (8007854 <_svfiprintf_r+0x1fc>)
 8007814:	a904      	add	r1, sp, #16
 8007816:	f3af 8000 	nop.w
 800781a:	1c42      	adds	r2, r0, #1
 800781c:	4606      	mov	r6, r0
 800781e:	d1d6      	bne.n	80077ce <_svfiprintf_r+0x176>
 8007820:	89ab      	ldrh	r3, [r5, #12]
 8007822:	065b      	lsls	r3, r3, #25
 8007824:	f53f af2c 	bmi.w	8007680 <_svfiprintf_r+0x28>
 8007828:	9809      	ldr	r0, [sp, #36]	; 0x24
 800782a:	b01d      	add	sp, #116	; 0x74
 800782c:	e8bd 8ff0 	ldmia.w	sp!, {r4, r5, r6, r7, r8, r9, sl, fp, pc}
 8007830:	ab03      	add	r3, sp, #12
 8007832:	9300      	str	r3, [sp, #0]
 8007834:	462a      	mov	r2, r5
 8007836:	4638      	mov	r0, r7
 8007838:	4b06      	ldr	r3, [pc, #24]	; (8007854 <_svfiprintf_r+0x1fc>)
 800783a:	a904      	add	r1, sp, #16
 800783c:	f000 f87c 	bl	8007938 <_printf_i>
 8007840:	e7eb      	b.n	800781a <_svfiprintf_r+0x1c2>
 8007842:	bf00      	nop
 8007844:	080083c2 	.word	0x080083c2
 8007848:	080083c8 	.word	0x080083c8
 800784c:	080083cc 	.word	0x080083cc
 8007850:	00000000 	.word	0x00000000
 8007854:	080075a1 	.word	0x080075a1

08007858 <_printf_common>:
 8007858:	e92d 47f0 	stmdb	sp!, {r4, r5, r6, r7, r8, r9, sl, lr}
 800785c:	4616      	mov	r6, r2
 800785e:	4699      	mov	r9, r3
 8007860:	688a      	ldr	r2, [r1, #8]
 8007862:	690b      	ldr	r3, [r1, #16]
 8007864:	4607      	mov	r7, r0
 8007866:	4293      	cmp	r3, r2
 8007868:	bfb8      	it	lt
 800786a:	4613      	movlt	r3, r2
 800786c:	6033      	str	r3, [r6, #0]
 800786e:	f891 2043 	ldrb.w	r2, [r1, #67]	; 0x43
 8007872:	460c      	mov	r4, r1
 8007874:	f8dd 8020 	ldr.w	r8, [sp, #32]
 8007878:	b10a      	cbz	r2, 800787e <_printf_common+0x26>
 800787a:	3301      	adds	r3, #1
 800787c:	6033      	str	r3, [r6, #0]
 800787e:	6823      	ldr	r3, [r4, #0]
 8007880:	0699      	lsls	r1, r3, #26
 8007882:	bf42      	ittt	mi
 8007884:	6833      	ldrmi	r3, [r6, #0]
 8007886:	3302      	addmi	r3, #2
 8007888:	6033      	strmi	r3, [r6, #0]
 800788a:	6825      	ldr	r5, [r4, #0]
 800788c:	f015 0506 	ands.w	r5, r5, #6
 8007890:	d106      	bne.n	80078a0 <_printf_common+0x48>
 8007892:	f104 0a19 	add.w	sl, r4, #25
 8007896:	68e3      	ldr	r3, [r4, #12]
 8007898:	6832      	ldr	r2, [r6, #0]
 800789a:	1a9b      	subs	r3, r3, r2
 800789c:	42ab      	cmp	r3, r5
 800789e:	dc28      	bgt.n	80078f2 <_printf_common+0x9a>
 80078a0:	f894 2043 	ldrb.w	r2, [r4, #67]	; 0x43
 80078a4:	1e13      	subs	r3, r2, #0
 80078a6:	6822      	ldr	r2, [r4, #0]
 80078a8:	bf18      	it	ne
 80078aa:	2301      	movne	r3, #1
 80078ac:	0692      	lsls	r2, r2, #26
 80078ae:	d42d      	bmi.n	800790c <_printf_common+0xb4>
 80078b0:	4649      	mov	r1, r9
 80078b2:	4638      	mov	r0, r7
 80078b4:	f104 0243 	add.w	r2, r4, #67	; 0x43
 80078b8:	47c0      	blx	r8
 80078ba:	3001      	adds	r0, #1
 80078bc:	d020      	beq.n	8007900 <_printf_common+0xa8>
 80078be:	6823      	ldr	r3, [r4, #0]
 80078c0:	68e5      	ldr	r5, [r4, #12]
 80078c2:	f003 0306 	and.w	r3, r3, #6
 80078c6:	2b04      	cmp	r3, #4
 80078c8:	bf18      	it	ne
 80078ca:	2500      	movne	r5, #0
 80078cc:	6832      	ldr	r2, [r6, #0]
 80078ce:	f04f 0600 	mov.w	r6, #0
 80078d2:	68a3      	ldr	r3, [r4, #8]
 80078d4:	bf08      	it	eq
 80078d6:	1aad      	subeq	r5, r5, r2
 80078d8:	6922      	ldr	r2, [r4, #16]
 80078da:	bf08      	it	eq
 80078dc:	ea25 75e5 	biceq.w	r5, r5, r5, asr #31
 80078e0:	4293      	cmp	r3, r2
 80078e2:	bfc4      	itt	gt
 80078e4:	1a9b      	subgt	r3, r3, r2
 80078e6:	18ed      	addgt	r5, r5, r3
 80078e8:	341a      	adds	r4, #26
 80078ea:	42b5      	cmp	r5, r6
 80078ec:	d11a      	bne.n	8007924 <_printf_common+0xcc>
 80078ee:	2000      	movs	r0, #0
 80078f0:	e008      	b.n	8007904 <_printf_common+0xac>
 80078f2:	2301      	movs	r3, #1
 80078f4:	4652      	mov	r2, sl
 80078f6:	4649      	mov	r1, r9
 80078f8:	4638      	mov	r0, r7
 80078fa:	47c0      	blx	r8
 80078fc:	3001      	adds	r0, #1
 80078fe:	d103      	bne.n	8007908 <_printf_common+0xb0>
 8007900:	f04f 30ff 	mov.w	r0, #4294967295
 8007904:	e8bd 87f0 	ldmia.w	sp!, {r4, r5, r6, r7, r8, r9, sl, pc}
 8007908:	3501      	adds	r5, #1
 800790a:	e7c4      	b.n	8007896 <_printf_common+0x3e>
 800790c:	2030      	movs	r0, #48	; 0x30
 800790e:	18e1      	adds	r1, r4, r3
 8007910:	f881 0043 	strb.w	r0, [r1, #67]	; 0x43
 8007914:	1c5a      	adds	r2, r3, #1
 8007916:	f894 1045 	ldrb.w	r1, [r4, #69]	; 0x45
 800791a:	4422      	add	r2, r4
 800791c:	3302      	adds	r3, #2
 800791e:	f882 1043 	strb.w	r1, [r2, #67]	; 0x43
 8007922:	e7c5      	b.n	80078b0 <_printf_common+0x58>
 8007924:	2301      	movs	r3, #1
 8007926:	4622      	mov	r2, r4
 8007928:	4649      	mov	r1, r9
 800792a:	4638      	mov	r0, r7
 800792c:	47c0      	blx	r8
 800792e:	3001      	adds	r0, #1
 8007930:	d0e6      	beq.n	8007900 <_printf_common+0xa8>
 8007932:	3601      	adds	r6, #1
 8007934:	e7d9      	b.n	80078ea <_printf_common+0x92>
	...

08007938 <_printf_i>:
 8007938:	e92d 47ff 	stmdb	sp!, {r0, r1, r2, r3, r4, r5, r6, r7, r8, r9, sl, lr}
 800793c:	7e0f      	ldrb	r7, [r1, #24]
 800793e:	4691      	mov	r9, r2
 8007940:	2f78      	cmp	r7, #120	; 0x78
 8007942:	4680      	mov	r8, r0
 8007944:	460c      	mov	r4, r1
 8007946:	469a      	mov	sl, r3
 8007948:	9d0c      	ldr	r5, [sp, #48]	; 0x30
 800794a:	f101 0243 	add.w	r2, r1, #67	; 0x43
 800794e:	d807      	bhi.n	8007960 <_printf_i+0x28>
 8007950:	2f62      	cmp	r7, #98	; 0x62
 8007952:	d80a      	bhi.n	800796a <_printf_i+0x32>
 8007954:	2f00      	cmp	r7, #0
 8007956:	f000 80d9 	beq.w	8007b0c <_printf_i+0x1d4>
 800795a:	2f58      	cmp	r7, #88	; 0x58
 800795c:	f000 80a4 	beq.w	8007aa8 <_printf_i+0x170>
 8007960:	f104 0542 	add.w	r5, r4, #66	; 0x42
 8007964:	f884 7042 	strb.w	r7, [r4, #66]	; 0x42
 8007968:	e03a      	b.n	80079e0 <_printf_i+0xa8>
 800796a:	f1a7 0363 	sub.w	r3, r7, #99	; 0x63
 800796e:	2b15      	cmp	r3, #21
 8007970:	d8f6      	bhi.n	8007960 <_printf_i+0x28>
 8007972:	a101      	add	r1, pc, #4	; (adr r1, 8007978 <_printf_i+0x40>)
 8007974:	f851 f023 	ldr.w	pc, [r1, r3, lsl #2]
 8007978:	080079d1 	.word	0x080079d1
 800797c:	080079e5 	.word	0x080079e5
 8007980:	08007961 	.word	0x08007961
 8007984:	08007961 	.word	0x08007961
 8007988:	08007961 	.word	0x08007961
 800798c:	08007961 	.word	0x08007961
 8007990:	080079e5 	.word	0x080079e5
 8007994:	08007961 	.word	0x08007961
 8007998:	08007961 	.word	0x08007961
 800799c:	08007961 	.word	0x08007961
 80079a0:	08007961 	.word	0x08007961
 80079a4:	08007af3 	.word	0x08007af3
 80079a8:	08007a15 	.word	0x08007a15
 80079ac:	08007ad5 	.word	0x08007ad5
 80079b0:	08007961 	.word	0x08007961
 80079b4:	08007961 	.word	0x08007961
 80079b8:	08007b15 	.word	0x08007b15
 80079bc:	08007961 	.word	0x08007961
 80079c0:	08007a15 	.word	0x08007a15
 80079c4:	08007961 	.word	0x08007961
 80079c8:	08007961 	.word	0x08007961
 80079cc:	08007add 	.word	0x08007add
 80079d0:	682b      	ldr	r3, [r5, #0]
 80079d2:	1d1a      	adds	r2, r3, #4
 80079d4:	681b      	ldr	r3, [r3, #0]
 80079d6:	602a      	str	r2, [r5, #0]
 80079d8:	f104 0542 	add.w	r5, r4, #66	; 0x42
 80079dc:	f884 3042 	strb.w	r3, [r4, #66]	; 0x42
 80079e0:	2301      	movs	r3, #1
 80079e2:	e0a4      	b.n	8007b2e <_printf_i+0x1f6>
 80079e4:	6820      	ldr	r0, [r4, #0]
 80079e6:	6829      	ldr	r1, [r5, #0]
 80079e8:	0606      	lsls	r6, r0, #24
 80079ea:	f101 0304 	add.w	r3, r1, #4
 80079ee:	d50a      	bpl.n	8007a06 <_printf_i+0xce>
 80079f0:	680e      	ldr	r6, [r1, #0]
 80079f2:	602b      	str	r3, [r5, #0]
 80079f4:	2e00      	cmp	r6, #0
 80079f6:	da03      	bge.n	8007a00 <_printf_i+0xc8>
 80079f8:	232d      	movs	r3, #45	; 0x2d
 80079fa:	4276      	negs	r6, r6
 80079fc:	f884 3043 	strb.w	r3, [r4, #67]	; 0x43
 8007a00:	230a      	movs	r3, #10
 8007a02:	485e      	ldr	r0, [pc, #376]	; (8007b7c <_printf_i+0x244>)
 8007a04:	e019      	b.n	8007a3a <_printf_i+0x102>
 8007a06:	680e      	ldr	r6, [r1, #0]
 8007a08:	f010 0f40 	tst.w	r0, #64	; 0x40
 8007a0c:	602b      	str	r3, [r5, #0]
 8007a0e:	bf18      	it	ne
 8007a10:	b236      	sxthne	r6, r6
 8007a12:	e7ef      	b.n	80079f4 <_printf_i+0xbc>
 8007a14:	682b      	ldr	r3, [r5, #0]
 8007a16:	6820      	ldr	r0, [r4, #0]
 8007a18:	1d19      	adds	r1, r3, #4
 8007a1a:	6029      	str	r1, [r5, #0]
 8007a1c:	0601      	lsls	r1, r0, #24
 8007a1e:	d501      	bpl.n	8007a24 <_printf_i+0xec>
 8007a20:	681e      	ldr	r6, [r3, #0]
 8007a22:	e002      	b.n	8007a2a <_printf_i+0xf2>
 8007a24:	0646      	lsls	r6, r0, #25
 8007a26:	d5fb      	bpl.n	8007a20 <_printf_i+0xe8>
 8007a28:	881e      	ldrh	r6, [r3, #0]
 8007a2a:	2f6f      	cmp	r7, #111	; 0x6f
 8007a2c:	bf0c      	ite	eq
 8007a2e:	2308      	moveq	r3, #8
 8007a30:	230a      	movne	r3, #10
 8007a32:	4852      	ldr	r0, [pc, #328]	; (8007b7c <_printf_i+0x244>)
 8007a34:	2100      	movs	r1, #0
 8007a36:	f884 1043 	strb.w	r1, [r4, #67]	; 0x43
 8007a3a:	6865      	ldr	r5, [r4, #4]
 8007a3c:	2d00      	cmp	r5, #0
 8007a3e:	bfa8      	it	ge
 8007a40:	6821      	ldrge	r1, [r4, #0]
 8007a42:	60a5      	str	r5, [r4, #8]
 8007a44:	bfa4      	itt	ge
 8007a46:	f021 0104 	bicge.w	r1, r1, #4
 8007a4a:	6021      	strge	r1, [r4, #0]
 8007a4c:	b90e      	cbnz	r6, 8007a52 <_printf_i+0x11a>
 8007a4e:	2d00      	cmp	r5, #0
 8007a50:	d04d      	beq.n	8007aee <_printf_i+0x1b6>
 8007a52:	4615      	mov	r5, r2
 8007a54:	fbb6 f1f3 	udiv	r1, r6, r3
 8007a58:	fb03 6711 	mls	r7, r3, r1, r6
 8007a5c:	5dc7      	ldrb	r7, [r0, r7]
 8007a5e:	f805 7d01 	strb.w	r7, [r5, #-1]!
 8007a62:	4637      	mov	r7, r6
 8007a64:	42bb      	cmp	r3, r7
 8007a66:	460e      	mov	r6, r1
 8007a68:	d9f4      	bls.n	8007a54 <_printf_i+0x11c>
 8007a6a:	2b08      	cmp	r3, #8
 8007a6c:	d10b      	bne.n	8007a86 <_printf_i+0x14e>
 8007a6e:	6823      	ldr	r3, [r4, #0]
 8007a70:	07de      	lsls	r6, r3, #31
 8007a72:	d508      	bpl.n	8007a86 <_printf_i+0x14e>
 8007a74:	6923      	ldr	r3, [r4, #16]
 8007a76:	6861      	ldr	r1, [r4, #4]
 8007a78:	4299      	cmp	r1, r3
 8007a7a:	bfde      	ittt	le
 8007a7c:	2330      	movle	r3, #48	; 0x30
 8007a7e:	f805 3c01 	strble.w	r3, [r5, #-1]
 8007a82:	f105 35ff 	addle.w	r5, r5, #4294967295
 8007a86:	1b52      	subs	r2, r2, r5
 8007a88:	6122      	str	r2, [r4, #16]
 8007a8a:	464b      	mov	r3, r9
 8007a8c:	4621      	mov	r1, r4
 8007a8e:	4640      	mov	r0, r8
 8007a90:	f8cd a000 	str.w	sl, [sp]
 8007a94:	aa03      	add	r2, sp, #12
 8007a96:	f7ff fedf 	bl	8007858 <_printf_common>
 8007a9a:	3001      	adds	r0, #1
 8007a9c:	d14c      	bne.n	8007b38 <_printf_i+0x200>
 8007a9e:	f04f 30ff 	mov.w	r0, #4294967295
 8007aa2:	b004      	add	sp, #16
 8007aa4:	e8bd 87f0 	ldmia.w	sp!, {r4, r5, r6, r7, r8, r9, sl, pc}
 8007aa8:	4834      	ldr	r0, [pc, #208]	; (8007b7c <_printf_i+0x244>)
 8007aaa:	f881 7045 	strb.w	r7, [r1, #69]	; 0x45
 8007aae:	6829      	ldr	r1, [r5, #0]
 8007ab0:	6823      	ldr	r3, [r4, #0]
 8007ab2:	f851 6b04 	ldr.w	r6, [r1], #4
 8007ab6:	6029      	str	r1, [r5, #0]
 8007ab8:	061d      	lsls	r5, r3, #24
 8007aba:	d514      	bpl.n	8007ae6 <_printf_i+0x1ae>
 8007abc:	07df      	lsls	r7, r3, #31
 8007abe:	bf44      	itt	mi
 8007ac0:	f043 0320 	orrmi.w	r3, r3, #32
 8007ac4:	6023      	strmi	r3, [r4, #0]
 8007ac6:	b91e      	cbnz	r6, 8007ad0 <_printf_i+0x198>
 8007ac8:	6823      	ldr	r3, [r4, #0]
 8007aca:	f023 0320 	bic.w	r3, r3, #32
 8007ace:	6023      	str	r3, [r4, #0]
 8007ad0:	2310      	movs	r3, #16
 8007ad2:	e7af      	b.n	8007a34 <_printf_i+0xfc>
 8007ad4:	6823      	ldr	r3, [r4, #0]
 8007ad6:	f043 0320 	orr.w	r3, r3, #32
 8007ada:	6023      	str	r3, [r4, #0]
 8007adc:	2378      	movs	r3, #120	; 0x78
 8007ade:	4828      	ldr	r0, [pc, #160]	; (8007b80 <_printf_i+0x248>)
 8007ae0:	f884 3045 	strb.w	r3, [r4, #69]	; 0x45
 8007ae4:	e7e3      	b.n	8007aae <_printf_i+0x176>
 8007ae6:	0659      	lsls	r1, r3, #25
 8007ae8:	bf48      	it	mi
 8007aea:	b2b6      	uxthmi	r6, r6
 8007aec:	e7e6      	b.n	8007abc <_printf_i+0x184>
 8007aee:	4615      	mov	r5, r2
 8007af0:	e7bb      	b.n	8007a6a <_printf_i+0x132>
 8007af2:	682b      	ldr	r3, [r5, #0]
 8007af4:	6826      	ldr	r6, [r4, #0]
 8007af6:	1d18      	adds	r0, r3, #4
 8007af8:	6961      	ldr	r1, [r4, #20]
 8007afa:	6028      	str	r0, [r5, #0]
 8007afc:	0635      	lsls	r5, r6, #24
 8007afe:	681b      	ldr	r3, [r3, #0]
 8007b00:	d501      	bpl.n	8007b06 <_printf_i+0x1ce>
 8007b02:	6019      	str	r1, [r3, #0]
 8007b04:	e002      	b.n	8007b0c <_printf_i+0x1d4>
 8007b06:	0670      	lsls	r0, r6, #25
 8007b08:	d5fb      	bpl.n	8007b02 <_printf_i+0x1ca>
 8007b0a:	8019      	strh	r1, [r3, #0]
 8007b0c:	2300      	movs	r3, #0
 8007b0e:	4615      	mov	r5, r2
 8007b10:	6123      	str	r3, [r4, #16]
 8007b12:	e7ba      	b.n	8007a8a <_printf_i+0x152>
 8007b14:	682b      	ldr	r3, [r5, #0]
 8007b16:	2100      	movs	r1, #0
 8007b18:	1d1a      	adds	r2, r3, #4
 8007b1a:	602a      	str	r2, [r5, #0]
 8007b1c:	681d      	ldr	r5, [r3, #0]
 8007b1e:	6862      	ldr	r2, [r4, #4]
 8007b20:	4628      	mov	r0, r5
 8007b22:	f000 f831 	bl	8007b88 <memchr>
 8007b26:	b108      	cbz	r0, 8007b2c <_printf_i+0x1f4>
 8007b28:	1b40      	subs	r0, r0, r5
 8007b2a:	6060      	str	r0, [r4, #4]
 8007b2c:	6863      	ldr	r3, [r4, #4]
 8007b2e:	6123      	str	r3, [r4, #16]
 8007b30:	2300      	movs	r3, #0
 8007b32:	f884 3043 	strb.w	r3, [r4, #67]	; 0x43
 8007b36:	e7a8      	b.n	8007a8a <_printf_i+0x152>
 8007b38:	462a      	mov	r2, r5
 8007b3a:	4649      	mov	r1, r9
 8007b3c:	4640      	mov	r0, r8
 8007b3e:	6923      	ldr	r3, [r4, #16]
 8007b40:	47d0      	blx	sl
 8007b42:	3001      	adds	r0, #1
 8007b44:	d0ab      	beq.n	8007a9e <_printf_i+0x166>
 8007b46:	6823      	ldr	r3, [r4, #0]
 8007b48:	079b      	lsls	r3, r3, #30
 8007b4a:	d413      	bmi.n	8007b74 <_printf_i+0x23c>
 8007b4c:	68e0      	ldr	r0, [r4, #12]
 8007b4e:	9b03      	ldr	r3, [sp, #12]
 8007b50:	4298      	cmp	r0, r3
 8007b52:	bfb8      	it	lt
 8007b54:	4618      	movlt	r0, r3
 8007b56:	e7a4      	b.n	8007aa2 <_printf_i+0x16a>
 8007b58:	2301      	movs	r3, #1
 8007b5a:	4632      	mov	r2, r6
 8007b5c:	4649      	mov	r1, r9
 8007b5e:	4640      	mov	r0, r8
 8007b60:	47d0      	blx	sl
 8007b62:	3001      	adds	r0, #1
 8007b64:	d09b      	beq.n	8007a9e <_printf_i+0x166>
 8007b66:	3501      	adds	r5, #1
 8007b68:	68e3      	ldr	r3, [r4, #12]
 8007b6a:	9903      	ldr	r1, [sp, #12]
 8007b6c:	1a5b      	subs	r3, r3, r1
 8007b6e:	42ab      	cmp	r3, r5
 8007b70:	dcf2      	bgt.n	8007b58 <_printf_i+0x220>
 8007b72:	e7eb      	b.n	8007b4c <_printf_i+0x214>
 8007b74:	2500      	movs	r5, #0
 8007b76:	f104 0619 	add.w	r6, r4, #25
 8007b7a:	e7f5      	b.n	8007b68 <_printf_i+0x230>
 8007b7c:	080083d3 	.word	0x080083d3
 8007b80:	080083e4 	.word	0x080083e4

08007b84 <__retarget_lock_acquire_recursive>:
 8007b84:	4770      	bx	lr

08007b86 <__retarget_lock_release_recursive>:
 8007b86:	4770      	bx	lr

08007b88 <memchr>:
 8007b88:	4603      	mov	r3, r0
 8007b8a:	b510      	push	{r4, lr}
 8007b8c:	b2c9      	uxtb	r1, r1
 8007b8e:	4402      	add	r2, r0
 8007b90:	4293      	cmp	r3, r2
 8007b92:	4618      	mov	r0, r3
 8007b94:	d101      	bne.n	8007b9a <memchr+0x12>
 8007b96:	2000      	movs	r0, #0
 8007b98:	e003      	b.n	8007ba2 <memchr+0x1a>
 8007b9a:	7804      	ldrb	r4, [r0, #0]
 8007b9c:	3301      	adds	r3, #1
 8007b9e:	428c      	cmp	r4, r1
 8007ba0:	d1f6      	bne.n	8007b90 <memchr+0x8>
 8007ba2:	bd10      	pop	{r4, pc}

08007ba4 <memcpy>:
 8007ba4:	440a      	add	r2, r1
 8007ba6:	4291      	cmp	r1, r2
 8007ba8:	f100 33ff 	add.w	r3, r0, #4294967295
 8007bac:	d100      	bne.n	8007bb0 <memcpy+0xc>
 8007bae:	4770      	bx	lr
 8007bb0:	b510      	push	{r4, lr}
 8007bb2:	f811 4b01 	ldrb.w	r4, [r1], #1
 8007bb6:	4291      	cmp	r1, r2
 8007bb8:	f803 4f01 	strb.w	r4, [r3, #1]!
 8007bbc:	d1f9      	bne.n	8007bb2 <memcpy+0xe>
 8007bbe:	bd10      	pop	{r4, pc}

08007bc0 <memmove>:
 8007bc0:	4288      	cmp	r0, r1
 8007bc2:	b510      	push	{r4, lr}
 8007bc4:	eb01 0402 	add.w	r4, r1, r2
 8007bc8:	d902      	bls.n	8007bd0 <memmove+0x10>
 8007bca:	4284      	cmp	r4, r0
 8007bcc:	4623      	mov	r3, r4
 8007bce:	d807      	bhi.n	8007be0 <memmove+0x20>
 8007bd0:	1e43      	subs	r3, r0, #1
 8007bd2:	42a1      	cmp	r1, r4
 8007bd4:	d008      	beq.n	8007be8 <memmove+0x28>
 8007bd6:	f811 2b01 	ldrb.w	r2, [r1], #1
 8007bda:	f803 2f01 	strb.w	r2, [r3, #1]!
 8007bde:	e7f8      	b.n	8007bd2 <memmove+0x12>
 8007be0:	4601      	mov	r1, r0
 8007be2:	4402      	add	r2, r0
 8007be4:	428a      	cmp	r2, r1
 8007be6:	d100      	bne.n	8007bea <memmove+0x2a>
 8007be8:	bd10      	pop	{r4, pc}
 8007bea:	f813 4d01 	ldrb.w	r4, [r3, #-1]!
 8007bee:	f802 4d01 	strb.w	r4, [r2, #-1]!
 8007bf2:	e7f7      	b.n	8007be4 <memmove+0x24>

08007bf4 <_realloc_r>:
 8007bf4:	e92d 41f0 	stmdb	sp!, {r4, r5, r6, r7, r8, lr}
 8007bf8:	4680      	mov	r8, r0
 8007bfa:	4614      	mov	r4, r2
 8007bfc:	460e      	mov	r6, r1
 8007bfe:	b921      	cbnz	r1, 8007c0a <_realloc_r+0x16>
 8007c00:	4611      	mov	r1, r2
 8007c02:	e8bd 41f0 	ldmia.w	sp!, {r4, r5, r6, r7, r8, lr}
 8007c06:	f7ff bc1b 	b.w	8007440 <_malloc_r>
 8007c0a:	b92a      	cbnz	r2, 8007c18 <_realloc_r+0x24>
 8007c0c:	f7ff fbb0 	bl	8007370 <_free_r>
 8007c10:	4625      	mov	r5, r4
 8007c12:	4628      	mov	r0, r5
 8007c14:	e8bd 81f0 	ldmia.w	sp!, {r4, r5, r6, r7, r8, pc}
 8007c18:	f000 f81b 	bl	8007c52 <_malloc_usable_size_r>
 8007c1c:	4284      	cmp	r4, r0
 8007c1e:	4607      	mov	r7, r0
 8007c20:	d802      	bhi.n	8007c28 <_realloc_r+0x34>
 8007c22:	ebb4 0f50 	cmp.w	r4, r0, lsr #1
 8007c26:	d812      	bhi.n	8007c4e <_realloc_r+0x5a>
 8007c28:	4621      	mov	r1, r4
 8007c2a:	4640      	mov	r0, r8
 8007c2c:	f7ff fc08 	bl	8007440 <_malloc_r>
 8007c30:	4605      	mov	r5, r0
 8007c32:	2800      	cmp	r0, #0
 8007c34:	d0ed      	beq.n	8007c12 <_realloc_r+0x1e>
 8007c36:	42bc      	cmp	r4, r7
 8007c38:	4622      	mov	r2, r4
 8007c3a:	4631      	mov	r1, r6
 8007c3c:	bf28      	it	cs
 8007c3e:	463a      	movcs	r2, r7
 8007c40:	f7ff ffb0 	bl	8007ba4 <memcpy>
 8007c44:	4631      	mov	r1, r6
 8007c46:	4640      	mov	r0, r8
 8007c48:	f7ff fb92 	bl	8007370 <_free_r>
 8007c4c:	e7e1      	b.n	8007c12 <_realloc_r+0x1e>
 8007c4e:	4635      	mov	r5, r6
 8007c50:	e7df      	b.n	8007c12 <_realloc_r+0x1e>

08007c52 <_malloc_usable_size_r>:
 8007c52:	f851 3c04 	ldr.w	r3, [r1, #-4]
 8007c56:	1f18      	subs	r0, r3, #4
 8007c58:	2b00      	cmp	r3, #0
 8007c5a:	bfbc      	itt	lt
 8007c5c:	580b      	ldrlt	r3, [r1, r0]
 8007c5e:	18c0      	addlt	r0, r0, r3
 8007c60:	4770      	bx	lr
	...

08007c64 <_init>:
 8007c64:	b5f8      	push	{r3, r4, r5, r6, r7, lr}
 8007c66:	bf00      	nop
 8007c68:	bcf8      	pop	{r3, r4, r5, r6, r7}
 8007c6a:	bc08      	pop	{r3}
 8007c6c:	469e      	mov	lr, r3
 8007c6e:	4770      	bx	lr

08007c70 <_fini>:
 8007c70:	b5f8      	push	{r3, r4, r5, r6, r7, lr}
 8007c72:	bf00      	nop
 8007c74:	bcf8      	pop	{r3, r4, r5, r6, r7}
 8007c76:	bc08      	pop	{r3}
 8007c78:	469e      	mov	lr, r3
 8007c7a:	4770      	bx	lr
